prg rom size: 0x4000, chr rom size: 0x2000
C79E  78        SEI                             A:00 X:00 Y:00 P:24 SP:FD CYC:12
C79F  D8        CLD                             A:00 X:00 Y:00 P:24 SP:FD CYC:14
C7A0  A9 10     LDA #$10                        A:00 X:00 Y:00 P:24 SP:FD CYC:16
C7A2  8D 00 20  STA $2000 = 00                  A:10 X:00 Y:00 P:24 SP:FD CYC:18
C7A5  A2 FF     LDX #$FF                        A:10 X:00 Y:00 P:24 SP:FD CYC:22
C7A7  9A        TXS                             A:10 X:FF Y:00 P:A4 SP:FD CYC:24
C7A8  AD 02 20  LDA $2002 = 00                  A:10 X:FF Y:00 P:A4 SP:FF CYC:26
C7AB  29 80     AND #$80                        A:00 X:FF Y:00 P:26 SP:FF CYC:30
C7AD  F0 F9     BEQ $C7A8                       A:00 X:FF Y:00 P:26 SP:FF CYC:32
C7A8  AD 02 20  LDA $2002 = 00                  A:00 X:FF Y:00 P:26 SP:FF CYC:35
C7AB  29 80     AND #$80                        A:00 X:FF Y:00 P:26 SP:FF CYC:39
C7AD  F0 F9     BEQ $C7A8                       A:00 X:FF Y:00 P:26 SP:FF CYC:41
C7A8  AD 02 20  LDA $2002 = 00                  A:00 X:FF Y:00 P:26 SP:FF CYC:44
C7AB  29 80     AND #$80                        A:00 X:FF Y:00 P:26 SP:FF CYC:48
C7AD  F0 F9     BEQ $C7A8                       A:00 X:FF Y:00 P:26 SP:FF CYC:50
C7A8  AD 02 20  LDA $2002 = 00                  A:00 X:FF Y:00 P:26 SP:FF CYC:53
C7AB  29 80     AND #$80                        A:00 X:FF Y:00 P:26 SP:FF CYC:57
C7AD  F0 F9     BEQ $C7A8                       A:00 X:FF Y:00 P:26 SP:FF CYC:59
C7A8  AD 02 20  LDA $2002 = 00                  A:00 X:FF Y:00 P:26 SP:FF CYC:62
C7AB  29 80     AND #$80                        A:00 X:FF Y:00 P:26 SP:FF CYC:66
C7AD  F0 F9     BEQ $C7A8                       A:00 X:FF Y:00 P:26 SP:FF CYC:68
C7A8  AD 02 20  LDA $2002 = 00                  A:00 X:FF Y:00 P:26 SP:FF CYC:71
C7AB  29 80     AND #$80                        A:00 X:FF Y:00 P:26 SP:FF CYC:75
C7AD  F0 F9     BEQ $C7A8                       A:00 X:FF Y:00 P:26 SP:FF CYC:77
C7A8  AD 02 20  LDA $2002 = 00                  A:00 X:FF Y:00 P:26 SP:FF CYC:80
C7AB  29 80     AND #$80                        A:00 X:FF Y:00 P:26 SP:FF CYC:84
C7AD  F0 F9     BEQ $C7A8                       A:00 X:FF Y:00 P:26 SP:FF CYC:86
C7A8  AD 02 20  LDA $2002 = 00                  A:00 X:FF Y:00 P:26 SP:FF CYC:89
C7AB  29 80     AND #$80                        A:00 X:FF Y:00 P:26 SP:FF CYC:93
C7AD  F0 F9     BEQ $C7A8                       A:00 X:FF Y:00 P:26 SP:FF CYC:95
C7A8  AD 02 20  LDA $2002 = 00                  A:00 X:FF Y:00 P:26 SP:FF CYC:98
C7AB  29 80     AND #$80                        A:00 X:FF Y:00 P:26 SP:FF CYC:102
C7AD  F0 F9     BEQ $C7A8                       A:00 X:FF Y:00 P:26 SP:FF CYC:104
C7A8  AD 02 20  LDA $2002 = 00                  A:00 X:FF Y:00 P:26 SP:FF CYC:107
C7AB  29 80     AND #$80                        A:00 X:FF Y:00 P:26 SP:FF CYC:111
C7AD  F0 F9     BEQ $C7A8                       A:00 X:FF Y:00 P:26 SP:FF CYC:113
C7A8  AD 02 20  LDA $2002 = 00                  A:00 X:FF Y:00 P:26 SP:FF CYC:116
C7AB  29 80     AND #$80                        A:00 X:FF Y:00 P:26 SP:FF CYC:120
C7AD  F0 F9     BEQ $C7A8                       A:00 X:FF Y:00 P:26 SP:FF CYC:122
C7A8  AD 02 20  LDA $2002 = 00                  A:00 X:FF Y:00 P:26 SP:FF CYC:125
C7AB  29 80     AND #$80                        A:00 X:FF Y:00 P:26 SP:FF CYC:129
C7AD  F0 F9     BEQ $C7A8                       A:00 X:FF Y:00 P:26 SP:FF CYC:131
C7A8  AD 02 20  LDA $2002 = 00                  A:00 X:FF Y:00 P:26 SP:FF CYC:134
C7AB  29 80     AND #$80                        A:00 X:FF Y:00 P:26 SP:FF CYC:138
C7AD  F0 F9     BEQ $C7A8                       A:00 X:FF Y:00 P:26 SP:FF CYC:140
C7A8  AD 02 20  LDA $2002 = 00                  A:00 X:FF Y:00 P:26 SP:FF CYC:143
C7AB  29 80     AND #$80                        A:00 X:FF Y:00 P:26 SP:FF CYC:147
C7AD  F0 F9     BEQ $C7A8                       A:00 X:FF Y:00 P:26 SP:FF CYC:149
C7A8  AD 02 20  LDA $2002 = 00                  A:00 X:FF Y:00 P:26 SP:FF CYC:152
C7AB  29 80     AND #$80                        A:00 X:FF Y:00 P:26 SP:FF CYC:156
C7AD  F0 F9     BEQ $C7A8                       A:00 X:FF Y:00 P:26 SP:FF CYC:158
C7A8  AD 02 20  LDA $2002 = 00                  A:00 X:FF Y:00 P:26 SP:FF CYC:161
C7AB  29 80     AND #$80                        A:00 X:FF Y:00 P:26 SP:FF CYC:165
C7AD  F0 F9     BEQ $C7A8                       A:00 X:FF Y:00 P:26 SP:FF CYC:167
C7A8  AD 02 20  LDA $2002 = 00                  A:00 X:FF Y:00 P:26 SP:FF CYC:170
C7AB  29 80     AND #$80                        A:00 X:FF Y:00 P:26 SP:FF CYC:174
C7AD  F0 F9     BEQ $C7A8                       A:00 X:FF Y:00 P:26 SP:FF CYC:176
C7A8  AD 02 20  LDA $2002 = 00                  A:00 X:FF Y:00 P:26 SP:FF CYC:179
C7AB  29 80     AND #$80                        A:00 X:FF Y:00 P:26 SP:FF CYC:183
C7AD  F0 F9     BEQ $C7A8                       A:00 X:FF Y:00 P:26 SP:FF CYC:185
C7A8  AD 02 20  LDA $2002 = 00                  A:00 X:FF Y:00 P:26 SP:FF CYC:188
C7AB  29 80     AND #$80                        A:00 X:FF Y:00 P:26 SP:FF CYC:192
C7AD  F0 F9     BEQ $C7A8                       A:00 X:FF Y:00 P:26 SP:FF CYC:194
C7A8  AD 02 20  LDA $2002 = 00                  A:00 X:FF Y:00 P:26 SP:FF CYC:197
C7AB  29 80     AND #$80                        A:00 X:FF Y:00 P:26 SP:FF CYC:201
C7AD  F0 F9     BEQ $C7A8                       A:00 X:FF Y:00 P:26 SP:FF CYC:203
C7A8  AD 02 20  LDA $2002 = 00                  A:00 X:FF Y:00 P:26 SP:FF CYC:206
C7AB  29 80     AND #$80                        A:00 X:FF Y:00 P:26 SP:FF CYC:210
C7AD  F0 F9     BEQ $C7A8                       A:00 X:FF Y:00 P:26 SP:FF CYC:212
C7A8  AD 02 20  LDA $2002 = 00                  A:00 X:FF Y:00 P:26 SP:FF CYC:215
C7AB  29 80     AND #$80                        A:00 X:FF Y:00 P:26 SP:FF CYC:219
C7AD  F0 F9     BEQ $C7A8                       A:00 X:FF Y:00 P:26 SP:FF CYC:221
C7A8  AD 02 20  LDA $2002 = 00                  A:00 X:FF Y:00 P:26 SP:FF CYC:224
C7AB  29 80     AND #$80                        A:00 X:FF Y:00 P:26 SP:FF CYC:228
C7AD  F0 F9     BEQ $C7A8                       A:00 X:FF Y:00 P:26 SP:FF CYC:230
C7A8  AD 02 20  LDA $2002 = 00                  A:00 X:FF Y:00 P:26 SP:FF CYC:233
C7AB  29 80     AND #$80                        A:00 X:FF Y:00 P:26 SP:FF CYC:237
C7AD  F0 F9     BEQ $C7A8                       A:00 X:FF Y:00 P:26 SP:FF CYC:239
C7A8  AD 02 20  LDA $2002 = 00                  A:00 X:FF Y:00 P:26 SP:FF CYC:242
C7AB  29 80     AND #$80                        A:00 X:FF Y:00 P:26 SP:FF CYC:246
C7AD  F0 F9     BEQ $C7A8                       A:00 X:FF Y:00 P:26 SP:FF CYC:248
C7A8  AD 02 20  LDA $2002 = 00                  A:00 X:FF Y:00 P:26 SP:FF CYC:251
C7AB  29 80     AND #$80                        A:00 X:FF Y:00 P:26 SP:FF CYC:255
C7AD  F0 F9     BEQ $C7A8                       A:00 X:FF Y:00 P:26 SP:FF CYC:257
C7A8  AD 02 20  LDA $2002 = 00                  A:00 X:FF Y:00 P:26 SP:FF CYC:260
C7AB  29 80     AND #$80                        A:00 X:FF Y:00 P:26 SP:FF CYC:264
C7AD  F0 F9     BEQ $C7A8                       A:00 X:FF Y:00 P:26 SP:FF CYC:266
C7A8  AD 02 20  LDA $2002 = 00                  A:00 X:FF Y:00 P:26 SP:FF CYC:269
C7AB  29 80     AND #$80                        A:00 X:FF Y:00 P:26 SP:FF CYC:273
C7AD  F0 F9     BEQ $C7A8                       A:00 X:FF Y:00 P:26 SP:FF CYC:275
C7A8  AD 02 20  LDA $2002 = 00                  A:00 X:FF Y:00 P:26 SP:FF CYC:278
C7AB  29 80     AND #$80                        A:00 X:FF Y:00 P:26 SP:FF CYC:282
C7AD  F0 F9     BEQ $C7A8                       A:00 X:FF Y:00 P:26 SP:FF CYC:284
C7A8  AD 02 20  LDA $2002 = 00                  A:00 X:FF Y:00 P:26 SP:FF CYC:287
C7AB  29 80     AND #$80                        A:00 X:FF Y:00 P:26 SP:FF CYC:291
C7AD  F0 F9     BEQ $C7A8                       A:00 X:FF Y:00 P:26 SP:FF CYC:293
C7A8  AD 02 20  LDA $2002 = 00                  A:00 X:FF Y:00 P:26 SP:FF CYC:296
C7AB  29 80     AND #$80                        A:00 X:FF Y:00 P:26 SP:FF CYC:300
C7AD  F0 F9     BEQ $C7A8                       A:00 X:FF Y:00 P:26 SP:FF CYC:302
C7A8  AD 02 20  LDA $2002 = 00                  A:00 X:FF Y:00 P:26 SP:FF CYC:305
C7AB  29 80     AND #$80                        A:00 X:FF Y:00 P:26 SP:FF CYC:309
C7AD  F0 F9     BEQ $C7A8                       A:00 X:FF Y:00 P:26 SP:FF CYC:311
C7A8  AD 02 20  LDA $2002 = 00                  A:00 X:FF Y:00 P:26 SP:FF CYC:314
C7AB  29 80     AND #$80                        A:00 X:FF Y:00 P:26 SP:FF CYC:318
C7AD  F0 F9     BEQ $C7A8                       A:00 X:FF Y:00 P:26 SP:FF CYC:320
C7A8  AD 02 20  LDA $2002 = 00                  A:00 X:FF Y:00 P:26 SP:FF CYC:323
C7AB  29 80     AND #$80                        A:00 X:FF Y:00 P:26 SP:FF CYC:327
C7AD  F0 F9     BEQ $C7A8                       A:00 X:FF Y:00 P:26 SP:FF CYC:329
C7A8  AD 02 20  LDA $2002 = 00                  A:00 X:FF Y:00 P:26 SP:FF CYC:332
C7AB  29 80     AND #$80                        A:00 X:FF Y:00 P:26 SP:FF CYC:336
C7AD  F0 F9     BEQ $C7A8                       A:00 X:FF Y:00 P:26 SP:FF CYC:338
C7A8  AD 02 20  LDA $2002 = 00                  A:00 X:FF Y:00 P:26 SP:FF CYC:341
C7AB  29 80     AND #$80                        A:00 X:FF Y:00 P:26 SP:FF CYC:345
C7AD  F0 F9     BEQ $C7A8                       A:00 X:FF Y:00 P:26 SP:FF CYC:347
C7A8  AD 02 20  LDA $2002 = 00                  A:00 X:FF Y:00 P:26 SP:FF CYC:350
C7AB  29 80     AND #$80                        A:00 X:FF Y:00 P:26 SP:FF CYC:354
C7AD  F0 F9     BEQ $C7A8                       A:00 X:FF Y:00 P:26 SP:FF CYC:356
C7A8  AD 02 20  LDA $2002 = 00                  A:00 X:FF Y:00 P:26 SP:FF CYC:359
C7AB  29 80     AND #$80                        A:00 X:FF Y:00 P:26 SP:FF CYC:363
C7AD  F0 F9     BEQ $C7A8                       A:00 X:FF Y:00 P:26 SP:FF CYC:365
C7A8  AD 02 20  LDA $2002 = 00                  A:00 X:FF Y:00 P:26 SP:FF CYC:368
C7AB  29 80     AND #$80                        A:00 X:FF Y:00 P:26 SP:FF CYC:372
C7AD  F0 F9     BEQ $C7A8                       A:00 X:FF Y:00 P:26 SP:FF CYC:374
C7A8  AD 02 20  LDA $2002 = 00                  A:00 X:FF Y:00 P:26 SP:FF CYC:377
C7AB  29 80     AND #$80                        A:00 X:FF Y:00 P:26 SP:FF CYC:381
C7AD  F0 F9     BEQ $C7A8                       A:00 X:FF Y:00 P:26 SP:FF CYC:383
C7A8  AD 02 20  LDA $2002 = 00                  A:00 X:FF Y:00 P:26 SP:FF CYC:386
C7AB  29 80     AND #$80                        A:00 X:FF Y:00 P:26 SP:FF CYC:390
C7AD  F0 F9     BEQ $C7A8                       A:00 X:FF Y:00 P:26 SP:FF CYC:392
C7A8  AD 02 20  LDA $2002 = 00                  A:00 X:FF Y:00 P:26 SP:FF CYC:395
C7AB  29 80     AND #$80                        A:00 X:FF Y:00 P:26 SP:FF CYC:399
C7AD  F0 F9     BEQ $C7A8                       A:00 X:FF Y:00 P:26 SP:FF CYC:401
C7A8  AD 02 20  LDA $2002 = 00                  A:00 X:FF Y:00 P:26 SP:FF CYC:404
C7AB  29 80     AND #$80                        A:00 X:FF Y:00 P:26 SP:FF CYC:408
C7AD  F0 F9     BEQ $C7A8                       A:00 X:FF Y:00 P:26 SP:FF CYC:410
C7A8  AD 02 20  LDA $2002 = 00                  A:00 X:FF Y:00 P:26 SP:FF CYC:413
C7AB  29 80     AND #$80                        A:00 X:FF Y:00 P:26 SP:FF CYC:417
C7AD  F0 F9     BEQ $C7A8                       A:00 X:FF Y:00 P:26 SP:FF CYC:419
C7A8  AD 02 20  LDA $2002 = 00                  A:00 X:FF Y:00 P:26 SP:FF CYC:422
C7AB  29 80     AND #$80                        A:00 X:FF Y:00 P:26 SP:FF CYC:426
C7AD  F0 F9     BEQ $C7A8                       A:00 X:FF Y:00 P:26 SP:FF CYC:428
C7A8  AD 02 20  LDA $2002 = 00                  A:00 X:FF Y:00 P:26 SP:FF CYC:431
C7AB  29 80     AND #$80                        A:00 X:FF Y:00 P:26 SP:FF CYC:435
C7AD  F0 F9     BEQ $C7A8                       A:00 X:FF Y:00 P:26 SP:FF CYC:437
C7A8  AD 02 20  LDA $2002 = 00                  A:00 X:FF Y:00 P:26 SP:FF CYC:440
C7AB  29 80     AND #$80                        A:00 X:FF Y:00 P:26 SP:FF CYC:444
C7AD  F0 F9     BEQ $C7A8                       A:00 X:FF Y:00 P:26 SP:FF CYC:446
C7A8  AD 02 20  LDA $2002 = 00                  A:00 X:FF Y:00 P:26 SP:FF CYC:449
C7AB  29 80     AND #$80                        A:00 X:FF Y:00 P:26 SP:FF CYC:453
C7AD  F0 F9     BEQ $C7A8                       A:00 X:FF Y:00 P:26 SP:FF CYC:455
C7A8  AD 02 20  LDA $2002 = 00                  A:00 X:FF Y:00 P:26 SP:FF CYC:458
C7AB  29 80     AND #$80                        A:00 X:FF Y:00 P:26 SP:FF CYC:462
C7AD  F0 F9     BEQ $C7A8                       A:00 X:FF Y:00 P:26 SP:FF CYC:464
C7A8  AD 02 20  LDA $2002 = 00                  A:00 X:FF Y:00 P:26 SP:FF CYC:467
C7AB  29 80     AND #$80                        A:00 X:FF Y:00 P:26 SP:FF CYC:471
C7AD  F0 F9     BEQ $C7A8                       A:00 X:FF Y:00 P:26 SP:FF CYC:473
C7A8  AD 02 20  LDA $2002 = 00                  A:00 X:FF Y:00 P:26 SP:FF CYC:476
C7AB  29 80     AND #$80                        A:00 X:FF Y:00 P:26 SP:FF CYC:480
C7AD  F0 F9     BEQ $C7A8                       A:00 X:FF Y:00 P:26 SP:FF CYC:482
C7A8  AD 02 20  LDA $2002 = 00                  A:00 X:FF Y:00 P:26 SP:FF CYC:485
C7AB  29 80     AND #$80                        A:00 X:FF Y:00 P:26 SP:FF CYC:489
C7AD  F0 F9     BEQ $C7A8                       A:00 X:FF Y:00 P:26 SP:FF CYC:491
C7A8  AD 02 20  LDA $2002 = 00                  A:00 X:FF Y:00 P:26 SP:FF CYC:494
C7AB  29 80     AND #$80                        A:00 X:FF Y:00 P:26 SP:FF CYC:498
C7AD  F0 F9     BEQ $C7A8                       A:00 X:FF Y:00 P:26 SP:FF CYC:500
C7A8  AD 02 20  LDA $2002 = 00                  A:00 X:FF Y:00 P:26 SP:FF CYC:503
C7AB  29 80     AND #$80                        A:00 X:FF Y:00 P:26 SP:FF CYC:507
C7AD  F0 F9     BEQ $C7A8                       A:00 X:FF Y:00 P:26 SP:FF CYC:509
C7A8  AD 02 20  LDA $2002 = 00                  A:00 X:FF Y:00 P:26 SP:FF CYC:512
C7AB  29 80     AND #$80                        A:00 X:FF Y:00 P:26 SP:FF CYC:516
C7AD  F0 F9     BEQ $C7A8                       A:00 X:FF Y:00 P:26 SP:FF CYC:518
C7A8  AD 02 20  LDA $2002 = 00                  A:00 X:FF Y:00 P:26 SP:FF CYC:521
C7AB  29 80     AND #$80                        A:00 X:FF Y:00 P:26 SP:FF CYC:525
C7AD  F0 F9     BEQ $C7A8                       A:00 X:FF Y:00 P:26 SP:FF CYC:527
C7A8  AD 02 20  LDA $2002 = 00                  A:00 X:FF Y:00 P:26 SP:FF CYC:530
C7AB  29 80     AND #$80                        A:00 X:FF Y:00 P:26 SP:FF CYC:534
C7AD  F0 F9     BEQ $C7A8                       A:00 X:FF Y:00 P:26 SP:FF CYC:536
C7A8  AD 02 20  LDA $2002 = 00                  A:00 X:FF Y:00 P:26 SP:FF CYC:539
C7AB  29 80     AND #$80                        A:00 X:FF Y:00 P:26 SP:FF CYC:543
C7AD  F0 F9     BEQ $C7A8                       A:00 X:FF Y:00 P:26 SP:FF CYC:545
C7A8  AD 02 20  LDA $2002 = 00                  A:00 X:FF Y:00 P:26 SP:FF CYC:548
C7AB  29 80     AND #$80                        A:00 X:FF Y:00 P:26 SP:FF CYC:552
C7AD  F0 F9     BEQ $C7A8                       A:00 X:FF Y:00 P:26 SP:FF CYC:554
C7A8  AD 02 20  LDA $2002 = 00                  A:00 X:FF Y:00 P:26 SP:FF CYC:557
C7AB  29 80     AND #$80                        A:00 X:FF Y:00 P:26 SP:FF CYC:561
C7AD  F0 F9     BEQ $C7A8                       A:00 X:FF Y:00 P:26 SP:FF CYC:563
C7A8  AD 02 20  LDA $2002 = 00                  A:00 X:FF Y:00 P:26 SP:FF CYC:566
C7AB  29 80     AND #$80                        A:00 X:FF Y:00 P:26 SP:FF CYC:570
C7AD  F0 F9     BEQ $C7A8                       A:00 X:FF Y:00 P:26 SP:FF CYC:572
C7A8  AD 02 20  LDA $2002 = 00                  A:00 X:FF Y:00 P:26 SP:FF CYC:575
C7AB  29 80     AND #$80                        A:00 X:FF Y:00 P:26 SP:FF CYC:579
C7AD  F0 F9     BEQ $C7A8                       A:00 X:FF Y:00 P:26 SP:FF CYC:581
C7A8  AD 02 20  LDA $2002 = 00                  A:00 X:FF Y:00 P:26 SP:FF CYC:584
C7AB  29 80     AND #$80                        A:00 X:FF Y:00 P:26 SP:FF CYC:588
C7AD  F0 F9     BEQ $C7A8                       A:00 X:FF Y:00 P:26 SP:FF CYC:590
C7A8  AD 02 20  LDA $2002 = 00                  A:00 X:FF Y:00 P:26 SP:FF CYC:593
C7AB  29 80     AND #$80                        A:00 X:FF Y:00 P:26 SP:FF CYC:597
C7AD  F0 F9     BEQ $C7A8                       A:00 X:FF Y:00 P:26 SP:FF CYC:599
C7A8  AD 02 20  LDA $2002 = 00                  A:00 X:FF Y:00 P:26 SP:FF CYC:602
C7AB  29 80     AND #$80                        A:00 X:FF Y:00 P:26 SP:FF CYC:606
C7AD  F0 F9     BEQ $C7A8                       A:00 X:FF Y:00 P:26 SP:FF CYC:608
C7A8  AD 02 20  LDA $2002 = 00                  A:00 X:FF Y:00 P:26 SP:FF CYC:611
C7AB  29 80     AND #$80                        A:00 X:FF Y:00 P:26 SP:FF CYC:615
C7AD  F0 F9     BEQ $C7A8                       A:00 X:FF Y:00 P:26 SP:FF CYC:617
C7A8  AD 02 20  LDA $2002 = 00                  A:00 X:FF Y:00 P:26 SP:FF CYC:620
C7AB  29 80     AND #$80                        A:00 X:FF Y:00 P:26 SP:FF CYC:624
C7AD  F0 F9     BEQ $C7A8                       A:00 X:FF Y:00 P:26 SP:FF CYC:626
C7A8  AD 02 20  LDA $2002 = 00                  A:00 X:FF Y:00 P:26 SP:FF CYC:629
C7AB  29 80     AND #$80                        A:00 X:FF Y:00 P:26 SP:FF CYC:633
C7AD  F0 F9     BEQ $C7A8                       A:00 X:FF Y:00 P:26 SP:FF CYC:635
C7A8  AD 02 20  LDA $2002 = 00                  A:00 X:FF Y:00 P:26 SP:FF CYC:638
C7AB  29 80     AND #$80                        A:00 X:FF Y:00 P:26 SP:FF CYC:642
C7AD  F0 F9     BEQ $C7A8                       A:00 X:FF Y:00 P:26 SP:FF CYC:644
C7A8  AD 02 20  LDA $2002 = 00                  A:00 X:FF Y:00 P:26 SP:FF CYC:647
C7AB  29 80     AND #$80                        A:00 X:FF Y:00 P:26 SP:FF CYC:651
C7AD  F0 F9     BEQ $C7A8                       A:00 X:FF Y:00 P:26 SP:FF CYC:653
C7A8  AD 02 20  LDA $2002 = 00                  A:00 X:FF Y:00 P:26 SP:FF CYC:656
C7AB  29 80     AND #$80                        A:00 X:FF Y:00 P:26 SP:FF CYC:660
C7AD  F0 F9     BEQ $C7A8                       A:00 X:FF Y:00 P:26 SP:FF CYC:662
C7A8  AD 02 20  LDA $2002 = 00                  A:00 X:FF Y:00 P:26 SP:FF CYC:665
C7AB  29 80     AND #$80                        A:00 X:FF Y:00 P:26 SP:FF CYC:669
C7AD  F0 F9     BEQ $C7A8                       A:00 X:FF Y:00 P:26 SP:FF CYC:671
C7A8  AD 02 20  LDA $2002 = 00                  A:00 X:FF Y:00 P:26 SP:FF CYC:674
C7AB  29 80     AND #$80                        A:00 X:FF Y:00 P:26 SP:FF CYC:678
C7AD  F0 F9     BEQ $C7A8                       A:00 X:FF Y:00 P:26 SP:FF CYC:680
C7A8  AD 02 20  LDA $2002 = 00                  A:00 X:FF Y:00 P:26 SP:FF CYC:683
C7AB  29 80     AND #$80                        A:00 X:FF Y:00 P:26 SP:FF CYC:687
C7AD  F0 F9     BEQ $C7A8                       A:00 X:FF Y:00 P:26 SP:FF CYC:689
C7A8  AD 02 20  LDA $2002 = 00                  A:00 X:FF Y:00 P:26 SP:FF CYC:692
C7AB  29 80     AND #$80                        A:00 X:FF Y:00 P:26 SP:FF CYC:696
C7AD  F0 F9     BEQ $C7A8                       A:00 X:FF Y:00 P:26 SP:FF CYC:698
C7A8  AD 02 20  LDA $2002 = 00                  A:00 X:FF Y:00 P:26 SP:FF CYC:701
C7AB  29 80     AND #$80                        A:00 X:FF Y:00 P:26 SP:FF CYC:705
C7AD  F0 F9     BEQ $C7A8                       A:00 X:FF Y:00 P:26 SP:FF CYC:707
C7A8  AD 02 20  LDA $2002 = 00                  A:00 X:FF Y:00 P:26 SP:FF CYC:710
C7AB  29 80     AND #$80                        A:00 X:FF Y:00 P:26 SP:FF CYC:714
C7AD  F0 F9     BEQ $C7A8                       A:00 X:FF Y:00 P:26 SP:FF CYC:716
C7A8  AD 02 20  LDA $2002 = 00                  A:00 X:FF Y:00 P:26 SP:FF CYC:719
C7AB  29 80     AND #$80                        A:00 X:FF Y:00 P:26 SP:FF CYC:723
C7AD  F0 F9     BEQ $C7A8                       A:00 X:FF Y:00 P:26 SP:FF CYC:725
C7A8  AD 02 20  LDA $2002 = 00                  A:00 X:FF Y:00 P:26 SP:FF CYC:728
C7AB  29 80     AND #$80                        A:00 X:FF Y:00 P:26 SP:FF CYC:732
C7AD  F0 F9     BEQ $C7A8                       A:00 X:FF Y:00 P:26 SP:FF CYC:734
C7A8  AD 02 20  LDA $2002 = 00                  A:00 X:FF Y:00 P:26 SP:FF CYC:737
C7AB  29 80     AND #$80                        A:00 X:FF Y:00 P:26 SP:FF CYC:741
C7AD  F0 F9     BEQ $C7A8                       A:00 X:FF Y:00 P:26 SP:FF CYC:743
C7A8  AD 02 20  LDA $2002 = 00                  A:00 X:FF Y:00 P:26 SP:FF CYC:746
C7AB  29 80     AND #$80                        A:00 X:FF Y:00 P:26 SP:FF CYC:750
C7AD  F0 F9     BEQ $C7A8                       A:00 X:FF Y:00 P:26 SP:FF CYC:752
C7A8  AD 02 20  LDA $2002 = 00                  A:00 X:FF Y:00 P:26 SP:FF CYC:755
C7AB  29 80     AND #$80                        A:00 X:FF Y:00 P:26 SP:FF CYC:759
C7AD  F0 F9     BEQ $C7A8                       A:00 X:FF Y:00 P:26 SP:FF CYC:761
C7A8  AD 02 20  LDA $2002 = 00                  A:00 X:FF Y:00 P:26 SP:FF CYC:764
C7AB  29 80     AND #$80                        A:00 X:FF Y:00 P:26 SP:FF CYC:768
C7AD  F0 F9     BEQ $C7A8                       A:00 X:FF Y:00 P:26 SP:FF CYC:770
C7A8  AD 02 20  LDA $2002 = 00                  A:00 X:FF Y:00 P:26 SP:FF CYC:773
C7AB  29 80     AND #$80                        A:00 X:FF Y:00 P:26 SP:FF CYC:777
C7AD  F0 F9     BEQ $C7A8                       A:00 X:FF Y:00 P:26 SP:FF CYC:779
C7A8  AD 02 20  LDA $2002 = 00                  A:00 X:FF Y:00 P:26 SP:FF CYC:782
C7AB  29 80     AND #$80                        A:00 X:FF Y:00 P:26 SP:FF CYC:786
C7AD  F0 F9     BEQ $C7A8                       A:00 X:FF Y:00 P:26 SP:FF CYC:788
C7A8  AD 02 20  LDA $2002 = 00                  A:00 X:FF Y:00 P:26 SP:FF CYC:791
C7AB  29 80     AND #$80                        A:00 X:FF Y:00 P:26 SP:FF CYC:795
C7AD  F0 F9     BEQ $C7A8                       A:00 X:FF Y:00 P:26 SP:FF CYC:797
C7A8  AD 02 20  LDA $2002 = 00                  A:00 X:FF Y:00 P:26 SP:FF CYC:800
C7AB  29 80     AND #$80                        A:00 X:FF Y:00 P:26 SP:FF CYC:804
C7AD  F0 F9     BEQ $C7A8                       A:00 X:FF Y:00 P:26 SP:FF CYC:806
C7A8  AD 02 20  LDA $2002 = 00                  A:00 X:FF Y:00 P:26 SP:FF CYC:809
C7AB  29 80     AND #$80                        A:00 X:FF Y:00 P:26 SP:FF CYC:813
C7AD  F0 F9     BEQ $C7A8                       A:00 X:FF Y:00 P:26 SP:FF CYC:815
C7A8  AD 02 20  LDA $2002 = 00                  A:00 X:FF Y:00 P:26 SP:FF CYC:818
C7AB  29 80     AND #$80                        A:00 X:FF Y:00 P:26 SP:FF CYC:822
C7AD  F0 F9     BEQ $C7A8                       A:00 X:FF Y:00 P:26 SP:FF CYC:824
C7A8  AD 02 20  LDA $2002 = 00                  A:00 X:FF Y:00 P:26 SP:FF CYC:827
C7AB  29 80     AND #$80                        A:00 X:FF Y:00 P:26 SP:FF CYC:831
C7AD  F0 F9     BEQ $C7A8                       A:00 X:FF Y:00 P:26 SP:FF CYC:833
C7A8  AD 02 20  LDA $2002 = 00                  A:00 X:FF Y:00 P:26 SP:FF CYC:836
C7AB  29 80     AND #$80                        A:00 X:FF Y:00 P:26 SP:FF CYC:840
C7AD  F0 F9     BEQ $C7A8                       A:00 X:FF Y:00 P:26 SP:FF CYC:842
C7A8  AD 02 20  LDA $2002 = 00                  A:00 X:FF Y:00 P:26 SP:FF CYC:845
C7AB  29 80     AND #$80                        A:00 X:FF Y:00 P:26 SP:FF CYC:849
C7AD  F0 F9     BEQ $C7A8                       A:00 X:FF Y:00 P:26 SP:FF CYC:851
C7A8  AD 02 20  LDA $2002 = 00                  A:00 X:FF Y:00 P:26 SP:FF CYC:854
C7AB  29 80     AND #$80                        A:00 X:FF Y:00 P:26 SP:FF CYC:858
C7AD  F0 F9     BEQ $C7A8                       A:00 X:FF Y:00 P:26 SP:FF CYC:860
C7A8  AD 02 20  LDA $2002 = 00                  A:00 X:FF Y:00 P:26 SP:FF CYC:863
C7AB  29 80     AND #$80                        A:00 X:FF Y:00 P:26 SP:FF CYC:867
C7AD  F0 F9     BEQ $C7A8                       A:00 X:FF Y:00 P:26 SP:FF CYC:869
C7A8  AD 02 20  LDA $2002 = 00                  A:00 X:FF Y:00 P:26 SP:FF CYC:872
C7AB  29 80     AND #$80                        A:00 X:FF Y:00 P:26 SP:FF CYC:876
C7AD  F0 F9     BEQ $C7A8                       A:00 X:FF Y:00 P:26 SP:FF CYC:878
C7A8  AD 02 20  LDA $2002 = 00                  A:00 X:FF Y:00 P:26 SP:FF CYC:881
C7AB  29 80     AND #$80                        A:00 X:FF Y:00 P:26 SP:FF CYC:885
C7AD  F0 F9     BEQ $C7A8                       A:00 X:FF Y:00 P:26 SP:FF CYC:887
C7A8  AD 02 20  LDA $2002 = 00                  A:00 X:FF Y:00 P:26 SP:FF CYC:890
C7AB  29 80     AND #$80                        A:00 X:FF Y:00 P:26 SP:FF CYC:894
C7AD  F0 F9     BEQ $C7A8                       A:00 X:FF Y:00 P:26 SP:FF CYC:896
C7A8  AD 02 20  LDA $2002 = 00                  A:00 X:FF Y:00 P:26 SP:FF CYC:899
C7AB  29 80     AND #$80                        A:00 X:FF Y:00 P:26 SP:FF CYC:903
C7AD  F0 F9     BEQ $C7A8                       A:00 X:FF Y:00 P:26 SP:FF CYC:905
C7A8  AD 02 20  LDA $2002 = 00                  A:00 X:FF Y:00 P:26 SP:FF CYC:908
C7AB  29 80     AND #$80                        A:00 X:FF Y:00 P:26 SP:FF CYC:912
C7AD  F0 F9     BEQ $C7A8                       A:00 X:FF Y:00 P:26 SP:FF CYC:914
C7A8  AD 02 20  LDA $2002 = 00                  A:00 X:FF Y:00 P:26 SP:FF CYC:917
C7AB  29 80     AND #$80                        A:00 X:FF Y:00 P:26 SP:FF CYC:921
C7AD  F0 F9     BEQ $C7A8                       A:00 X:FF Y:00 P:26 SP:FF CYC:923
C7A8  AD 02 20  LDA $2002 = 00                  A:00 X:FF Y:00 P:26 SP:FF CYC:926
C7AB  29 80     AND #$80                        A:00 X:FF Y:00 P:26 SP:FF CYC:930
C7AD  F0 F9     BEQ $C7A8                       A:00 X:FF Y:00 P:26 SP:FF CYC:932
C7A8  AD 02 20  LDA $2002 = 00                  A:00 X:FF Y:00 P:26 SP:FF CYC:935
C7AB  29 80     AND #$80                        A:00 X:FF Y:00 P:26 SP:FF CYC:939
C7AD  F0 F9     BEQ $C7A8                       A:00 X:FF Y:00 P:26 SP:FF CYC:941
C7A8  AD 02 20  LDA $2002 = 00                  A:00 X:FF Y:00 P:26 SP:FF CYC:944
C7AB  29 80     AND #$80                        A:00 X:FF Y:00 P:26 SP:FF CYC:948
C7AD  F0 F9     BEQ $C7A8                       A:00 X:FF Y:00 P:26 SP:FF CYC:950
C7A8  AD 02 20  LDA $2002 = 00                  A:00 X:FF Y:00 P:26 SP:FF CYC:953
C7AB  29 80     AND #$80                        A:00 X:FF Y:00 P:26 SP:FF CYC:957
C7AD  F0 F9     BEQ $C7A8                       A:00 X:FF Y:00 P:26 SP:FF CYC:959
C7A8  AD 02 20  LDA $2002 = 00                  A:00 X:FF Y:00 P:26 SP:FF CYC:962
C7AB  29 80     AND #$80                        A:00 X:FF Y:00 P:26 SP:FF CYC:966
C7AD  F0 F9     BEQ $C7A8                       A:00 X:FF Y:00 P:26 SP:FF CYC:968
C7A8  AD 02 20  LDA $2002 = 00                  A:00 X:FF Y:00 P:26 SP:FF CYC:971
C7AB  29 80     AND #$80                        A:00 X:FF Y:00 P:26 SP:FF CYC:975
C7AD  F0 F9     BEQ $C7A8                       A:00 X:FF Y:00 P:26 SP:FF CYC:977
C7A8  AD 02 20  LDA $2002 = 00                  A:00 X:FF Y:00 P:26 SP:FF CYC:980
C7AB  29 80     AND #$80                        A:00 X:FF Y:00 P:26 SP:FF CYC:984
C7AD  F0 F9     BEQ $C7A8                       A:00 X:FF Y:00 P:26 SP:FF CYC:986
C7A8  AD 02 20  LDA $2002 = 00                  A:00 X:FF Y:00 P:26 SP:FF CYC:989
C7AB  29 80     AND #$80                        A:00 X:FF Y:00 P:26 SP:FF CYC:993
C7AD  F0 F9     BEQ $C7A8                       A:00 X:FF Y:00 P:26 SP:FF CYC:995
C7A8  AD 02 20  LDA $2002 = 00                  A:00 X:FF Y:00 P:26 SP:FF CYC:998
C7AB  29 80     AND #$80                        A:00 X:FF Y:00 P:26 SP:FF CYC:1002
C7AD  F0 F9     BEQ $C7A8                       A:00 X:FF Y:00 P:26 SP:FF CYC:1004
C7A8  AD 02 20  LDA $2002 = 00                  A:00 X:FF Y:00 P:26 SP:FF CYC:1007
C7AB  29 80     AND #$80                        A:00 X:FF Y:00 P:26 SP:FF CYC:1011
C7AD  F0 F9     BEQ $C7A8                       A:00 X:FF Y:00 P:26 SP:FF CYC:1013
C7A8  AD 02 20  LDA $2002 = 00                  A:00 X:FF Y:00 P:26 SP:FF CYC:1016
C7AB  29 80     AND #$80                        A:00 X:FF Y:00 P:26 SP:FF CYC:1020
C7AD  F0 F9     BEQ $C7A8                       A:00 X:FF Y:00 P:26 SP:FF CYC:1022
C7A8  AD 02 20  LDA $2002 = 00                  A:00 X:FF Y:00 P:26 SP:FF CYC:1025
C7AB  29 80     AND #$80                        A:00 X:FF Y:00 P:26 SP:FF CYC:1029
C7AD  F0 F9     BEQ $C7A8                       A:00 X:FF Y:00 P:26 SP:FF CYC:1031
C7A8  AD 02 20  LDA $2002 = 00                  A:00 X:FF Y:00 P:26 SP:FF CYC:1034
C7AB  29 80     AND #$80                        A:00 X:FF Y:00 P:26 SP:FF CYC:1038
C7AD  F0 F9     BEQ $C7A8                       A:00 X:FF Y:00 P:26 SP:FF CYC:1040
C7A8  AD 02 20  LDA $2002 = 00                  A:00 X:FF Y:00 P:26 SP:FF CYC:1043
C7AB  29 80     AND #$80                        A:00 X:FF Y:00 P:26 SP:FF CYC:1047
C7AD  F0 F9     BEQ $C7A8                       A:00 X:FF Y:00 P:26 SP:FF CYC:1049
C7A8  AD 02 20  LDA $2002 = 00                  A:00 X:FF Y:00 P:26 SP:FF CYC:1052
C7AB  29 80     AND #$80                        A:00 X:FF Y:00 P:26 SP:FF CYC:1056
C7AD  F0 F9     BEQ $C7A8                       A:00 X:FF Y:00 P:26 SP:FF CYC:1058
C7A8  AD 02 20  LDA $2002 = 00                  A:00 X:FF Y:00 P:26 SP:FF CYC:1061
C7AB  29 80     AND #$80                        A:00 X:FF Y:00 P:26 SP:FF CYC:1065
C7AD  F0 F9     BEQ $C7A8                       A:00 X:FF Y:00 P:26 SP:FF CYC:1067
C7A8  AD 02 20  LDA $2002 = 00                  A:00 X:FF Y:00 P:26 SP:FF CYC:1070
C7AB  29 80     AND #$80                        A:00 X:FF Y:00 P:26 SP:FF CYC:1074
C7AD  F0 F9     BEQ $C7A8                       A:00 X:FF Y:00 P:26 SP:FF CYC:1076
C7A8  AD 02 20  LDA $2002 = 00                  A:00 X:FF Y:00 P:26 SP:FF CYC:1079
C7AB  29 80     AND #$80                        A:00 X:FF Y:00 P:26 SP:FF CYC:1083
C7AD  F0 F9     BEQ $C7A8                       A:00 X:FF Y:00 P:26 SP:FF CYC:1085
C7A8  AD 02 20  LDA $2002 = 00                  A:00 X:FF Y:00 P:26 SP:FF CYC:1088
C7AB  29 80     AND #$80                        A:00 X:FF Y:00 P:26 SP:FF CYC:1092
C7AD  F0 F9     BEQ $C7A8                       A:00 X:FF Y:00 P:26 SP:FF CYC:1094
C7A8  AD 02 20  LDA $2002 = 00                  A:00 X:FF Y:00 P:26 SP:FF CYC:1097
C7AB  29 80     AND #$80                        A:00 X:FF Y:00 P:26 SP:FF CYC:1101
C7AD  F0 F9     BEQ $C7A8                       A:00 X:FF Y:00 P:26 SP:FF CYC:1103
C7A8  AD 02 20  LDA $2002 = 00                  A:00 X:FF Y:00 P:26 SP:FF CYC:1106
C7AB  29 80     AND #$80                        A:00 X:FF Y:00 P:26 SP:FF CYC:1110
C7AD  F0 F9     BEQ $C7A8                       A:00 X:FF Y:00 P:26 SP:FF CYC:1112
C7A8  AD 02 20  LDA $2002 = 00                  A:00 X:FF Y:00 P:26 SP:FF CYC:1115
C7AB  29 80     AND #$80                        A:00 X:FF Y:00 P:26 SP:FF CYC:1119
C7AD  F0 F9     BEQ $C7A8                       A:00 X:FF Y:00 P:26 SP:FF CYC:1121
C7A8  AD 02 20  LDA $2002 = 00                  A:00 X:FF Y:00 P:26 SP:FF CYC:1124
C7AB  29 80     AND #$80                        A:00 X:FF Y:00 P:26 SP:FF CYC:1128
C7AD  F0 F9     BEQ $C7A8                       A:00 X:FF Y:00 P:26 SP:FF CYC:1130
C7A8  AD 02 20  LDA $2002 = 00                  A:00 X:FF Y:00 P:26 SP:FF CYC:1133
C7AB  29 80     AND #$80                        A:00 X:FF Y:00 P:26 SP:FF CYC:1137
C7AD  F0 F9     BEQ $C7A8                       A:00 X:FF Y:00 P:26 SP:FF CYC:1139
C7A8  AD 02 20  LDA $2002 = 00                  A:00 X:FF Y:00 P:26 SP:FF CYC:1142
C7AB  29 80     AND #$80                        A:00 X:FF Y:00 P:26 SP:FF CYC:1146
C7AD  F0 F9     BEQ $C7A8                       A:00 X:FF Y:00 P:26 SP:FF CYC:1148
C7A8  AD 02 20  LDA $2002 = 00                  A:00 X:FF Y:00 P:26 SP:FF CYC:1151
C7AB  29 80     AND #$80                        A:00 X:FF Y:00 P:26 SP:FF CYC:1155
C7AD  F0 F9     BEQ $C7A8                       A:00 X:FF Y:00 P:26 SP:FF CYC:1157
C7A8  AD 02 20  LDA $2002 = 00                  A:00 X:FF Y:00 P:26 SP:FF CYC:1160
C7AB  29 80     AND #$80                        A:00 X:FF Y:00 P:26 SP:FF CYC:1164
C7AD  F0 F9     BEQ $C7A8                       A:00 X:FF Y:00 P:26 SP:FF CYC:1166
C7A8  AD 02 20  LDA $2002 = 00                  A:00 X:FF Y:00 P:26 SP:FF CYC:1169
C7AB  29 80     AND #$80                        A:00 X:FF Y:00 P:26 SP:FF CYC:1173
C7AD  F0 F9     BEQ $C7A8                       A:00 X:FF Y:00 P:26 SP:FF CYC:1175
C7A8  AD 02 20  LDA $2002 = 00                  A:00 X:FF Y:00 P:26 SP:FF CYC:1178
C7AB  29 80     AND #$80                        A:00 X:FF Y:00 P:26 SP:FF CYC:1182
C7AD  F0 F9     BEQ $C7A8                       A:00 X:FF Y:00 P:26 SP:FF CYC:1184
C7A8  AD 02 20  LDA $2002 = 00                  A:00 X:FF Y:00 P:26 SP:FF CYC:1187
C7AB  29 80     AND #$80                        A:00 X:FF Y:00 P:26 SP:FF CYC:1191
C7AD  F0 F9     BEQ $C7A8                       A:00 X:FF Y:00 P:26 SP:FF CYC:1193
C7A8  AD 02 20  LDA $2002 = 00                  A:00 X:FF Y:00 P:26 SP:FF CYC:1196
C7AB  29 80     AND #$80                        A:00 X:FF Y:00 P:26 SP:FF CYC:1200
C7AD  F0 F9     BEQ $C7A8                       A:00 X:FF Y:00 P:26 SP:FF CYC:1202
C7A8  AD 02 20  LDA $2002 = 00                  A:00 X:FF Y:00 P:26 SP:FF CYC:1205
C7AB  29 80     AND #$80                        A:00 X:FF Y:00 P:26 SP:FF CYC:1209
C7AD  F0 F9     BEQ $C7A8                       A:00 X:FF Y:00 P:26 SP:FF CYC:1211
C7A8  AD 02 20  LDA $2002 = 00                  A:00 X:FF Y:00 P:26 SP:FF CYC:1214
C7AB  29 80     AND #$80                        A:00 X:FF Y:00 P:26 SP:FF CYC:1218
C7AD  F0 F9     BEQ $C7A8                       A:00 X:FF Y:00 P:26 SP:FF CYC:1220
C7A8  AD 02 20  LDA $2002 = 00                  A:00 X:FF Y:00 P:26 SP:FF CYC:1223
C7AB  29 80     AND #$80                        A:00 X:FF Y:00 P:26 SP:FF CYC:1227
C7AD  F0 F9     BEQ $C7A8                       A:00 X:FF Y:00 P:26 SP:FF CYC:1229
C7A8  AD 02 20  LDA $2002 = 00                  A:00 X:FF Y:00 P:26 SP:FF CYC:1232
C7AB  29 80     AND #$80                        A:00 X:FF Y:00 P:26 SP:FF CYC:1236
C7AD  F0 F9     BEQ $C7A8                       A:00 X:FF Y:00 P:26 SP:FF CYC:1238
C7A8  AD 02 20  LDA $2002 = 00                  A:00 X:FF Y:00 P:26 SP:FF CYC:1241
C7AB  29 80     AND #$80                        A:00 X:FF Y:00 P:26 SP:FF CYC:1245
C7AD  F0 F9     BEQ $C7A8                       A:00 X:FF Y:00 P:26 SP:FF CYC:1247
C7A8  AD 02 20  LDA $2002 = 00                  A:00 X:FF Y:00 P:26 SP:FF CYC:1250
C7AB  29 80     AND #$80                        A:00 X:FF Y:00 P:26 SP:FF CYC:1254
C7AD  F0 F9     BEQ $C7A8                       A:00 X:FF Y:00 P:26 SP:FF CYC:1256
C7A8  AD 02 20  LDA $2002 = 00                  A:00 X:FF Y:00 P:26 SP:FF CYC:1259
C7AB  29 80     AND #$80                        A:00 X:FF Y:00 P:26 SP:FF CYC:1263
C7AD  F0 F9     BEQ $C7A8                       A:00 X:FF Y:00 P:26 SP:FF CYC:1265
C7A8  AD 02 20  LDA $2002 = 00                  A:00 X:FF Y:00 P:26 SP:FF CYC:1268
C7AB  29 80     AND #$80                        A:00 X:FF Y:00 P:26 SP:FF CYC:1272
C7AD  F0 F9     BEQ $C7A8                       A:00 X:FF Y:00 P:26 SP:FF CYC:1274
C7A8  AD 02 20  LDA $2002 = 00                  A:00 X:FF Y:00 P:26 SP:FF CYC:1277
C7AB  29 80     AND #$80                        A:00 X:FF Y:00 P:26 SP:FF CYC:1281
C7AD  F0 F9     BEQ $C7A8                       A:00 X:FF Y:00 P:26 SP:FF CYC:1283
C7A8  AD 02 20  LDA $2002 = 00                  A:00 X:FF Y:00 P:26 SP:FF CYC:1286
C7AB  29 80     AND #$80                        A:00 X:FF Y:00 P:26 SP:FF CYC:1290
C7AD  F0 F9     BEQ $C7A8                       A:00 X:FF Y:00 P:26 SP:FF CYC:1292
C7A8  AD 02 20  LDA $2002 = 00                  A:00 X:FF Y:00 P:26 SP:FF CYC:1295
C7AB  29 80     AND #$80                        A:00 X:FF Y:00 P:26 SP:FF CYC:1299
C7AD  F0 F9     BEQ $C7A8                       A:00 X:FF Y:00 P:26 SP:FF CYC:1301
C7A8  AD 02 20  LDA $2002 = 00                  A:00 X:FF Y:00 P:26 SP:FF CYC:1304
C7AB  29 80     AND #$80                        A:00 X:FF Y:00 P:26 SP:FF CYC:1308
C7AD  F0 F9     BEQ $C7A8                       A:00 X:FF Y:00 P:26 SP:FF CYC:1310
C7A8  AD 02 20  LDA $2002 = 00                  A:00 X:FF Y:00 P:26 SP:FF CYC:1313
C7AB  29 80     AND #$80                        A:00 X:FF Y:00 P:26 SP:FF CYC:1317
C7AD  F0 F9     BEQ $C7A8                       A:00 X:FF Y:00 P:26 SP:FF CYC:1319
C7A8  AD 02 20  LDA $2002 = 00                  A:00 X:FF Y:00 P:26 SP:FF CYC:1322
C7AB  29 80     AND #$80                        A:00 X:FF Y:00 P:26 SP:FF CYC:1326
C7AD  F0 F9     BEQ $C7A8                       A:00 X:FF Y:00 P:26 SP:FF CYC:1328
C7A8  AD 02 20  LDA $2002 = 00                  A:00 X:FF Y:00 P:26 SP:FF CYC:1331
C7AB  29 80     AND #$80                        A:00 X:FF Y:00 P:26 SP:FF CYC:1335
C7AD  F0 F9     BEQ $C7A8                       A:00 X:FF Y:00 P:26 SP:FF CYC:1337
C7A8  AD 02 20  LDA $2002 = 00                  A:00 X:FF Y:00 P:26 SP:FF CYC:1340
C7AB  29 80     AND #$80                        A:00 X:FF Y:00 P:26 SP:FF CYC:1344
C7AD  F0 F9     BEQ $C7A8                       A:00 X:FF Y:00 P:26 SP:FF CYC:1346
C7A8  AD 02 20  LDA $2002 = 00                  A:00 X:FF Y:00 P:26 SP:FF CYC:1349
C7AB  29 80     AND #$80                        A:00 X:FF Y:00 P:26 SP:FF CYC:1353
C7AD  F0 F9     BEQ $C7A8                       A:00 X:FF Y:00 P:26 SP:FF CYC:1355
C7A8  AD 02 20  LDA $2002 = 00                  A:00 X:FF Y:00 P:26 SP:FF CYC:1358
C7AB  29 80     AND #$80                        A:00 X:FF Y:00 P:26 SP:FF CYC:1362
C7AD  F0 F9     BEQ $C7A8                       A:00 X:FF Y:00 P:26 SP:FF CYC:1364
C7A8  AD 02 20  LDA $2002 = 00                  A:00 X:FF Y:00 P:26 SP:FF CYC:1367
C7AB  29 80     AND #$80                        A:00 X:FF Y:00 P:26 SP:FF CYC:1371
C7AD  F0 F9     BEQ $C7A8                       A:00 X:FF Y:00 P:26 SP:FF CYC:1373
C7A8  AD 02 20  LDA $2002 = 00                  A:00 X:FF Y:00 P:26 SP:FF CYC:1376
C7AB  29 80     AND #$80                        A:00 X:FF Y:00 P:26 SP:FF CYC:1380
C7AD  F0 F9     BEQ $C7A8                       A:00 X:FF Y:00 P:26 SP:FF CYC:1382
C7A8  AD 02 20  LDA $2002 = 00                  A:00 X:FF Y:00 P:26 SP:FF CYC:1385
C7AB  29 80     AND #$80                        A:00 X:FF Y:00 P:26 SP:FF CYC:1389
C7AD  F0 F9     BEQ $C7A8                       A:00 X:FF Y:00 P:26 SP:FF CYC:1391
C7A8  AD 02 20  LDA $2002 = 00                  A:00 X:FF Y:00 P:26 SP:FF CYC:1394
C7AB  29 80     AND #$80                        A:00 X:FF Y:00 P:26 SP:FF CYC:1398
C7AD  F0 F9     BEQ $C7A8                       A:00 X:FF Y:00 P:26 SP:FF CYC:1400
C7A8  AD 02 20  LDA $2002 = 00                  A:00 X:FF Y:00 P:26 SP:FF CYC:1403
C7AB  29 80     AND #$80                        A:00 X:FF Y:00 P:26 SP:FF CYC:1407
C7AD  F0 F9     BEQ $C7A8                       A:00 X:FF Y:00 P:26 SP:FF CYC:1409
C7A8  AD 02 20  LDA $2002 = 00                  A:00 X:FF Y:00 P:26 SP:FF CYC:1412
C7AB  29 80     AND #$80                        A:00 X:FF Y:00 P:26 SP:FF CYC:1416
C7AD  F0 F9     BEQ $C7A8                       A:00 X:FF Y:00 P:26 SP:FF CYC:1418
C7A8  AD 02 20  LDA $2002 = 00                  A:00 X:FF Y:00 P:26 SP:FF CYC:1421
C7AB  29 80     AND #$80                        A:00 X:FF Y:00 P:26 SP:FF CYC:1425
C7AD  F0 F9     BEQ $C7A8                       A:00 X:FF Y:00 P:26 SP:FF CYC:1427
C7A8  AD 02 20  LDA $2002 = 00                  A:00 X:FF Y:00 P:26 SP:FF CYC:1430
C7AB  29 80     AND #$80                        A:00 X:FF Y:00 P:26 SP:FF CYC:1434
C7AD  F0 F9     BEQ $C7A8                       A:00 X:FF Y:00 P:26 SP:FF CYC:1436
C7A8  AD 02 20  LDA $2002 = 00                  A:00 X:FF Y:00 P:26 SP:FF CYC:1439
C7AB  29 80     AND #$80                        A:00 X:FF Y:00 P:26 SP:FF CYC:1443
C7AD  F0 F9     BEQ $C7A8                       A:00 X:FF Y:00 P:26 SP:FF CYC:1445
C7A8  AD 02 20  LDA $2002 = 00                  A:00 X:FF Y:00 P:26 SP:FF CYC:1448
C7AB  29 80     AND #$80                        A:00 X:FF Y:00 P:26 SP:FF CYC:1452
C7AD  F0 F9     BEQ $C7A8                       A:00 X:FF Y:00 P:26 SP:FF CYC:1454
C7A8  AD 02 20  LDA $2002 = 00                  A:00 X:FF Y:00 P:26 SP:FF CYC:1457
C7AB  29 80     AND #$80                        A:00 X:FF Y:00 P:26 SP:FF CYC:1461
C7AD  F0 F9     BEQ $C7A8                       A:00 X:FF Y:00 P:26 SP:FF CYC:1463
C7A8  AD 02 20  LDA $2002 = 00                  A:00 X:FF Y:00 P:26 SP:FF CYC:1466
C7AB  29 80     AND #$80                        A:00 X:FF Y:00 P:26 SP:FF CYC:1470
C7AD  F0 F9     BEQ $C7A8                       A:00 X:FF Y:00 P:26 SP:FF CYC:1472
C7A8  AD 02 20  LDA $2002 = 00                  A:00 X:FF Y:00 P:26 SP:FF CYC:1475
C7AB  29 80     AND #$80                        A:00 X:FF Y:00 P:26 SP:FF CYC:1479
C7AD  F0 F9     BEQ $C7A8                       A:00 X:FF Y:00 P:26 SP:FF CYC:1481
C7A8  AD 02 20  LDA $2002 = 00                  A:00 X:FF Y:00 P:26 SP:FF CYC:1484
C7AB  29 80     AND #$80                        A:00 X:FF Y:00 P:26 SP:FF CYC:1488
C7AD  F0 F9     BEQ $C7A8                       A:00 X:FF Y:00 P:26 SP:FF CYC:1490
C7A8  AD 02 20  LDA $2002 = 00                  A:00 X:FF Y:00 P:26 SP:FF CYC:1493
C7AB  29 80     AND #$80                        A:00 X:FF Y:00 P:26 SP:FF CYC:1497
C7AD  F0 F9     BEQ $C7A8                       A:00 X:FF Y:00 P:26 SP:FF CYC:1499
C7A8  AD 02 20  LDA $2002 = 00                  A:00 X:FF Y:00 P:26 SP:FF CYC:1502
C7AB  29 80     AND #$80                        A:00 X:FF Y:00 P:26 SP:FF CYC:1506
C7AD  F0 F9     BEQ $C7A8                       A:00 X:FF Y:00 P:26 SP:FF CYC:1508
C7A8  AD 02 20  LDA $2002 = 00                  A:00 X:FF Y:00 P:26 SP:FF CYC:1511
C7AB  29 80     AND #$80                        A:00 X:FF Y:00 P:26 SP:FF CYC:1515
C7AD  F0 F9     BEQ $C7A8                       A:00 X:FF Y:00 P:26 SP:FF CYC:1517
C7A8  AD 02 20  LDA $2002 = 00                  A:00 X:FF Y:00 P:26 SP:FF CYC:1520
C7AB  29 80     AND #$80                        A:00 X:FF Y:00 P:26 SP:FF CYC:1524
C7AD  F0 F9     BEQ $C7A8                       A:00 X:FF Y:00 P:26 SP:FF CYC:1526
C7A8  AD 02 20  LDA $2002 = 00                  A:00 X:FF Y:00 P:26 SP:FF CYC:1529
C7AB  29 80     AND #$80                        A:00 X:FF Y:00 P:26 SP:FF CYC:1533
C7AD  F0 F9     BEQ $C7A8                       A:00 X:FF Y:00 P:26 SP:FF CYC:1535
C7A8  AD 02 20  LDA $2002 = 00                  A:00 X:FF Y:00 P:26 SP:FF CYC:1538
C7AB  29 80     AND #$80                        A:00 X:FF Y:00 P:26 SP:FF CYC:1542
C7AD  F0 F9     BEQ $C7A8                       A:00 X:FF Y:00 P:26 SP:FF CYC:1544
C7A8  AD 02 20  LDA $2002 = 00                  A:00 X:FF Y:00 P:26 SP:FF CYC:1547
C7AB  29 80     AND #$80                        A:00 X:FF Y:00 P:26 SP:FF CYC:1551
C7AD  F0 F9     BEQ $C7A8                       A:00 X:FF Y:00 P:26 SP:FF CYC:1553
C7A8  AD 02 20  LDA $2002 = 00                  A:00 X:FF Y:00 P:26 SP:FF CYC:1556
C7AB  29 80     AND #$80                        A:00 X:FF Y:00 P:26 SP:FF CYC:1560
C7AD  F0 F9     BEQ $C7A8                       A:00 X:FF Y:00 P:26 SP:FF CYC:1562
C7A8  AD 02 20  LDA $2002 = 00                  A:00 X:FF Y:00 P:26 SP:FF CYC:1565
C7AB  29 80     AND #$80                        A:00 X:FF Y:00 P:26 SP:FF CYC:1569
C7AD  F0 F9     BEQ $C7A8                       A:00 X:FF Y:00 P:26 SP:FF CYC:1571
C7A8  AD 02 20  LDA $2002 = 00                  A:00 X:FF Y:00 P:26 SP:FF CYC:1574
C7AB  29 80     AND #$80                        A:00 X:FF Y:00 P:26 SP:FF CYC:1578
C7AD  F0 F9     BEQ $C7A8                       A:00 X:FF Y:00 P:26 SP:FF CYC:1580
C7A8  AD 02 20  LDA $2002 = 00                  A:00 X:FF Y:00 P:26 SP:FF CYC:1583
C7AB  29 80     AND #$80                        A:00 X:FF Y:00 P:26 SP:FF CYC:1587
C7AD  F0 F9     BEQ $C7A8                       A:00 X:FF Y:00 P:26 SP:FF CYC:1589
C7A8  AD 02 20  LDA $2002 = 00                  A:00 X:FF Y:00 P:26 SP:FF CYC:1592
C7AB  29 80     AND #$80                        A:00 X:FF Y:00 P:26 SP:FF CYC:1596
C7AD  F0 F9     BEQ $C7A8                       A:00 X:FF Y:00 P:26 SP:FF CYC:1598
C7A8  AD 02 20  LDA $2002 = 00                  A:00 X:FF Y:00 P:26 SP:FF CYC:1601
C7AB  29 80     AND #$80                        A:00 X:FF Y:00 P:26 SP:FF CYC:1605
C7AD  F0 F9     BEQ $C7A8                       A:00 X:FF Y:00 P:26 SP:FF CYC:1607
C7A8  AD 02 20  LDA $2002 = 00                  A:00 X:FF Y:00 P:26 SP:FF CYC:1610
C7AB  29 80     AND #$80                        A:00 X:FF Y:00 P:26 SP:FF CYC:1614
C7AD  F0 F9     BEQ $C7A8                       A:00 X:FF Y:00 P:26 SP:FF CYC:1616
C7A8  AD 02 20  LDA $2002 = 00                  A:00 X:FF Y:00 P:26 SP:FF CYC:1619
C7AB  29 80     AND #$80                        A:00 X:FF Y:00 P:26 SP:FF CYC:1623
C7AD  F0 F9     BEQ $C7A8                       A:00 X:FF Y:00 P:26 SP:FF CYC:1625
C7A8  AD 02 20  LDA $2002 = 00                  A:00 X:FF Y:00 P:26 SP:FF CYC:1628
C7AB  29 80     AND #$80                        A:00 X:FF Y:00 P:26 SP:FF CYC:1632
C7AD  F0 F9     BEQ $C7A8                       A:00 X:FF Y:00 P:26 SP:FF CYC:1634
C7A8  AD 02 20  LDA $2002 = 00                  A:00 X:FF Y:00 P:26 SP:FF CYC:1637
C7AB  29 80     AND #$80                        A:00 X:FF Y:00 P:26 SP:FF CYC:1641
C7AD  F0 F9     BEQ $C7A8                       A:00 X:FF Y:00 P:26 SP:FF CYC:1643
C7A8  AD 02 20  LDA $2002 = 00                  A:00 X:FF Y:00 P:26 SP:FF CYC:1646
C7AB  29 80     AND #$80                        A:00 X:FF Y:00 P:26 SP:FF CYC:1650
C7AD  F0 F9     BEQ $C7A8                       A:00 X:FF Y:00 P:26 SP:FF CYC:1652
C7A8  AD 02 20  LDA $2002 = 00                  A:00 X:FF Y:00 P:26 SP:FF CYC:1655
C7AB  29 80     AND #$80                        A:00 X:FF Y:00 P:26 SP:FF CYC:1659
C7AD  F0 F9     BEQ $C7A8                       A:00 X:FF Y:00 P:26 SP:FF CYC:1661
C7A8  AD 02 20  LDA $2002 = 00                  A:00 X:FF Y:00 P:26 SP:FF CYC:1664
C7AB  29 80     AND #$80                        A:00 X:FF Y:00 P:26 SP:FF CYC:1668
C7AD  F0 F9     BEQ $C7A8                       A:00 X:FF Y:00 P:26 SP:FF CYC:1670
C7A8  AD 02 20  LDA $2002 = 00                  A:00 X:FF Y:00 P:26 SP:FF CYC:1673
C7AB  29 80     AND #$80                        A:00 X:FF Y:00 P:26 SP:FF CYC:1677
C7AD  F0 F9     BEQ $C7A8                       A:00 X:FF Y:00 P:26 SP:FF CYC:1679
C7A8  AD 02 20  LDA $2002 = 00                  A:00 X:FF Y:00 P:26 SP:FF CYC:1682
C7AB  29 80     AND #$80                        A:00 X:FF Y:00 P:26 SP:FF CYC:1686
C7AD  F0 F9     BEQ $C7A8                       A:00 X:FF Y:00 P:26 SP:FF CYC:1688
C7A8  AD 02 20  LDA $2002 = 00                  A:00 X:FF Y:00 P:26 SP:FF CYC:1691
C7AB  29 80     AND #$80                        A:00 X:FF Y:00 P:26 SP:FF CYC:1695
C7AD  F0 F9     BEQ $C7A8                       A:00 X:FF Y:00 P:26 SP:FF CYC:1697
C7A8  AD 02 20  LDA $2002 = 00                  A:00 X:FF Y:00 P:26 SP:FF CYC:1700
C7AB  29 80     AND #$80                        A:00 X:FF Y:00 P:26 SP:FF CYC:1704
C7AD  F0 F9     BEQ $C7A8                       A:00 X:FF Y:00 P:26 SP:FF CYC:1706
C7A8  AD 02 20  LDA $2002 = 00                  A:00 X:FF Y:00 P:26 SP:FF CYC:1709
C7AB  29 80     AND #$80                        A:00 X:FF Y:00 P:26 SP:FF CYC:1713
C7AD  F0 F9     BEQ $C7A8                       A:00 X:FF Y:00 P:26 SP:FF CYC:1715
C7A8  AD 02 20  LDA $2002 = 00                  A:00 X:FF Y:00 P:26 SP:FF CYC:1718
C7AB  29 80     AND #$80                        A:00 X:FF Y:00 P:26 SP:FF CYC:1722
C7AD  F0 F9     BEQ $C7A8                       A:00 X:FF Y:00 P:26 SP:FF CYC:1724
C7A8  AD 02 20  LDA $2002 = 00                  A:00 X:FF Y:00 P:26 SP:FF CYC:1727
C7AB  29 80     AND #$80                        A:00 X:FF Y:00 P:26 SP:FF CYC:1731
C7AD  F0 F9     BEQ $C7A8                       A:00 X:FF Y:00 P:26 SP:FF CYC:1733
C7A8  AD 02 20  LDA $2002 = 00                  A:00 X:FF Y:00 P:26 SP:FF CYC:1736
C7AB  29 80     AND #$80                        A:00 X:FF Y:00 P:26 SP:FF CYC:1740
C7AD  F0 F9     BEQ $C7A8                       A:00 X:FF Y:00 P:26 SP:FF CYC:1742
C7A8  AD 02 20  LDA $2002 = 00                  A:00 X:FF Y:00 P:26 SP:FF CYC:1745
C7AB  29 80     AND #$80                        A:00 X:FF Y:00 P:26 SP:FF CYC:1749
C7AD  F0 F9     BEQ $C7A8                       A:00 X:FF Y:00 P:26 SP:FF CYC:1751
C7A8  AD 02 20  LDA $2002 = 00                  A:00 X:FF Y:00 P:26 SP:FF CYC:1754
C7AB  29 80     AND #$80                        A:00 X:FF Y:00 P:26 SP:FF CYC:1758
C7AD  F0 F9     BEQ $C7A8                       A:00 X:FF Y:00 P:26 SP:FF CYC:1760
C7A8  AD 02 20  LDA $2002 = 00                  A:00 X:FF Y:00 P:26 SP:FF CYC:1763
C7AB  29 80     AND #$80                        A:00 X:FF Y:00 P:26 SP:FF CYC:1767
C7AD  F0 F9     BEQ $C7A8                       A:00 X:FF Y:00 P:26 SP:FF CYC:1769
C7A8  AD 02 20  LDA $2002 = 00                  A:00 X:FF Y:00 P:26 SP:FF CYC:1772
C7AB  29 80     AND #$80                        A:00 X:FF Y:00 P:26 SP:FF CYC:1776
C7AD  F0 F9     BEQ $C7A8                       A:00 X:FF Y:00 P:26 SP:FF CYC:1778
C7A8  AD 02 20  LDA $2002 = 00                  A:00 X:FF Y:00 P:26 SP:FF CYC:1781
C7AB  29 80     AND #$80                        A:00 X:FF Y:00 P:26 SP:FF CYC:1785
C7AD  F0 F9     BEQ $C7A8                       A:00 X:FF Y:00 P:26 SP:FF CYC:1787
C7A8  AD 02 20  LDA $2002 = 00                  A:00 X:FF Y:00 P:26 SP:FF CYC:1790
C7AB  29 80     AND #$80                        A:00 X:FF Y:00 P:26 SP:FF CYC:1794
C7AD  F0 F9     BEQ $C7A8                       A:00 X:FF Y:00 P:26 SP:FF CYC:1796
C7A8  AD 02 20  LDA $2002 = 00                  A:00 X:FF Y:00 P:26 SP:FF CYC:1799
C7AB  29 80     AND #$80                        A:00 X:FF Y:00 P:26 SP:FF CYC:1803
C7AD  F0 F9     BEQ $C7A8                       A:00 X:FF Y:00 P:26 SP:FF CYC:1805
C7A8  AD 02 20  LDA $2002 = 00                  A:00 X:FF Y:00 P:26 SP:FF CYC:1808
C7AB  29 80     AND #$80                        A:00 X:FF Y:00 P:26 SP:FF CYC:1812
C7AD  F0 F9     BEQ $C7A8                       A:00 X:FF Y:00 P:26 SP:FF CYC:1814
C7A8  AD 02 20  LDA $2002 = 00                  A:00 X:FF Y:00 P:26 SP:FF CYC:1817
C7AB  29 80     AND #$80                        A:00 X:FF Y:00 P:26 SP:FF CYC:1821
C7AD  F0 F9     BEQ $C7A8                       A:00 X:FF Y:00 P:26 SP:FF CYC:1823
C7A8  AD 02 20  LDA $2002 = 00                  A:00 X:FF Y:00 P:26 SP:FF CYC:1826
C7AB  29 80     AND #$80                        A:00 X:FF Y:00 P:26 SP:FF CYC:1830
C7AD  F0 F9     BEQ $C7A8                       A:00 X:FF Y:00 P:26 SP:FF CYC:1832
C7A8  AD 02 20  LDA $2002 = 00                  A:00 X:FF Y:00 P:26 SP:FF CYC:1835
C7AB  29 80     AND #$80                        A:00 X:FF Y:00 P:26 SP:FF CYC:1839
C7AD  F0 F9     BEQ $C7A8                       A:00 X:FF Y:00 P:26 SP:FF CYC:1841
C7A8  AD 02 20  LDA $2002 = 00                  A:00 X:FF Y:00 P:26 SP:FF CYC:1844
C7AB  29 80     AND #$80                        A:00 X:FF Y:00 P:26 SP:FF CYC:1848
C7AD  F0 F9     BEQ $C7A8                       A:00 X:FF Y:00 P:26 SP:FF CYC:1850
C7A8  AD 02 20  LDA $2002 = 00                  A:00 X:FF Y:00 P:26 SP:FF CYC:1853
C7AB  29 80     AND #$80                        A:00 X:FF Y:00 P:26 SP:FF CYC:1857
C7AD  F0 F9     BEQ $C7A8                       A:00 X:FF Y:00 P:26 SP:FF CYC:1859
C7A8  AD 02 20  LDA $2002 = 00                  A:00 X:FF Y:00 P:26 SP:FF CYC:1862
C7AB  29 80     AND #$80                        A:00 X:FF Y:00 P:26 SP:FF CYC:1866
C7AD  F0 F9     BEQ $C7A8                       A:00 X:FF Y:00 P:26 SP:FF CYC:1868
C7A8  AD 02 20  LDA $2002 = 00                  A:00 X:FF Y:00 P:26 SP:FF CYC:1871
C7AB  29 80     AND #$80                        A:00 X:FF Y:00 P:26 SP:FF CYC:1875
C7AD  F0 F9     BEQ $C7A8                       A:00 X:FF Y:00 P:26 SP:FF CYC:1877
C7A8  AD 02 20  LDA $2002 = 00                  A:00 X:FF Y:00 P:26 SP:FF CYC:1880
C7AB  29 80     AND #$80                        A:00 X:FF Y:00 P:26 SP:FF CYC:1884
C7AD  F0 F9     BEQ $C7A8                       A:00 X:FF Y:00 P:26 SP:FF CYC:1886
C7A8  AD 02 20  LDA $2002 = 00                  A:00 X:FF Y:00 P:26 SP:FF CYC:1889
C7AB  29 80     AND #$80                        A:00 X:FF Y:00 P:26 SP:FF CYC:1893
C7AD  F0 F9     BEQ $C7A8                       A:00 X:FF Y:00 P:26 SP:FF CYC:1895
C7A8  AD 02 20  LDA $2002 = 00                  A:00 X:FF Y:00 P:26 SP:FF CYC:1898
C7AB  29 80     AND #$80                        A:00 X:FF Y:00 P:26 SP:FF CYC:1902
C7AD  F0 F9     BEQ $C7A8                       A:00 X:FF Y:00 P:26 SP:FF CYC:1904
C7A8  AD 02 20  LDA $2002 = 00                  A:00 X:FF Y:00 P:26 SP:FF CYC:1907
C7AB  29 80     AND #$80                        A:00 X:FF Y:00 P:26 SP:FF CYC:1911
C7AD  F0 F9     BEQ $C7A8                       A:00 X:FF Y:00 P:26 SP:FF CYC:1913
C7A8  AD 02 20  LDA $2002 = 00                  A:00 X:FF Y:00 P:26 SP:FF CYC:1916
C7AB  29 80     AND #$80                        A:00 X:FF Y:00 P:26 SP:FF CYC:1920
C7AD  F0 F9     BEQ $C7A8                       A:00 X:FF Y:00 P:26 SP:FF CYC:1922
C7A8  AD 02 20  LDA $2002 = 00                  A:00 X:FF Y:00 P:26 SP:FF CYC:1925
C7AB  29 80     AND #$80                        A:00 X:FF Y:00 P:26 SP:FF CYC:1929
C7AD  F0 F9     BEQ $C7A8                       A:00 X:FF Y:00 P:26 SP:FF CYC:1931
C7A8  AD 02 20  LDA $2002 = 00                  A:00 X:FF Y:00 P:26 SP:FF CYC:1934
C7AB  29 80     AND #$80                        A:00 X:FF Y:00 P:26 SP:FF CYC:1938
C7AD  F0 F9     BEQ $C7A8                       A:00 X:FF Y:00 P:26 SP:FF CYC:1940
C7A8  AD 02 20  LDA $2002 = 00                  A:00 X:FF Y:00 P:26 SP:FF CYC:1943
C7AB  29 80     AND #$80                        A:00 X:FF Y:00 P:26 SP:FF CYC:1947
C7AD  F0 F9     BEQ $C7A8                       A:00 X:FF Y:00 P:26 SP:FF CYC:1949
C7A8  AD 02 20  LDA $2002 = 00                  A:00 X:FF Y:00 P:26 SP:FF CYC:1952
C7AB  29 80     AND #$80                        A:00 X:FF Y:00 P:26 SP:FF CYC:1956
C7AD  F0 F9     BEQ $C7A8                       A:00 X:FF Y:00 P:26 SP:FF CYC:1958
C7A8  AD 02 20  LDA $2002 = 00                  A:00 X:FF Y:00 P:26 SP:FF CYC:1961
C7AB  29 80     AND #$80                        A:00 X:FF Y:00 P:26 SP:FF CYC:1965
C7AD  F0 F9     BEQ $C7A8                       A:00 X:FF Y:00 P:26 SP:FF CYC:1967
C7A8  AD 02 20  LDA $2002 = 00                  A:00 X:FF Y:00 P:26 SP:FF CYC:1970
C7AB  29 80     AND #$80                        A:00 X:FF Y:00 P:26 SP:FF CYC:1974
C7AD  F0 F9     BEQ $C7A8                       A:00 X:FF Y:00 P:26 SP:FF CYC:1976
C7A8  AD 02 20  LDA $2002 = 00                  A:00 X:FF Y:00 P:26 SP:FF CYC:1979
C7AB  29 80     AND #$80                        A:00 X:FF Y:00 P:26 SP:FF CYC:1983
C7AD  F0 F9     BEQ $C7A8                       A:00 X:FF Y:00 P:26 SP:FF CYC:1985
C7A8  AD 02 20  LDA $2002 = 00                  A:00 X:FF Y:00 P:26 SP:FF CYC:1988
C7AB  29 80     AND #$80                        A:00 X:FF Y:00 P:26 SP:FF CYC:1992
C7AD  F0 F9     BEQ $C7A8                       A:00 X:FF Y:00 P:26 SP:FF CYC:1994
C7A8  AD 02 20  LDA $2002 = 00                  A:00 X:FF Y:00 P:26 SP:FF CYC:1997
C7AB  29 80     AND #$80                        A:00 X:FF Y:00 P:26 SP:FF CYC:2001
C7AD  F0 F9     BEQ $C7A8                       A:00 X:FF Y:00 P:26 SP:FF CYC:2003
C7A8  AD 02 20  LDA $2002 = 00                  A:00 X:FF Y:00 P:26 SP:FF CYC:2006
C7AB  29 80     AND #$80                        A:00 X:FF Y:00 P:26 SP:FF CYC:2010
C7AD  F0 F9     BEQ $C7A8                       A:00 X:FF Y:00 P:26 SP:FF CYC:2012
C7A8  AD 02 20  LDA $2002 = 00                  A:00 X:FF Y:00 P:26 SP:FF CYC:2015
C7AB  29 80     AND #$80                        A:00 X:FF Y:00 P:26 SP:FF CYC:2019
C7AD  F0 F9     BEQ $C7A8                       A:00 X:FF Y:00 P:26 SP:FF CYC:2021
C7A8  AD 02 20  LDA $2002 = 00                  A:00 X:FF Y:00 P:26 SP:FF CYC:2024
C7AB  29 80     AND #$80                        A:00 X:FF Y:00 P:26 SP:FF CYC:2028
C7AD  F0 F9     BEQ $C7A8                       A:00 X:FF Y:00 P:26 SP:FF CYC:2030
C7A8  AD 02 20  LDA $2002 = 00                  A:00 X:FF Y:00 P:26 SP:FF CYC:2033
C7AB  29 80     AND #$80                        A:00 X:FF Y:00 P:26 SP:FF CYC:2037
C7AD  F0 F9     BEQ $C7A8                       A:00 X:FF Y:00 P:26 SP:FF CYC:2039
C7A8  AD 02 20  LDA $2002 = 00                  A:00 X:FF Y:00 P:26 SP:FF CYC:2042
C7AB  29 80     AND #$80                        A:00 X:FF Y:00 P:26 SP:FF CYC:2046
C7AD  F0 F9     BEQ $C7A8                       A:00 X:FF Y:00 P:26 SP:FF CYC:2048
C7A8  AD 02 20  LDA $2002 = 00                  A:00 X:FF Y:00 P:26 SP:FF CYC:2051
C7AB  29 80     AND #$80                        A:00 X:FF Y:00 P:26 SP:FF CYC:2055
C7AD  F0 F9     BEQ $C7A8                       A:00 X:FF Y:00 P:26 SP:FF CYC:2057
C7A8  AD 02 20  LDA $2002 = 00                  A:00 X:FF Y:00 P:26 SP:FF CYC:2060
C7AB  29 80     AND #$80                        A:00 X:FF Y:00 P:26 SP:FF CYC:2064
C7AD  F0 F9     BEQ $C7A8                       A:00 X:FF Y:00 P:26 SP:FF CYC:2066
C7A8  AD 02 20  LDA $2002 = 00                  A:00 X:FF Y:00 P:26 SP:FF CYC:2069
C7AB  29 80     AND #$80                        A:00 X:FF Y:00 P:26 SP:FF CYC:2073
C7AD  F0 F9     BEQ $C7A8                       A:00 X:FF Y:00 P:26 SP:FF CYC:2075
C7A8  AD 02 20  LDA $2002 = 00                  A:00 X:FF Y:00 P:26 SP:FF CYC:2078
C7AB  29 80     AND #$80                        A:00 X:FF Y:00 P:26 SP:FF CYC:2082
C7AD  F0 F9     BEQ $C7A8                       A:00 X:FF Y:00 P:26 SP:FF CYC:2084
C7A8  AD 02 20  LDA $2002 = 00                  A:00 X:FF Y:00 P:26 SP:FF CYC:2087
C7AB  29 80     AND #$80                        A:00 X:FF Y:00 P:26 SP:FF CYC:2091
C7AD  F0 F9     BEQ $C7A8                       A:00 X:FF Y:00 P:26 SP:FF CYC:2093
C7A8  AD 02 20  LDA $2002 = 00                  A:00 X:FF Y:00 P:26 SP:FF CYC:2096
C7AB  29 80     AND #$80                        A:00 X:FF Y:00 P:26 SP:FF CYC:2100
C7AD  F0 F9     BEQ $C7A8                       A:00 X:FF Y:00 P:26 SP:FF CYC:2102
C7A8  AD 02 20  LDA $2002 = 00                  A:00 X:FF Y:00 P:26 SP:FF CYC:2105
C7AB  29 80     AND #$80                        A:00 X:FF Y:00 P:26 SP:FF CYC:2109
C7AD  F0 F9     BEQ $C7A8                       A:00 X:FF Y:00 P:26 SP:FF CYC:2111
C7A8  AD 02 20  LDA $2002 = 00                  A:00 X:FF Y:00 P:26 SP:FF CYC:2114
C7AB  29 80     AND #$80                        A:00 X:FF Y:00 P:26 SP:FF CYC:2118
C7AD  F0 F9     BEQ $C7A8                       A:00 X:FF Y:00 P:26 SP:FF CYC:2120
C7A8  AD 02 20  LDA $2002 = 00                  A:00 X:FF Y:00 P:26 SP:FF CYC:2123
C7AB  29 80     AND #$80                        A:00 X:FF Y:00 P:26 SP:FF CYC:2127
C7AD  F0 F9     BEQ $C7A8                       A:00 X:FF Y:00 P:26 SP:FF CYC:2129
C7A8  AD 02 20  LDA $2002 = 00                  A:00 X:FF Y:00 P:26 SP:FF CYC:2132
C7AB  29 80     AND #$80                        A:00 X:FF Y:00 P:26 SP:FF CYC:2136
C7AD  F0 F9     BEQ $C7A8                       A:00 X:FF Y:00 P:26 SP:FF CYC:2138
C7A8  AD 02 20  LDA $2002 = 00                  A:00 X:FF Y:00 P:26 SP:FF CYC:2141
C7AB  29 80     AND #$80                        A:00 X:FF Y:00 P:26 SP:FF CYC:2145
C7AD  F0 F9     BEQ $C7A8                       A:00 X:FF Y:00 P:26 SP:FF CYC:2147
C7A8  AD 02 20  LDA $2002 = 00                  A:00 X:FF Y:00 P:26 SP:FF CYC:2150
C7AB  29 80     AND #$80                        A:00 X:FF Y:00 P:26 SP:FF CYC:2154
C7AD  F0 F9     BEQ $C7A8                       A:00 X:FF Y:00 P:26 SP:FF CYC:2156
C7A8  AD 02 20  LDA $2002 = 00                  A:00 X:FF Y:00 P:26 SP:FF CYC:2159
C7AB  29 80     AND #$80                        A:00 X:FF Y:00 P:26 SP:FF CYC:2163
C7AD  F0 F9     BEQ $C7A8                       A:00 X:FF Y:00 P:26 SP:FF CYC:2165
C7A8  AD 02 20  LDA $2002 = 00                  A:00 X:FF Y:00 P:26 SP:FF CYC:2168
C7AB  29 80     AND #$80                        A:00 X:FF Y:00 P:26 SP:FF CYC:2172
C7AD  F0 F9     BEQ $C7A8                       A:00 X:FF Y:00 P:26 SP:FF CYC:2174
C7A8  AD 02 20  LDA $2002 = 00                  A:00 X:FF Y:00 P:26 SP:FF CYC:2177
C7AB  29 80     AND #$80                        A:00 X:FF Y:00 P:26 SP:FF CYC:2181
C7AD  F0 F9     BEQ $C7A8                       A:00 X:FF Y:00 P:26 SP:FF CYC:2183
C7A8  AD 02 20  LDA $2002 = 00                  A:00 X:FF Y:00 P:26 SP:FF CYC:2186
C7AB  29 80     AND #$80                        A:00 X:FF Y:00 P:26 SP:FF CYC:2190
C7AD  F0 F9     BEQ $C7A8                       A:00 X:FF Y:00 P:26 SP:FF CYC:2192
C7A8  AD 02 20  LDA $2002 = 00                  A:00 X:FF Y:00 P:26 SP:FF CYC:2195
C7AB  29 80     AND #$80                        A:00 X:FF Y:00 P:26 SP:FF CYC:2199
C7AD  F0 F9     BEQ $C7A8                       A:00 X:FF Y:00 P:26 SP:FF CYC:2201
C7A8  AD 02 20  LDA $2002 = 00                  A:00 X:FF Y:00 P:26 SP:FF CYC:2204
C7AB  29 80     AND #$80                        A:00 X:FF Y:00 P:26 SP:FF CYC:2208
C7AD  F0 F9     BEQ $C7A8                       A:00 X:FF Y:00 P:26 SP:FF CYC:2210
C7A8  AD 02 20  LDA $2002 = 00                  A:00 X:FF Y:00 P:26 SP:FF CYC:2213
C7AB  29 80     AND #$80                        A:00 X:FF Y:00 P:26 SP:FF CYC:2217
C7AD  F0 F9     BEQ $C7A8                       A:00 X:FF Y:00 P:26 SP:FF CYC:2219
C7A8  AD 02 20  LDA $2002 = 00                  A:00 X:FF Y:00 P:26 SP:FF CYC:2222
C7AB  29 80     AND #$80                        A:00 X:FF Y:00 P:26 SP:FF CYC:2226
C7AD  F0 F9     BEQ $C7A8                       A:00 X:FF Y:00 P:26 SP:FF CYC:2228
C7A8  AD 02 20  LDA $2002 = 00                  A:00 X:FF Y:00 P:26 SP:FF CYC:2231
C7AB  29 80     AND #$80                        A:00 X:FF Y:00 P:26 SP:FF CYC:2235
C7AD  F0 F9     BEQ $C7A8                       A:00 X:FF Y:00 P:26 SP:FF CYC:2237
C7A8  AD 02 20  LDA $2002 = 00                  A:00 X:FF Y:00 P:26 SP:FF CYC:2240
C7AB  29 80     AND #$80                        A:00 X:FF Y:00 P:26 SP:FF CYC:2244
C7AD  F0 F9     BEQ $C7A8                       A:00 X:FF Y:00 P:26 SP:FF CYC:2246
C7A8  AD 02 20  LDA $2002 = 00                  A:00 X:FF Y:00 P:26 SP:FF CYC:2249
C7AB  29 80     AND #$80                        A:00 X:FF Y:00 P:26 SP:FF CYC:2253
C7AD  F0 F9     BEQ $C7A8                       A:00 X:FF Y:00 P:26 SP:FF CYC:2255
C7A8  AD 02 20  LDA $2002 = 00                  A:00 X:FF Y:00 P:26 SP:FF CYC:2258
C7AB  29 80     AND #$80                        A:00 X:FF Y:00 P:26 SP:FF CYC:2262
C7AD  F0 F9     BEQ $C7A8                       A:00 X:FF Y:00 P:26 SP:FF CYC:2264
C7A8  AD 02 20  LDA $2002 = 00                  A:00 X:FF Y:00 P:26 SP:FF CYC:2267
C7AB  29 80     AND #$80                        A:00 X:FF Y:00 P:26 SP:FF CYC:2271
C7AD  F0 F9     BEQ $C7A8                       A:00 X:FF Y:00 P:26 SP:FF CYC:2273
C7A8  AD 02 20  LDA $2002 = 00                  A:00 X:FF Y:00 P:26 SP:FF CYC:2276
C7AB  29 80     AND #$80                        A:00 X:FF Y:00 P:26 SP:FF CYC:2280
C7AD  F0 F9     BEQ $C7A8                       A:00 X:FF Y:00 P:26 SP:FF CYC:2282
C7A8  AD 02 20  LDA $2002 = 00                  A:00 X:FF Y:00 P:26 SP:FF CYC:2285
C7AB  29 80     AND #$80                        A:00 X:FF Y:00 P:26 SP:FF CYC:2289
C7AD  F0 F9     BEQ $C7A8                       A:00 X:FF Y:00 P:26 SP:FF CYC:2291
C7A8  AD 02 20  LDA $2002 = 00                  A:00 X:FF Y:00 P:26 SP:FF CYC:2294
C7AB  29 80     AND #$80                        A:00 X:FF Y:00 P:26 SP:FF CYC:2298
C7AD  F0 F9     BEQ $C7A8                       A:00 X:FF Y:00 P:26 SP:FF CYC:2300
C7A8  AD 02 20  LDA $2002 = 00                  A:00 X:FF Y:00 P:26 SP:FF CYC:2303
C7AB  29 80     AND #$80                        A:00 X:FF Y:00 P:26 SP:FF CYC:2307
C7AD  F0 F9     BEQ $C7A8                       A:00 X:FF Y:00 P:26 SP:FF CYC:2309
C7A8  AD 02 20  LDA $2002 = 00                  A:00 X:FF Y:00 P:26 SP:FF CYC:2312
C7AB  29 80     AND #$80                        A:00 X:FF Y:00 P:26 SP:FF CYC:2316
C7AD  F0 F9     BEQ $C7A8                       A:00 X:FF Y:00 P:26 SP:FF CYC:2318
C7A8  AD 02 20  LDA $2002 = 00                  A:00 X:FF Y:00 P:26 SP:FF CYC:2321
C7AB  29 80     AND #$80                        A:00 X:FF Y:00 P:26 SP:FF CYC:2325
C7AD  F0 F9     BEQ $C7A8                       A:00 X:FF Y:00 P:26 SP:FF CYC:2327
C7A8  AD 02 20  LDA $2002 = 00                  A:00 X:FF Y:00 P:26 SP:FF CYC:2330
C7AB  29 80     AND #$80                        A:00 X:FF Y:00 P:26 SP:FF CYC:2334
C7AD  F0 F9     BEQ $C7A8                       A:00 X:FF Y:00 P:26 SP:FF CYC:2336
C7A8  AD 02 20  LDA $2002 = 00                  A:00 X:FF Y:00 P:26 SP:FF CYC:2339
C7AB  29 80     AND #$80                        A:00 X:FF Y:00 P:26 SP:FF CYC:2343
C7AD  F0 F9     BEQ $C7A8                       A:00 X:FF Y:00 P:26 SP:FF CYC:2345
C7A8  AD 02 20  LDA $2002 = 00                  A:00 X:FF Y:00 P:26 SP:FF CYC:2348
C7AB  29 80     AND #$80                        A:00 X:FF Y:00 P:26 SP:FF CYC:2352
C7AD  F0 F9     BEQ $C7A8                       A:00 X:FF Y:00 P:26 SP:FF CYC:2354
C7A8  AD 02 20  LDA $2002 = 00                  A:00 X:FF Y:00 P:26 SP:FF CYC:2357
C7AB  29 80     AND #$80                        A:00 X:FF Y:00 P:26 SP:FF CYC:2361
C7AD  F0 F9     BEQ $C7A8                       A:00 X:FF Y:00 P:26 SP:FF CYC:2363
C7A8  AD 02 20  LDA $2002 = 00                  A:00 X:FF Y:00 P:26 SP:FF CYC:2366
C7AB  29 80     AND #$80                        A:00 X:FF Y:00 P:26 SP:FF CYC:2370
C7AD  F0 F9     BEQ $C7A8                       A:00 X:FF Y:00 P:26 SP:FF CYC:2372
C7A8  AD 02 20  LDA $2002 = 00                  A:00 X:FF Y:00 P:26 SP:FF CYC:2375
C7AB  29 80     AND #$80                        A:00 X:FF Y:00 P:26 SP:FF CYC:2379
C7AD  F0 F9     BEQ $C7A8                       A:00 X:FF Y:00 P:26 SP:FF CYC:2381
C7A8  AD 02 20  LDA $2002 = 00                  A:00 X:FF Y:00 P:26 SP:FF CYC:2384
C7AB  29 80     AND #$80                        A:00 X:FF Y:00 P:26 SP:FF CYC:2388
C7AD  F0 F9     BEQ $C7A8                       A:00 X:FF Y:00 P:26 SP:FF CYC:2390
C7A8  AD 02 20  LDA $2002 = 00                  A:00 X:FF Y:00 P:26 SP:FF CYC:2393
C7AB  29 80     AND #$80                        A:00 X:FF Y:00 P:26 SP:FF CYC:2397
C7AD  F0 F9     BEQ $C7A8                       A:00 X:FF Y:00 P:26 SP:FF CYC:2399
C7A8  AD 02 20  LDA $2002 = 00                  A:00 X:FF Y:00 P:26 SP:FF CYC:2402
C7AB  29 80     AND #$80                        A:00 X:FF Y:00 P:26 SP:FF CYC:2406
C7AD  F0 F9     BEQ $C7A8                       A:00 X:FF Y:00 P:26 SP:FF CYC:2408
C7A8  AD 02 20  LDA $2002 = 00                  A:00 X:FF Y:00 P:26 SP:FF CYC:2411
C7AB  29 80     AND #$80                        A:00 X:FF Y:00 P:26 SP:FF CYC:2415
C7AD  F0 F9     BEQ $C7A8                       A:00 X:FF Y:00 P:26 SP:FF CYC:2417
C7A8  AD 02 20  LDA $2002 = 00                  A:00 X:FF Y:00 P:26 SP:FF CYC:2420
C7AB  29 80     AND #$80                        A:00 X:FF Y:00 P:26 SP:FF CYC:2424
C7AD  F0 F9     BEQ $C7A8                       A:00 X:FF Y:00 P:26 SP:FF CYC:2426
C7A8  AD 02 20  LDA $2002 = 00                  A:00 X:FF Y:00 P:26 SP:FF CYC:2429
C7AB  29 80     AND #$80                        A:00 X:FF Y:00 P:26 SP:FF CYC:2433
C7AD  F0 F9     BEQ $C7A8                       A:00 X:FF Y:00 P:26 SP:FF CYC:2435
C7A8  AD 02 20  LDA $2002 = 00                  A:00 X:FF Y:00 P:26 SP:FF CYC:2438
C7AB  29 80     AND #$80                        A:00 X:FF Y:00 P:26 SP:FF CYC:2442
C7AD  F0 F9     BEQ $C7A8                       A:00 X:FF Y:00 P:26 SP:FF CYC:2444
C7A8  AD 02 20  LDA $2002 = 00                  A:00 X:FF Y:00 P:26 SP:FF CYC:2447
C7AB  29 80     AND #$80                        A:00 X:FF Y:00 P:26 SP:FF CYC:2451
C7AD  F0 F9     BEQ $C7A8                       A:00 X:FF Y:00 P:26 SP:FF CYC:2453
C7A8  AD 02 20  LDA $2002 = 00                  A:00 X:FF Y:00 P:26 SP:FF CYC:2456
C7AB  29 80     AND #$80                        A:00 X:FF Y:00 P:26 SP:FF CYC:2460
C7AD  F0 F9     BEQ $C7A8                       A:00 X:FF Y:00 P:26 SP:FF CYC:2462
C7A8  AD 02 20  LDA $2002 = 00                  A:00 X:FF Y:00 P:26 SP:FF CYC:2465
C7AB  29 80     AND #$80                        A:00 X:FF Y:00 P:26 SP:FF CYC:2469
C7AD  F0 F9     BEQ $C7A8                       A:00 X:FF Y:00 P:26 SP:FF CYC:2471
C7A8  AD 02 20  LDA $2002 = 00                  A:00 X:FF Y:00 P:26 SP:FF CYC:2474
C7AB  29 80     AND #$80                        A:00 X:FF Y:00 P:26 SP:FF CYC:2478
C7AD  F0 F9     BEQ $C7A8                       A:00 X:FF Y:00 P:26 SP:FF CYC:2480
C7A8  AD 02 20  LDA $2002 = 00                  A:00 X:FF Y:00 P:26 SP:FF CYC:2483
C7AB  29 80     AND #$80                        A:00 X:FF Y:00 P:26 SP:FF CYC:2487
C7AD  F0 F9     BEQ $C7A8                       A:00 X:FF Y:00 P:26 SP:FF CYC:2489
C7A8  AD 02 20  LDA $2002 = 00                  A:00 X:FF Y:00 P:26 SP:FF CYC:2492
C7AB  29 80     AND #$80                        A:00 X:FF Y:00 P:26 SP:FF CYC:2496
C7AD  F0 F9     BEQ $C7A8                       A:00 X:FF Y:00 P:26 SP:FF CYC:2498
C7A8  AD 02 20  LDA $2002 = 00                  A:00 X:FF Y:00 P:26 SP:FF CYC:2501
C7AB  29 80     AND #$80                        A:00 X:FF Y:00 P:26 SP:FF CYC:2505
C7AD  F0 F9     BEQ $C7A8                       A:00 X:FF Y:00 P:26 SP:FF CYC:2507
C7A8  AD 02 20  LDA $2002 = 00                  A:00 X:FF Y:00 P:26 SP:FF CYC:2510
C7AB  29 80     AND #$80                        A:00 X:FF Y:00 P:26 SP:FF CYC:2514
C7AD  F0 F9     BEQ $C7A8                       A:00 X:FF Y:00 P:26 SP:FF CYC:2516
C7A8  AD 02 20  LDA $2002 = 00                  A:00 X:FF Y:00 P:26 SP:FF CYC:2519
C7AB  29 80     AND #$80                        A:00 X:FF Y:00 P:26 SP:FF CYC:2523
C7AD  F0 F9     BEQ $C7A8                       A:00 X:FF Y:00 P:26 SP:FF CYC:2525
C7A8  AD 02 20  LDA $2002 = 00                  A:00 X:FF Y:00 P:26 SP:FF CYC:2528
C7AB  29 80     AND #$80                        A:00 X:FF Y:00 P:26 SP:FF CYC:2532
C7AD  F0 F9     BEQ $C7A8                       A:00 X:FF Y:00 P:26 SP:FF CYC:2534
C7A8  AD 02 20  LDA $2002 = 00                  A:00 X:FF Y:00 P:26 SP:FF CYC:2537
C7AB  29 80     AND #$80                        A:00 X:FF Y:00 P:26 SP:FF CYC:2541
C7AD  F0 F9     BEQ $C7A8                       A:00 X:FF Y:00 P:26 SP:FF CYC:2543
C7A8  AD 02 20  LDA $2002 = 00                  A:00 X:FF Y:00 P:26 SP:FF CYC:2546
C7AB  29 80     AND #$80                        A:00 X:FF Y:00 P:26 SP:FF CYC:2550
C7AD  F0 F9     BEQ $C7A8                       A:00 X:FF Y:00 P:26 SP:FF CYC:2552
C7A8  AD 02 20  LDA $2002 = 00                  A:00 X:FF Y:00 P:26 SP:FF CYC:2555
C7AB  29 80     AND #$80                        A:00 X:FF Y:00 P:26 SP:FF CYC:2559
C7AD  F0 F9     BEQ $C7A8                       A:00 X:FF Y:00 P:26 SP:FF CYC:2561
C7A8  AD 02 20  LDA $2002 = 00                  A:00 X:FF Y:00 P:26 SP:FF CYC:2564
C7AB  29 80     AND #$80                        A:00 X:FF Y:00 P:26 SP:FF CYC:2568
C7AD  F0 F9     BEQ $C7A8                       A:00 X:FF Y:00 P:26 SP:FF CYC:2570
C7A8  AD 02 20  LDA $2002 = 00                  A:00 X:FF Y:00 P:26 SP:FF CYC:2573
C7AB  29 80     AND #$80                        A:00 X:FF Y:00 P:26 SP:FF CYC:2577
C7AD  F0 F9     BEQ $C7A8                       A:00 X:FF Y:00 P:26 SP:FF CYC:2579
C7A8  AD 02 20  LDA $2002 = 00                  A:00 X:FF Y:00 P:26 SP:FF CYC:2582
C7AB  29 80     AND #$80                        A:00 X:FF Y:00 P:26 SP:FF CYC:2586
C7AD  F0 F9     BEQ $C7A8                       A:00 X:FF Y:00 P:26 SP:FF CYC:2588
C7A8  AD 02 20  LDA $2002 = 00                  A:00 X:FF Y:00 P:26 SP:FF CYC:2591
C7AB  29 80     AND #$80                        A:00 X:FF Y:00 P:26 SP:FF CYC:2595
C7AD  F0 F9     BEQ $C7A8                       A:00 X:FF Y:00 P:26 SP:FF CYC:2597
C7A8  AD 02 20  LDA $2002 = 00                  A:00 X:FF Y:00 P:26 SP:FF CYC:2600
C7AB  29 80     AND #$80                        A:00 X:FF Y:00 P:26 SP:FF CYC:2604
C7AD  F0 F9     BEQ $C7A8                       A:00 X:FF Y:00 P:26 SP:FF CYC:2606
C7A8  AD 02 20  LDA $2002 = 00                  A:00 X:FF Y:00 P:26 SP:FF CYC:2609
C7AB  29 80     AND #$80                        A:00 X:FF Y:00 P:26 SP:FF CYC:2613
C7AD  F0 F9     BEQ $C7A8                       A:00 X:FF Y:00 P:26 SP:FF CYC:2615
C7A8  AD 02 20  LDA $2002 = 00                  A:00 X:FF Y:00 P:26 SP:FF CYC:2618
C7AB  29 80     AND #$80                        A:00 X:FF Y:00 P:26 SP:FF CYC:2622
C7AD  F0 F9     BEQ $C7A8                       A:00 X:FF Y:00 P:26 SP:FF CYC:2624
C7A8  AD 02 20  LDA $2002 = 00                  A:00 X:FF Y:00 P:26 SP:FF CYC:2627
C7AB  29 80     AND #$80                        A:00 X:FF Y:00 P:26 SP:FF CYC:2631
C7AD  F0 F9     BEQ $C7A8                       A:00 X:FF Y:00 P:26 SP:FF CYC:2633
C7A8  AD 02 20  LDA $2002 = 00                  A:00 X:FF Y:00 P:26 SP:FF CYC:2636
C7AB  29 80     AND #$80                        A:00 X:FF Y:00 P:26 SP:FF CYC:2640
C7AD  F0 F9     BEQ $C7A8                       A:00 X:FF Y:00 P:26 SP:FF CYC:2642
C7A8  AD 02 20  LDA $2002 = 00                  A:00 X:FF Y:00 P:26 SP:FF CYC:2645
C7AB  29 80     AND #$80                        A:00 X:FF Y:00 P:26 SP:FF CYC:2649
C7AD  F0 F9     BEQ $C7A8                       A:00 X:FF Y:00 P:26 SP:FF CYC:2651
C7A8  AD 02 20  LDA $2002 = 00                  A:00 X:FF Y:00 P:26 SP:FF CYC:2654
C7AB  29 80     AND #$80                        A:00 X:FF Y:00 P:26 SP:FF CYC:2658
C7AD  F0 F9     BEQ $C7A8                       A:00 X:FF Y:00 P:26 SP:FF CYC:2660
C7A8  AD 02 20  LDA $2002 = 00                  A:00 X:FF Y:00 P:26 SP:FF CYC:2663
C7AB  29 80     AND #$80                        A:00 X:FF Y:00 P:26 SP:FF CYC:2667
C7AD  F0 F9     BEQ $C7A8                       A:00 X:FF Y:00 P:26 SP:FF CYC:2669
C7A8  AD 02 20  LDA $2002 = 00                  A:00 X:FF Y:00 P:26 SP:FF CYC:2672
C7AB  29 80     AND #$80                        A:00 X:FF Y:00 P:26 SP:FF CYC:2676
C7AD  F0 F9     BEQ $C7A8                       A:00 X:FF Y:00 P:26 SP:FF CYC:2678
C7A8  AD 02 20  LDA $2002 = 00                  A:00 X:FF Y:00 P:26 SP:FF CYC:2681
C7AB  29 80     AND #$80                        A:00 X:FF Y:00 P:26 SP:FF CYC:2685
C7AD  F0 F9     BEQ $C7A8                       A:00 X:FF Y:00 P:26 SP:FF CYC:2687
C7A8  AD 02 20  LDA $2002 = 00                  A:00 X:FF Y:00 P:26 SP:FF CYC:2690
C7AB  29 80     AND #$80                        A:00 X:FF Y:00 P:26 SP:FF CYC:2694
C7AD  F0 F9     BEQ $C7A8                       A:00 X:FF Y:00 P:26 SP:FF CYC:2696
C7A8  AD 02 20  LDA $2002 = 00                  A:00 X:FF Y:00 P:26 SP:FF CYC:2699
C7AB  29 80     AND #$80                        A:00 X:FF Y:00 P:26 SP:FF CYC:2703
C7AD  F0 F9     BEQ $C7A8                       A:00 X:FF Y:00 P:26 SP:FF CYC:2705
C7A8  AD 02 20  LDA $2002 = 00                  A:00 X:FF Y:00 P:26 SP:FF CYC:2708
C7AB  29 80     AND #$80                        A:00 X:FF Y:00 P:26 SP:FF CYC:2712
C7AD  F0 F9     BEQ $C7A8                       A:00 X:FF Y:00 P:26 SP:FF CYC:2714
C7A8  AD 02 20  LDA $2002 = 00                  A:00 X:FF Y:00 P:26 SP:FF CYC:2717
C7AB  29 80     AND #$80                        A:00 X:FF Y:00 P:26 SP:FF CYC:2721
C7AD  F0 F9     BEQ $C7A8                       A:00 X:FF Y:00 P:26 SP:FF CYC:2723
C7A8  AD 02 20  LDA $2002 = 00                  A:00 X:FF Y:00 P:26 SP:FF CYC:2726
C7AB  29 80     AND #$80                        A:00 X:FF Y:00 P:26 SP:FF CYC:2730
C7AD  F0 F9     BEQ $C7A8                       A:00 X:FF Y:00 P:26 SP:FF CYC:2732
C7A8  AD 02 20  LDA $2002 = 00                  A:00 X:FF Y:00 P:26 SP:FF CYC:2735
C7AB  29 80     AND #$80                        A:00 X:FF Y:00 P:26 SP:FF CYC:2739
C7AD  F0 F9     BEQ $C7A8                       A:00 X:FF Y:00 P:26 SP:FF CYC:2741
C7A8  AD 02 20  LDA $2002 = 00                  A:00 X:FF Y:00 P:26 SP:FF CYC:2744
C7AB  29 80     AND #$80                        A:00 X:FF Y:00 P:26 SP:FF CYC:2748
C7AD  F0 F9     BEQ $C7A8                       A:00 X:FF Y:00 P:26 SP:FF CYC:2750
C7A8  AD 02 20  LDA $2002 = 00                  A:00 X:FF Y:00 P:26 SP:FF CYC:2753
C7AB  29 80     AND #$80                        A:00 X:FF Y:00 P:26 SP:FF CYC:2757
C7AD  F0 F9     BEQ $C7A8                       A:00 X:FF Y:00 P:26 SP:FF CYC:2759
C7A8  AD 02 20  LDA $2002 = 00                  A:00 X:FF Y:00 P:26 SP:FF CYC:2762
C7AB  29 80     AND #$80                        A:00 X:FF Y:00 P:26 SP:FF CYC:2766
C7AD  F0 F9     BEQ $C7A8                       A:00 X:FF Y:00 P:26 SP:FF CYC:2768
C7A8  AD 02 20  LDA $2002 = 00                  A:00 X:FF Y:00 P:26 SP:FF CYC:2771
C7AB  29 80     AND #$80                        A:00 X:FF Y:00 P:26 SP:FF CYC:2775
C7AD  F0 F9     BEQ $C7A8                       A:00 X:FF Y:00 P:26 SP:FF CYC:2777
C7A8  AD 02 20  LDA $2002 = 00                  A:00 X:FF Y:00 P:26 SP:FF CYC:2780
C7AB  29 80     AND #$80                        A:00 X:FF Y:00 P:26 SP:FF CYC:2784
C7AD  F0 F9     BEQ $C7A8                       A:00 X:FF Y:00 P:26 SP:FF CYC:2786
C7A8  AD 02 20  LDA $2002 = 00                  A:00 X:FF Y:00 P:26 SP:FF CYC:2789
C7AB  29 80     AND #$80                        A:00 X:FF Y:00 P:26 SP:FF CYC:2793
C7AD  F0 F9     BEQ $C7A8                       A:00 X:FF Y:00 P:26 SP:FF CYC:2795
C7A8  AD 02 20  LDA $2002 = 00                  A:00 X:FF Y:00 P:26 SP:FF CYC:2798
C7AB  29 80     AND #$80                        A:00 X:FF Y:00 P:26 SP:FF CYC:2802
C7AD  F0 F9     BEQ $C7A8                       A:00 X:FF Y:00 P:26 SP:FF CYC:2804
C7A8  AD 02 20  LDA $2002 = 00                  A:00 X:FF Y:00 P:26 SP:FF CYC:2807
C7AB  29 80     AND #$80                        A:00 X:FF Y:00 P:26 SP:FF CYC:2811
C7AD  F0 F9     BEQ $C7A8                       A:00 X:FF Y:00 P:26 SP:FF CYC:2813
C7A8  AD 02 20  LDA $2002 = 00                  A:00 X:FF Y:00 P:26 SP:FF CYC:2816
C7AB  29 80     AND #$80                        A:00 X:FF Y:00 P:26 SP:FF CYC:2820
C7AD  F0 F9     BEQ $C7A8                       A:00 X:FF Y:00 P:26 SP:FF CYC:2822
C7A8  AD 02 20  LDA $2002 = 00                  A:00 X:FF Y:00 P:26 SP:FF CYC:2825
C7AB  29 80     AND #$80                        A:00 X:FF Y:00 P:26 SP:FF CYC:2829
C7AD  F0 F9     BEQ $C7A8                       A:00 X:FF Y:00 P:26 SP:FF CYC:2831
C7A8  AD 02 20  LDA $2002 = 00                  A:00 X:FF Y:00 P:26 SP:FF CYC:2834
C7AB  29 80     AND #$80                        A:00 X:FF Y:00 P:26 SP:FF CYC:2838
C7AD  F0 F9     BEQ $C7A8                       A:00 X:FF Y:00 P:26 SP:FF CYC:2840
C7A8  AD 02 20  LDA $2002 = 00                  A:00 X:FF Y:00 P:26 SP:FF CYC:2843
C7AB  29 80     AND #$80                        A:00 X:FF Y:00 P:26 SP:FF CYC:2847
C7AD  F0 F9     BEQ $C7A8                       A:00 X:FF Y:00 P:26 SP:FF CYC:2849
C7A8  AD 02 20  LDA $2002 = 00                  A:00 X:FF Y:00 P:26 SP:FF CYC:2852
C7AB  29 80     AND #$80                        A:00 X:FF Y:00 P:26 SP:FF CYC:2856
C7AD  F0 F9     BEQ $C7A8                       A:00 X:FF Y:00 P:26 SP:FF CYC:2858
C7A8  AD 02 20  LDA $2002 = 00                  A:00 X:FF Y:00 P:26 SP:FF CYC:2861
C7AB  29 80     AND #$80                        A:00 X:FF Y:00 P:26 SP:FF CYC:2865
C7AD  F0 F9     BEQ $C7A8                       A:00 X:FF Y:00 P:26 SP:FF CYC:2867
C7A8  AD 02 20  LDA $2002 = 00                  A:00 X:FF Y:00 P:26 SP:FF CYC:2870
C7AB  29 80     AND #$80                        A:00 X:FF Y:00 P:26 SP:FF CYC:2874
C7AD  F0 F9     BEQ $C7A8                       A:00 X:FF Y:00 P:26 SP:FF CYC:2876
C7A8  AD 02 20  LDA $2002 = 00                  A:00 X:FF Y:00 P:26 SP:FF CYC:2879
C7AB  29 80     AND #$80                        A:00 X:FF Y:00 P:26 SP:FF CYC:2883
C7AD  F0 F9     BEQ $C7A8                       A:00 X:FF Y:00 P:26 SP:FF CYC:2885
C7A8  AD 02 20  LDA $2002 = 00                  A:00 X:FF Y:00 P:26 SP:FF CYC:2888
C7AB  29 80     AND #$80                        A:00 X:FF Y:00 P:26 SP:FF CYC:2892
C7AD  F0 F9     BEQ $C7A8                       A:00 X:FF Y:00 P:26 SP:FF CYC:2894
C7A8  AD 02 20  LDA $2002 = 00                  A:00 X:FF Y:00 P:26 SP:FF CYC:2897
C7AB  29 80     AND #$80                        A:00 X:FF Y:00 P:26 SP:FF CYC:2901
C7AD  F0 F9     BEQ $C7A8                       A:00 X:FF Y:00 P:26 SP:FF CYC:2903
C7A8  AD 02 20  LDA $2002 = 00                  A:00 X:FF Y:00 P:26 SP:FF CYC:2906
C7AB  29 80     AND #$80                        A:00 X:FF Y:00 P:26 SP:FF CYC:2910
C7AD  F0 F9     BEQ $C7A8                       A:00 X:FF Y:00 P:26 SP:FF CYC:2912
C7A8  AD 02 20  LDA $2002 = 00                  A:00 X:FF Y:00 P:26 SP:FF CYC:2915
C7AB  29 80     AND #$80                        A:00 X:FF Y:00 P:26 SP:FF CYC:2919
C7AD  F0 F9     BEQ $C7A8                       A:00 X:FF Y:00 P:26 SP:FF CYC:2921
C7A8  AD 02 20  LDA $2002 = 00                  A:00 X:FF Y:00 P:26 SP:FF CYC:2924
C7AB  29 80     AND #$80                        A:00 X:FF Y:00 P:26 SP:FF CYC:2928
C7AD  F0 F9     BEQ $C7A8                       A:00 X:FF Y:00 P:26 SP:FF CYC:2930
C7A8  AD 02 20  LDA $2002 = 00                  A:00 X:FF Y:00 P:26 SP:FF CYC:2933
C7AB  29 80     AND #$80                        A:00 X:FF Y:00 P:26 SP:FF CYC:2937
C7AD  F0 F9     BEQ $C7A8                       A:00 X:FF Y:00 P:26 SP:FF CYC:2939
C7A8  AD 02 20  LDA $2002 = 00                  A:00 X:FF Y:00 P:26 SP:FF CYC:2942
C7AB  29 80     AND #$80                        A:00 X:FF Y:00 P:26 SP:FF CYC:2946
C7AD  F0 F9     BEQ $C7A8                       A:00 X:FF Y:00 P:26 SP:FF CYC:2948
C7A8  AD 02 20  LDA $2002 = 00                  A:00 X:FF Y:00 P:26 SP:FF CYC:2951
C7AB  29 80     AND #$80                        A:00 X:FF Y:00 P:26 SP:FF CYC:2955
C7AD  F0 F9     BEQ $C7A8                       A:00 X:FF Y:00 P:26 SP:FF CYC:2957
C7A8  AD 02 20  LDA $2002 = 00                  A:00 X:FF Y:00 P:26 SP:FF CYC:2960
C7AB  29 80     AND #$80                        A:00 X:FF Y:00 P:26 SP:FF CYC:2964
C7AD  F0 F9     BEQ $C7A8                       A:00 X:FF Y:00 P:26 SP:FF CYC:2966
C7A8  AD 02 20  LDA $2002 = 00                  A:00 X:FF Y:00 P:26 SP:FF CYC:2969
C7AB  29 80     AND #$80                        A:00 X:FF Y:00 P:26 SP:FF CYC:2973
C7AD  F0 F9     BEQ $C7A8                       A:00 X:FF Y:00 P:26 SP:FF CYC:2975
C7A8  AD 02 20  LDA $2002 = 00                  A:00 X:FF Y:00 P:26 SP:FF CYC:2978
C7AB  29 80     AND #$80                        A:00 X:FF Y:00 P:26 SP:FF CYC:2982
C7AD  F0 F9     BEQ $C7A8                       A:00 X:FF Y:00 P:26 SP:FF CYC:2984
C7A8  AD 02 20  LDA $2002 = 00                  A:00 X:FF Y:00 P:26 SP:FF CYC:2987
C7AB  29 80     AND #$80                        A:00 X:FF Y:00 P:26 SP:FF CYC:2991
C7AD  F0 F9     BEQ $C7A8                       A:00 X:FF Y:00 P:26 SP:FF CYC:2993
C7A8  AD 02 20  LDA $2002 = 00                  A:00 X:FF Y:00 P:26 SP:FF CYC:2996
C7AB  29 80     AND #$80                        A:00 X:FF Y:00 P:26 SP:FF CYC:3000
C7AD  F0 F9     BEQ $C7A8                       A:00 X:FF Y:00 P:26 SP:FF CYC:3002
C7A8  AD 02 20  LDA $2002 = 00                  A:00 X:FF Y:00 P:26 SP:FF CYC:3005
C7AB  29 80     AND #$80                        A:00 X:FF Y:00 P:26 SP:FF CYC:3009
C7AD  F0 F9     BEQ $C7A8                       A:00 X:FF Y:00 P:26 SP:FF CYC:3011
C7A8  AD 02 20  LDA $2002 = 00                  A:00 X:FF Y:00 P:26 SP:FF CYC:3014
C7AB  29 80     AND #$80                        A:00 X:FF Y:00 P:26 SP:FF CYC:3018
C7AD  F0 F9     BEQ $C7A8                       A:00 X:FF Y:00 P:26 SP:FF CYC:3020
C7A8  AD 02 20  LDA $2002 = 00                  A:00 X:FF Y:00 P:26 SP:FF CYC:3023
C7AB  29 80     AND #$80                        A:00 X:FF Y:00 P:26 SP:FF CYC:3027
C7AD  F0 F9     BEQ $C7A8                       A:00 X:FF Y:00 P:26 SP:FF CYC:3029
C7A8  AD 02 20  LDA $2002 = 00                  A:00 X:FF Y:00 P:26 SP:FF CYC:3032
C7AB  29 80     AND #$80                        A:00 X:FF Y:00 P:26 SP:FF CYC:3036
C7AD  F0 F9     BEQ $C7A8                       A:00 X:FF Y:00 P:26 SP:FF CYC:3038
C7A8  AD 02 20  LDA $2002 = 00                  A:00 X:FF Y:00 P:26 SP:FF CYC:3041
C7AB  29 80     AND #$80                        A:00 X:FF Y:00 P:26 SP:FF CYC:3045
C7AD  F0 F9     BEQ $C7A8                       A:00 X:FF Y:00 P:26 SP:FF CYC:3047
C7A8  AD 02 20  LDA $2002 = 00                  A:00 X:FF Y:00 P:26 SP:FF CYC:3050
C7AB  29 80     AND #$80                        A:00 X:FF Y:00 P:26 SP:FF CYC:3054
C7AD  F0 F9     BEQ $C7A8                       A:00 X:FF Y:00 P:26 SP:FF CYC:3056
C7A8  AD 02 20  LDA $2002 = 00                  A:00 X:FF Y:00 P:26 SP:FF CYC:3059
C7AB  29 80     AND #$80                        A:00 X:FF Y:00 P:26 SP:FF CYC:3063
C7AD  F0 F9     BEQ $C7A8                       A:00 X:FF Y:00 P:26 SP:FF CYC:3065
C7A8  AD 02 20  LDA $2002 = 00                  A:00 X:FF Y:00 P:26 SP:FF CYC:3068
C7AB  29 80     AND #$80                        A:00 X:FF Y:00 P:26 SP:FF CYC:3072
C7AD  F0 F9     BEQ $C7A8                       A:00 X:FF Y:00 P:26 SP:FF CYC:3074
C7A8  AD 02 20  LDA $2002 = 00                  A:00 X:FF Y:00 P:26 SP:FF CYC:3077
C7AB  29 80     AND #$80                        A:00 X:FF Y:00 P:26 SP:FF CYC:3081
C7AD  F0 F9     BEQ $C7A8                       A:00 X:FF Y:00 P:26 SP:FF CYC:3083
C7A8  AD 02 20  LDA $2002 = 00                  A:00 X:FF Y:00 P:26 SP:FF CYC:3086
C7AB  29 80     AND #$80                        A:00 X:FF Y:00 P:26 SP:FF CYC:3090
C7AD  F0 F9     BEQ $C7A8                       A:00 X:FF Y:00 P:26 SP:FF CYC:3092
C7A8  AD 02 20  LDA $2002 = 00                  A:00 X:FF Y:00 P:26 SP:FF CYC:3095
C7AB  29 80     AND #$80                        A:00 X:FF Y:00 P:26 SP:FF CYC:3099
C7AD  F0 F9     BEQ $C7A8                       A:00 X:FF Y:00 P:26 SP:FF CYC:3101
C7A8  AD 02 20  LDA $2002 = 00                  A:00 X:FF Y:00 P:26 SP:FF CYC:3104
C7AB  29 80     AND #$80                        A:00 X:FF Y:00 P:26 SP:FF CYC:3108
C7AD  F0 F9     BEQ $C7A8                       A:00 X:FF Y:00 P:26 SP:FF CYC:3110
C7A8  AD 02 20  LDA $2002 = 00                  A:00 X:FF Y:00 P:26 SP:FF CYC:3113
C7AB  29 80     AND #$80                        A:00 X:FF Y:00 P:26 SP:FF CYC:3117
C7AD  F0 F9     BEQ $C7A8                       A:00 X:FF Y:00 P:26 SP:FF CYC:3119
C7A8  AD 02 20  LDA $2002 = 00                  A:00 X:FF Y:00 P:26 SP:FF CYC:3122
C7AB  29 80     AND #$80                        A:00 X:FF Y:00 P:26 SP:FF CYC:3126
C7AD  F0 F9     BEQ $C7A8                       A:00 X:FF Y:00 P:26 SP:FF CYC:3128
C7A8  AD 02 20  LDA $2002 = 00                  A:00 X:FF Y:00 P:26 SP:FF CYC:3131
C7AB  29 80     AND #$80                        A:00 X:FF Y:00 P:26 SP:FF CYC:3135
C7AD  F0 F9     BEQ $C7A8                       A:00 X:FF Y:00 P:26 SP:FF CYC:3137
C7A8  AD 02 20  LDA $2002 = 00                  A:00 X:FF Y:00 P:26 SP:FF CYC:3140
C7AB  29 80     AND #$80                        A:00 X:FF Y:00 P:26 SP:FF CYC:3144
C7AD  F0 F9     BEQ $C7A8                       A:00 X:FF Y:00 P:26 SP:FF CYC:3146
C7A8  AD 02 20  LDA $2002 = 00                  A:00 X:FF Y:00 P:26 SP:FF CYC:3149
C7AB  29 80     AND #$80                        A:00 X:FF Y:00 P:26 SP:FF CYC:3153
C7AD  F0 F9     BEQ $C7A8                       A:00 X:FF Y:00 P:26 SP:FF CYC:3155
C7A8  AD 02 20  LDA $2002 = 00                  A:00 X:FF Y:00 P:26 SP:FF CYC:3158
C7AB  29 80     AND #$80                        A:00 X:FF Y:00 P:26 SP:FF CYC:3162
C7AD  F0 F9     BEQ $C7A8                       A:00 X:FF Y:00 P:26 SP:FF CYC:3164
C7A8  AD 02 20  LDA $2002 = 00                  A:00 X:FF Y:00 P:26 SP:FF CYC:3167
C7AB  29 80     AND #$80                        A:00 X:FF Y:00 P:26 SP:FF CYC:3171
C7AD  F0 F9     BEQ $C7A8                       A:00 X:FF Y:00 P:26 SP:FF CYC:3173
C7A8  AD 02 20  LDA $2002 = 00                  A:00 X:FF Y:00 P:26 SP:FF CYC:3176
C7AB  29 80     AND #$80                        A:00 X:FF Y:00 P:26 SP:FF CYC:3180
C7AD  F0 F9     BEQ $C7A8                       A:00 X:FF Y:00 P:26 SP:FF CYC:3182
C7A8  AD 02 20  LDA $2002 = 00                  A:00 X:FF Y:00 P:26 SP:FF CYC:3185
C7AB  29 80     AND #$80                        A:00 X:FF Y:00 P:26 SP:FF CYC:3189
C7AD  F0 F9     BEQ $C7A8                       A:00 X:FF Y:00 P:26 SP:FF CYC:3191
C7A8  AD 02 20  LDA $2002 = 00                  A:00 X:FF Y:00 P:26 SP:FF CYC:3194
C7AB  29 80     AND #$80                        A:00 X:FF Y:00 P:26 SP:FF CYC:3198
C7AD  F0 F9     BEQ $C7A8                       A:00 X:FF Y:00 P:26 SP:FF CYC:3200
C7A8  AD 02 20  LDA $2002 = 00                  A:00 X:FF Y:00 P:26 SP:FF CYC:3203
C7AB  29 80     AND #$80                        A:00 X:FF Y:00 P:26 SP:FF CYC:3207
C7AD  F0 F9     BEQ $C7A8                       A:00 X:FF Y:00 P:26 SP:FF CYC:3209
C7A8  AD 02 20  LDA $2002 = 00                  A:00 X:FF Y:00 P:26 SP:FF CYC:3212
C7AB  29 80     AND #$80                        A:00 X:FF Y:00 P:26 SP:FF CYC:3216
C7AD  F0 F9     BEQ $C7A8                       A:00 X:FF Y:00 P:26 SP:FF CYC:3218
C7A8  AD 02 20  LDA $2002 = 00                  A:00 X:FF Y:00 P:26 SP:FF CYC:3221
C7AB  29 80     AND #$80                        A:00 X:FF Y:00 P:26 SP:FF CYC:3225
C7AD  F0 F9     BEQ $C7A8                       A:00 X:FF Y:00 P:26 SP:FF CYC:3227
C7A8  AD 02 20  LDA $2002 = 00                  A:00 X:FF Y:00 P:26 SP:FF CYC:3230
C7AB  29 80     AND #$80                        A:00 X:FF Y:00 P:26 SP:FF CYC:3234
C7AD  F0 F9     BEQ $C7A8                       A:00 X:FF Y:00 P:26 SP:FF CYC:3236
C7A8  AD 02 20  LDA $2002 = 00                  A:00 X:FF Y:00 P:26 SP:FF CYC:3239
C7AB  29 80     AND #$80                        A:00 X:FF Y:00 P:26 SP:FF CYC:3243
C7AD  F0 F9     BEQ $C7A8                       A:00 X:FF Y:00 P:26 SP:FF CYC:3245
C7A8  AD 02 20  LDA $2002 = 00                  A:00 X:FF Y:00 P:26 SP:FF CYC:3248
C7AB  29 80     AND #$80                        A:00 X:FF Y:00 P:26 SP:FF CYC:3252
C7AD  F0 F9     BEQ $C7A8                       A:00 X:FF Y:00 P:26 SP:FF CYC:3254
C7A8  AD 02 20  LDA $2002 = 00                  A:00 X:FF Y:00 P:26 SP:FF CYC:3257
C7AB  29 80     AND #$80                        A:00 X:FF Y:00 P:26 SP:FF CYC:3261
C7AD  F0 F9     BEQ $C7A8                       A:00 X:FF Y:00 P:26 SP:FF CYC:3263
C7A8  AD 02 20  LDA $2002 = 00                  A:00 X:FF Y:00 P:26 SP:FF CYC:3266
C7AB  29 80     AND #$80                        A:00 X:FF Y:00 P:26 SP:FF CYC:3270
C7AD  F0 F9     BEQ $C7A8                       A:00 X:FF Y:00 P:26 SP:FF CYC:3272
C7A8  AD 02 20  LDA $2002 = 00                  A:00 X:FF Y:00 P:26 SP:FF CYC:3275
C7AB  29 80     AND #$80                        A:00 X:FF Y:00 P:26 SP:FF CYC:3279
C7AD  F0 F9     BEQ $C7A8                       A:00 X:FF Y:00 P:26 SP:FF CYC:3281
C7A8  AD 02 20  LDA $2002 = 00                  A:00 X:FF Y:00 P:26 SP:FF CYC:3284
C7AB  29 80     AND #$80                        A:00 X:FF Y:00 P:26 SP:FF CYC:3288
C7AD  F0 F9     BEQ $C7A8                       A:00 X:FF Y:00 P:26 SP:FF CYC:3290
C7A8  AD 02 20  LDA $2002 = 00                  A:00 X:FF Y:00 P:26 SP:FF CYC:3293
C7AB  29 80     AND #$80                        A:00 X:FF Y:00 P:26 SP:FF CYC:3297
C7AD  F0 F9     BEQ $C7A8                       A:00 X:FF Y:00 P:26 SP:FF CYC:3299
C7A8  AD 02 20  LDA $2002 = 00                  A:00 X:FF Y:00 P:26 SP:FF CYC:3302
C7AB  29 80     AND #$80                        A:00 X:FF Y:00 P:26 SP:FF CYC:3306
C7AD  F0 F9     BEQ $C7A8                       A:00 X:FF Y:00 P:26 SP:FF CYC:3308
C7A8  AD 02 20  LDA $2002 = 00                  A:00 X:FF Y:00 P:26 SP:FF CYC:3311
C7AB  29 80     AND #$80                        A:00 X:FF Y:00 P:26 SP:FF CYC:3315
C7AD  F0 F9     BEQ $C7A8                       A:00 X:FF Y:00 P:26 SP:FF CYC:3317
C7A8  AD 02 20  LDA $2002 = 00                  A:00 X:FF Y:00 P:26 SP:FF CYC:3320
C7AB  29 80     AND #$80                        A:00 X:FF Y:00 P:26 SP:FF CYC:3324
C7AD  F0 F9     BEQ $C7A8                       A:00 X:FF Y:00 P:26 SP:FF CYC:3326
C7A8  AD 02 20  LDA $2002 = 00                  A:00 X:FF Y:00 P:26 SP:FF CYC:3329
C7AB  29 80     AND #$80                        A:00 X:FF Y:00 P:26 SP:FF CYC:3333
C7AD  F0 F9     BEQ $C7A8                       A:00 X:FF Y:00 P:26 SP:FF CYC:3335
C7A8  AD 02 20  LDA $2002 = 00                  A:00 X:FF Y:00 P:26 SP:FF CYC:3338
C7AB  29 80     AND #$80                        A:00 X:FF Y:00 P:26 SP:FF CYC:3342
C7AD  F0 F9     BEQ $C7A8                       A:00 X:FF Y:00 P:26 SP:FF CYC:3344
C7A8  AD 02 20  LDA $2002 = 00                  A:00 X:FF Y:00 P:26 SP:FF CYC:3347
C7AB  29 80     AND #$80                        A:00 X:FF Y:00 P:26 SP:FF CYC:3351
C7AD  F0 F9     BEQ $C7A8                       A:00 X:FF Y:00 P:26 SP:FF CYC:3353
C7A8  AD 02 20  LDA $2002 = 00                  A:00 X:FF Y:00 P:26 SP:FF CYC:3356
C7AB  29 80     AND #$80                        A:00 X:FF Y:00 P:26 SP:FF CYC:3360
C7AD  F0 F9     BEQ $C7A8                       A:00 X:FF Y:00 P:26 SP:FF CYC:3362
C7A8  AD 02 20  LDA $2002 = 00                  A:00 X:FF Y:00 P:26 SP:FF CYC:3365
C7AB  29 80     AND #$80                        A:00 X:FF Y:00 P:26 SP:FF CYC:3369
C7AD  F0 F9     BEQ $C7A8                       A:00 X:FF Y:00 P:26 SP:FF CYC:3371
C7A8  AD 02 20  LDA $2002 = 00                  A:00 X:FF Y:00 P:26 SP:FF CYC:3374
C7AB  29 80     AND #$80                        A:00 X:FF Y:00 P:26 SP:FF CYC:3378
C7AD  F0 F9     BEQ $C7A8                       A:00 X:FF Y:00 P:26 SP:FF CYC:3380
C7A8  AD 02 20  LDA $2002 = 00                  A:00 X:FF Y:00 P:26 SP:FF CYC:3383
C7AB  29 80     AND #$80                        A:00 X:FF Y:00 P:26 SP:FF CYC:3387
C7AD  F0 F9     BEQ $C7A8                       A:00 X:FF Y:00 P:26 SP:FF CYC:3389
C7A8  AD 02 20  LDA $2002 = 00                  A:00 X:FF Y:00 P:26 SP:FF CYC:3392
C7AB  29 80     AND #$80                        A:00 X:FF Y:00 P:26 SP:FF CYC:3396
C7AD  F0 F9     BEQ $C7A8                       A:00 X:FF Y:00 P:26 SP:FF CYC:3398
C7A8  AD 02 20  LDA $2002 = 00                  A:00 X:FF Y:00 P:26 SP:FF CYC:3401
C7AB  29 80     AND #$80                        A:00 X:FF Y:00 P:26 SP:FF CYC:3405
C7AD  F0 F9     BEQ $C7A8                       A:00 X:FF Y:00 P:26 SP:FF CYC:3407
C7A8  AD 02 20  LDA $2002 = 00                  A:00 X:FF Y:00 P:26 SP:FF CYC:3410
C7AB  29 80     AND #$80                        A:00 X:FF Y:00 P:26 SP:FF CYC:3414
C7AD  F0 F9     BEQ $C7A8                       A:00 X:FF Y:00 P:26 SP:FF CYC:3416
C7A8  AD 02 20  LDA $2002 = 00                  A:00 X:FF Y:00 P:26 SP:FF CYC:3419
C7AB  29 80     AND #$80                        A:00 X:FF Y:00 P:26 SP:FF CYC:3423
C7AD  F0 F9     BEQ $C7A8                       A:00 X:FF Y:00 P:26 SP:FF CYC:3425
C7A8  AD 02 20  LDA $2002 = 00                  A:00 X:FF Y:00 P:26 SP:FF CYC:3428
C7AB  29 80     AND #$80                        A:00 X:FF Y:00 P:26 SP:FF CYC:3432
C7AD  F0 F9     BEQ $C7A8                       A:00 X:FF Y:00 P:26 SP:FF CYC:3434
C7A8  AD 02 20  LDA $2002 = 00                  A:00 X:FF Y:00 P:26 SP:FF CYC:3437
C7AB  29 80     AND #$80                        A:00 X:FF Y:00 P:26 SP:FF CYC:3441
C7AD  F0 F9     BEQ $C7A8                       A:00 X:FF Y:00 P:26 SP:FF CYC:3443
C7A8  AD 02 20  LDA $2002 = 00                  A:00 X:FF Y:00 P:26 SP:FF CYC:3446
C7AB  29 80     AND #$80                        A:00 X:FF Y:00 P:26 SP:FF CYC:3450
C7AD  F0 F9     BEQ $C7A8                       A:00 X:FF Y:00 P:26 SP:FF CYC:3452
C7A8  AD 02 20  LDA $2002 = 00                  A:00 X:FF Y:00 P:26 SP:FF CYC:3455
C7AB  29 80     AND #$80                        A:00 X:FF Y:00 P:26 SP:FF CYC:3459
C7AD  F0 F9     BEQ $C7A8                       A:00 X:FF Y:00 P:26 SP:FF CYC:3461
C7A8  AD 02 20  LDA $2002 = 00                  A:00 X:FF Y:00 P:26 SP:FF CYC:3464
C7AB  29 80     AND #$80                        A:00 X:FF Y:00 P:26 SP:FF CYC:3468
C7AD  F0 F9     BEQ $C7A8                       A:00 X:FF Y:00 P:26 SP:FF CYC:3470
C7A8  AD 02 20  LDA $2002 = 00                  A:00 X:FF Y:00 P:26 SP:FF CYC:3473
C7AB  29 80     AND #$80                        A:00 X:FF Y:00 P:26 SP:FF CYC:3477
C7AD  F0 F9     BEQ $C7A8                       A:00 X:FF Y:00 P:26 SP:FF CYC:3479
C7A8  AD 02 20  LDA $2002 = 00                  A:00 X:FF Y:00 P:26 SP:FF CYC:3482
C7AB  29 80     AND #$80                        A:00 X:FF Y:00 P:26 SP:FF CYC:3486
C7AD  F0 F9     BEQ $C7A8                       A:00 X:FF Y:00 P:26 SP:FF CYC:3488
C7A8  AD 02 20  LDA $2002 = 00                  A:00 X:FF Y:00 P:26 SP:FF CYC:3491
C7AB  29 80     AND #$80                        A:00 X:FF Y:00 P:26 SP:FF CYC:3495
C7AD  F0 F9     BEQ $C7A8                       A:00 X:FF Y:00 P:26 SP:FF CYC:3497
C7A8  AD 02 20  LDA $2002 = 00                  A:00 X:FF Y:00 P:26 SP:FF CYC:3500
C7AB  29 80     AND #$80                        A:00 X:FF Y:00 P:26 SP:FF CYC:3504
C7AD  F0 F9     BEQ $C7A8                       A:00 X:FF Y:00 P:26 SP:FF CYC:3506
C7A8  AD 02 20  LDA $2002 = 00                  A:00 X:FF Y:00 P:26 SP:FF CYC:3509
C7AB  29 80     AND #$80                        A:00 X:FF Y:00 P:26 SP:FF CYC:3513
C7AD  F0 F9     BEQ $C7A8                       A:00 X:FF Y:00 P:26 SP:FF CYC:3515
C7A8  AD 02 20  LDA $2002 = 00                  A:00 X:FF Y:00 P:26 SP:FF CYC:3518
C7AB  29 80     AND #$80                        A:00 X:FF Y:00 P:26 SP:FF CYC:3522
C7AD  F0 F9     BEQ $C7A8                       A:00 X:FF Y:00 P:26 SP:FF CYC:3524
C7A8  AD 02 20  LDA $2002 = 00                  A:00 X:FF Y:00 P:26 SP:FF CYC:3527
C7AB  29 80     AND #$80                        A:00 X:FF Y:00 P:26 SP:FF CYC:3531
C7AD  F0 F9     BEQ $C7A8                       A:00 X:FF Y:00 P:26 SP:FF CYC:3533
C7A8  AD 02 20  LDA $2002 = 00                  A:00 X:FF Y:00 P:26 SP:FF CYC:3536
C7AB  29 80     AND #$80                        A:00 X:FF Y:00 P:26 SP:FF CYC:3540
C7AD  F0 F9     BEQ $C7A8                       A:00 X:FF Y:00 P:26 SP:FF CYC:3542
C7A8  AD 02 20  LDA $2002 = 00                  A:00 X:FF Y:00 P:26 SP:FF CYC:3545
C7AB  29 80     AND #$80                        A:00 X:FF Y:00 P:26 SP:FF CYC:3549
C7AD  F0 F9     BEQ $C7A8                       A:00 X:FF Y:00 P:26 SP:FF CYC:3551
C7A8  AD 02 20  LDA $2002 = 00                  A:00 X:FF Y:00 P:26 SP:FF CYC:3554
C7AB  29 80     AND #$80                        A:00 X:FF Y:00 P:26 SP:FF CYC:3558
C7AD  F0 F9     BEQ $C7A8                       A:00 X:FF Y:00 P:26 SP:FF CYC:3560
C7A8  AD 02 20  LDA $2002 = 00                  A:00 X:FF Y:00 P:26 SP:FF CYC:3563
C7AB  29 80     AND #$80                        A:00 X:FF Y:00 P:26 SP:FF CYC:3567
C7AD  F0 F9     BEQ $C7A8                       A:00 X:FF Y:00 P:26 SP:FF CYC:3569
C7A8  AD 02 20  LDA $2002 = 00                  A:00 X:FF Y:00 P:26 SP:FF CYC:3572
C7AB  29 80     AND #$80                        A:00 X:FF Y:00 P:26 SP:FF CYC:3576
C7AD  F0 F9     BEQ $C7A8                       A:00 X:FF Y:00 P:26 SP:FF CYC:3578
C7A8  AD 02 20  LDA $2002 = 00                  A:00 X:FF Y:00 P:26 SP:FF CYC:3581
C7AB  29 80     AND #$80                        A:00 X:FF Y:00 P:26 SP:FF CYC:3585
C7AD  F0 F9     BEQ $C7A8                       A:00 X:FF Y:00 P:26 SP:FF CYC:3587
C7A8  AD 02 20  LDA $2002 = 00                  A:00 X:FF Y:00 P:26 SP:FF CYC:3590
C7AB  29 80     AND #$80                        A:00 X:FF Y:00 P:26 SP:FF CYC:3594
C7AD  F0 F9     BEQ $C7A8                       A:00 X:FF Y:00 P:26 SP:FF CYC:3596
C7A8  AD 02 20  LDA $2002 = 00                  A:00 X:FF Y:00 P:26 SP:FF CYC:3599
C7AB  29 80     AND #$80                        A:00 X:FF Y:00 P:26 SP:FF CYC:3603
C7AD  F0 F9     BEQ $C7A8                       A:00 X:FF Y:00 P:26 SP:FF CYC:3605
C7A8  AD 02 20  LDA $2002 = 00                  A:00 X:FF Y:00 P:26 SP:FF CYC:3608
C7AB  29 80     AND #$80                        A:00 X:FF Y:00 P:26 SP:FF CYC:3612
C7AD  F0 F9     BEQ $C7A8                       A:00 X:FF Y:00 P:26 SP:FF CYC:3614
C7A8  AD 02 20  LDA $2002 = 00                  A:00 X:FF Y:00 P:26 SP:FF CYC:3617
C7AB  29 80     AND #$80                        A:00 X:FF Y:00 P:26 SP:FF CYC:3621
C7AD  F0 F9     BEQ $C7A8                       A:00 X:FF Y:00 P:26 SP:FF CYC:3623
C7A8  AD 02 20  LDA $2002 = 00                  A:00 X:FF Y:00 P:26 SP:FF CYC:3626
C7AB  29 80     AND #$80                        A:00 X:FF Y:00 P:26 SP:FF CYC:3630
C7AD  F0 F9     BEQ $C7A8                       A:00 X:FF Y:00 P:26 SP:FF CYC:3632
C7A8  AD 02 20  LDA $2002 = 00                  A:00 X:FF Y:00 P:26 SP:FF CYC:3635
C7AB  29 80     AND #$80                        A:00 X:FF Y:00 P:26 SP:FF CYC:3639
C7AD  F0 F9     BEQ $C7A8                       A:00 X:FF Y:00 P:26 SP:FF CYC:3641
C7A8  AD 02 20  LDA $2002 = 00                  A:00 X:FF Y:00 P:26 SP:FF CYC:3644
C7AB  29 80     AND #$80                        A:00 X:FF Y:00 P:26 SP:FF CYC:3648
C7AD  F0 F9     BEQ $C7A8                       A:00 X:FF Y:00 P:26 SP:FF CYC:3650
C7A8  AD 02 20  LDA $2002 = 00                  A:00 X:FF Y:00 P:26 SP:FF CYC:3653
C7AB  29 80     AND #$80                        A:00 X:FF Y:00 P:26 SP:FF CYC:3657
C7AD  F0 F9     BEQ $C7A8                       A:00 X:FF Y:00 P:26 SP:FF CYC:3659
C7A8  AD 02 20  LDA $2002 = 00                  A:00 X:FF Y:00 P:26 SP:FF CYC:3662
C7AB  29 80     AND #$80                        A:00 X:FF Y:00 P:26 SP:FF CYC:3666
C7AD  F0 F9     BEQ $C7A8                       A:00 X:FF Y:00 P:26 SP:FF CYC:3668
C7A8  AD 02 20  LDA $2002 = 00                  A:00 X:FF Y:00 P:26 SP:FF CYC:3671
C7AB  29 80     AND #$80                        A:00 X:FF Y:00 P:26 SP:FF CYC:3675
C7AD  F0 F9     BEQ $C7A8                       A:00 X:FF Y:00 P:26 SP:FF CYC:3677
C7A8  AD 02 20  LDA $2002 = 00                  A:00 X:FF Y:00 P:26 SP:FF CYC:3680
C7AB  29 80     AND #$80                        A:00 X:FF Y:00 P:26 SP:FF CYC:3684
C7AD  F0 F9     BEQ $C7A8                       A:00 X:FF Y:00 P:26 SP:FF CYC:3686
C7A8  AD 02 20  LDA $2002 = 00                  A:00 X:FF Y:00 P:26 SP:FF CYC:3689
C7AB  29 80     AND #$80                        A:00 X:FF Y:00 P:26 SP:FF CYC:3693
C7AD  F0 F9     BEQ $C7A8                       A:00 X:FF Y:00 P:26 SP:FF CYC:3695
C7A8  AD 02 20  LDA $2002 = 00                  A:00 X:FF Y:00 P:26 SP:FF CYC:3698
C7AB  29 80     AND #$80                        A:00 X:FF Y:00 P:26 SP:FF CYC:3702
C7AD  F0 F9     BEQ $C7A8                       A:00 X:FF Y:00 P:26 SP:FF CYC:3704
C7A8  AD 02 20  LDA $2002 = 00                  A:00 X:FF Y:00 P:26 SP:FF CYC:3707
C7AB  29 80     AND #$80                        A:00 X:FF Y:00 P:26 SP:FF CYC:3711
C7AD  F0 F9     BEQ $C7A8                       A:00 X:FF Y:00 P:26 SP:FF CYC:3713
C7A8  AD 02 20  LDA $2002 = 00                  A:00 X:FF Y:00 P:26 SP:FF CYC:3716
C7AB  29 80     AND #$80                        A:00 X:FF Y:00 P:26 SP:FF CYC:3720
C7AD  F0 F9     BEQ $C7A8                       A:00 X:FF Y:00 P:26 SP:FF CYC:3722
C7A8  AD 02 20  LDA $2002 = 00                  A:00 X:FF Y:00 P:26 SP:FF CYC:3725
C7AB  29 80     AND #$80                        A:00 X:FF Y:00 P:26 SP:FF CYC:3729
C7AD  F0 F9     BEQ $C7A8                       A:00 X:FF Y:00 P:26 SP:FF CYC:3731
C7A8  AD 02 20  LDA $2002 = 00                  A:00 X:FF Y:00 P:26 SP:FF CYC:3734
C7AB  29 80     AND #$80                        A:00 X:FF Y:00 P:26 SP:FF CYC:3738
C7AD  F0 F9     BEQ $C7A8                       A:00 X:FF Y:00 P:26 SP:FF CYC:3740
C7A8  AD 02 20  LDA $2002 = 00                  A:00 X:FF Y:00 P:26 SP:FF CYC:3743
C7AB  29 80     AND #$80                        A:00 X:FF Y:00 P:26 SP:FF CYC:3747
C7AD  F0 F9     BEQ $C7A8                       A:00 X:FF Y:00 P:26 SP:FF CYC:3749
C7A8  AD 02 20  LDA $2002 = 00                  A:00 X:FF Y:00 P:26 SP:FF CYC:3752
C7AB  29 80     AND #$80                        A:00 X:FF Y:00 P:26 SP:FF CYC:3756
C7AD  F0 F9     BEQ $C7A8                       A:00 X:FF Y:00 P:26 SP:FF CYC:3758
C7A8  AD 02 20  LDA $2002 = 00                  A:00 X:FF Y:00 P:26 SP:FF CYC:3761
C7AB  29 80     AND #$80                        A:00 X:FF Y:00 P:26 SP:FF CYC:3765
C7AD  F0 F9     BEQ $C7A8                       A:00 X:FF Y:00 P:26 SP:FF CYC:3767
C7A8  AD 02 20  LDA $2002 = 00                  A:00 X:FF Y:00 P:26 SP:FF CYC:3770
C7AB  29 80     AND #$80                        A:00 X:FF Y:00 P:26 SP:FF CYC:3774
C7AD  F0 F9     BEQ $C7A8                       A:00 X:FF Y:00 P:26 SP:FF CYC:3776
C7A8  AD 02 20  LDA $2002 = 00                  A:00 X:FF Y:00 P:26 SP:FF CYC:3779
C7AB  29 80     AND #$80                        A:00 X:FF Y:00 P:26 SP:FF CYC:3783
C7AD  F0 F9     BEQ $C7A8                       A:00 X:FF Y:00 P:26 SP:FF CYC:3785
C7A8  AD 02 20  LDA $2002 = 00                  A:00 X:FF Y:00 P:26 SP:FF CYC:3788
C7AB  29 80     AND #$80                        A:00 X:FF Y:00 P:26 SP:FF CYC:3792
C7AD  F0 F9     BEQ $C7A8                       A:00 X:FF Y:00 P:26 SP:FF CYC:3794
C7A8  AD 02 20  LDA $2002 = 00                  A:00 X:FF Y:00 P:26 SP:FF CYC:3797
C7AB  29 80     AND #$80                        A:00 X:FF Y:00 P:26 SP:FF CYC:3801
C7AD  F0 F9     BEQ $C7A8                       A:00 X:FF Y:00 P:26 SP:FF CYC:3803
C7A8  AD 02 20  LDA $2002 = 00                  A:00 X:FF Y:00 P:26 SP:FF CYC:3806
C7AB  29 80     AND #$80                        A:00 X:FF Y:00 P:26 SP:FF CYC:3810
C7AD  F0 F9     BEQ $C7A8                       A:00 X:FF Y:00 P:26 SP:FF CYC:3812
C7A8  AD 02 20  LDA $2002 = 00                  A:00 X:FF Y:00 P:26 SP:FF CYC:3815
C7AB  29 80     AND #$80                        A:00 X:FF Y:00 P:26 SP:FF CYC:3819
C7AD  F0 F9     BEQ $C7A8                       A:00 X:FF Y:00 P:26 SP:FF CYC:3821
C7A8  AD 02 20  LDA $2002 = 00                  A:00 X:FF Y:00 P:26 SP:FF CYC:3824
C7AB  29 80     AND #$80                        A:00 X:FF Y:00 P:26 SP:FF CYC:3828
C7AD  F0 F9     BEQ $C7A8                       A:00 X:FF Y:00 P:26 SP:FF CYC:3830
C7A8  AD 02 20  LDA $2002 = 00                  A:00 X:FF Y:00 P:26 SP:FF CYC:3833
C7AB  29 80     AND #$80                        A:00 X:FF Y:00 P:26 SP:FF CYC:3837
C7AD  F0 F9     BEQ $C7A8                       A:00 X:FF Y:00 P:26 SP:FF CYC:3839
C7A8  AD 02 20  LDA $2002 = 00                  A:00 X:FF Y:00 P:26 SP:FF CYC:3842
C7AB  29 80     AND #$80                        A:00 X:FF Y:00 P:26 SP:FF CYC:3846
C7AD  F0 F9     BEQ $C7A8                       A:00 X:FF Y:00 P:26 SP:FF CYC:3848
C7A8  AD 02 20  LDA $2002 = 00                  A:00 X:FF Y:00 P:26 SP:FF CYC:3851
C7AB  29 80     AND #$80                        A:00 X:FF Y:00 P:26 SP:FF CYC:3855
C7AD  F0 F9     BEQ $C7A8                       A:00 X:FF Y:00 P:26 SP:FF CYC:3857
C7A8  AD 02 20  LDA $2002 = 00                  A:00 X:FF Y:00 P:26 SP:FF CYC:3860
C7AB  29 80     AND #$80                        A:00 X:FF Y:00 P:26 SP:FF CYC:3864
C7AD  F0 F9     BEQ $C7A8                       A:00 X:FF Y:00 P:26 SP:FF CYC:3866
C7A8  AD 02 20  LDA $2002 = 00                  A:00 X:FF Y:00 P:26 SP:FF CYC:3869
C7AB  29 80     AND #$80                        A:00 X:FF Y:00 P:26 SP:FF CYC:3873
C7AD  F0 F9     BEQ $C7A8                       A:00 X:FF Y:00 P:26 SP:FF CYC:3875
C7A8  AD 02 20  LDA $2002 = 00                  A:00 X:FF Y:00 P:26 SP:FF CYC:3878
C7AB  29 80     AND #$80                        A:00 X:FF Y:00 P:26 SP:FF CYC:3882
C7AD  F0 F9     BEQ $C7A8                       A:00 X:FF Y:00 P:26 SP:FF CYC:3884
C7A8  AD 02 20  LDA $2002 = 00                  A:00 X:FF Y:00 P:26 SP:FF CYC:3887
C7AB  29 80     AND #$80                        A:00 X:FF Y:00 P:26 SP:FF CYC:3891
C7AD  F0 F9     BEQ $C7A8                       A:00 X:FF Y:00 P:26 SP:FF CYC:3893
C7A8  AD 02 20  LDA $2002 = 00                  A:00 X:FF Y:00 P:26 SP:FF CYC:3896
C7AB  29 80     AND #$80                        A:00 X:FF Y:00 P:26 SP:FF CYC:3900
C7AD  F0 F9     BEQ $C7A8                       A:00 X:FF Y:00 P:26 SP:FF CYC:3902
C7A8  AD 02 20  LDA $2002 = 00                  A:00 X:FF Y:00 P:26 SP:FF CYC:3905
C7AB  29 80     AND #$80                        A:00 X:FF Y:00 P:26 SP:FF CYC:3909
C7AD  F0 F9     BEQ $C7A8                       A:00 X:FF Y:00 P:26 SP:FF CYC:3911
C7A8  AD 02 20  LDA $2002 = 00                  A:00 X:FF Y:00 P:26 SP:FF CYC:3914
C7AB  29 80     AND #$80                        A:00 X:FF Y:00 P:26 SP:FF CYC:3918
C7AD  F0 F9     BEQ $C7A8                       A:00 X:FF Y:00 P:26 SP:FF CYC:3920
C7A8  AD 02 20  LDA $2002 = 00                  A:00 X:FF Y:00 P:26 SP:FF CYC:3923
C7AB  29 80     AND #$80                        A:00 X:FF Y:00 P:26 SP:FF CYC:3927
C7AD  F0 F9     BEQ $C7A8                       A:00 X:FF Y:00 P:26 SP:FF CYC:3929
C7A8  AD 02 20  LDA $2002 = 00                  A:00 X:FF Y:00 P:26 SP:FF CYC:3932
C7AB  29 80     AND #$80                        A:00 X:FF Y:00 P:26 SP:FF CYC:3936
C7AD  F0 F9     BEQ $C7A8                       A:00 X:FF Y:00 P:26 SP:FF CYC:3938
C7A8  AD 02 20  LDA $2002 = 00                  A:00 X:FF Y:00 P:26 SP:FF CYC:3941
C7AB  29 80     AND #$80                        A:00 X:FF Y:00 P:26 SP:FF CYC:3945
C7AD  F0 F9     BEQ $C7A8                       A:00 X:FF Y:00 P:26 SP:FF CYC:3947
C7A8  AD 02 20  LDA $2002 = 00                  A:00 X:FF Y:00 P:26 SP:FF CYC:3950
C7AB  29 80     AND #$80                        A:00 X:FF Y:00 P:26 SP:FF CYC:3954
C7AD  F0 F9     BEQ $C7A8                       A:00 X:FF Y:00 P:26 SP:FF CYC:3956
C7A8  AD 02 20  LDA $2002 = 00                  A:00 X:FF Y:00 P:26 SP:FF CYC:3959
C7AB  29 80     AND #$80                        A:00 X:FF Y:00 P:26 SP:FF CYC:3963
C7AD  F0 F9     BEQ $C7A8                       A:00 X:FF Y:00 P:26 SP:FF CYC:3965
C7A8  AD 02 20  LDA $2002 = 00                  A:00 X:FF Y:00 P:26 SP:FF CYC:3968
C7AB  29 80     AND #$80                        A:00 X:FF Y:00 P:26 SP:FF CYC:3972
C7AD  F0 F9     BEQ $C7A8                       A:00 X:FF Y:00 P:26 SP:FF CYC:3974
C7A8  AD 02 20  LDA $2002 = 00                  A:00 X:FF Y:00 P:26 SP:FF CYC:3977
C7AB  29 80     AND #$80                        A:00 X:FF Y:00 P:26 SP:FF CYC:3981
C7AD  F0 F9     BEQ $C7A8                       A:00 X:FF Y:00 P:26 SP:FF CYC:3983
C7A8  AD 02 20  LDA $2002 = 00                  A:00 X:FF Y:00 P:26 SP:FF CYC:3986
C7AB  29 80     AND #$80                        A:00 X:FF Y:00 P:26 SP:FF CYC:3990
C7AD  F0 F9     BEQ $C7A8                       A:00 X:FF Y:00 P:26 SP:FF CYC:3992
C7A8  AD 02 20  LDA $2002 = 00                  A:00 X:FF Y:00 P:26 SP:FF CYC:3995
C7AB  29 80     AND #$80                        A:00 X:FF Y:00 P:26 SP:FF CYC:3999
C7AD  F0 F9     BEQ $C7A8                       A:00 X:FF Y:00 P:26 SP:FF CYC:4001
C7A8  AD 02 20  LDA $2002 = 00                  A:00 X:FF Y:00 P:26 SP:FF CYC:4004
C7AB  29 80     AND #$80                        A:00 X:FF Y:00 P:26 SP:FF CYC:4008
C7AD  F0 F9     BEQ $C7A8                       A:00 X:FF Y:00 P:26 SP:FF CYC:4010
C7A8  AD 02 20  LDA $2002 = 00                  A:00 X:FF Y:00 P:26 SP:FF CYC:4013
C7AB  29 80     AND #$80                        A:00 X:FF Y:00 P:26 SP:FF CYC:4017
C7AD  F0 F9     BEQ $C7A8                       A:00 X:FF Y:00 P:26 SP:FF CYC:4019
C7A8  AD 02 20  LDA $2002 = 00                  A:00 X:FF Y:00 P:26 SP:FF CYC:4022
C7AB  29 80     AND #$80                        A:00 X:FF Y:00 P:26 SP:FF CYC:4026
C7AD  F0 F9     BEQ $C7A8                       A:00 X:FF Y:00 P:26 SP:FF CYC:4028
C7A8  AD 02 20  LDA $2002 = 00                  A:00 X:FF Y:00 P:26 SP:FF CYC:4031
C7AB  29 80     AND #$80                        A:00 X:FF Y:00 P:26 SP:FF CYC:4035
C7AD  F0 F9     BEQ $C7A8                       A:00 X:FF Y:00 P:26 SP:FF CYC:4037
C7A8  AD 02 20  LDA $2002 = 00                  A:00 X:FF Y:00 P:26 SP:FF CYC:4040
C7AB  29 80     AND #$80                        A:00 X:FF Y:00 P:26 SP:FF CYC:4044
C7AD  F0 F9     BEQ $C7A8                       A:00 X:FF Y:00 P:26 SP:FF CYC:4046
C7A8  AD 02 20  LDA $2002 = 00                  A:00 X:FF Y:00 P:26 SP:FF CYC:4049
C7AB  29 80     AND #$80                        A:00 X:FF Y:00 P:26 SP:FF CYC:4053
C7AD  F0 F9     BEQ $C7A8                       A:00 X:FF Y:00 P:26 SP:FF CYC:4055
C7A8  AD 02 20  LDA $2002 = 00                  A:00 X:FF Y:00 P:26 SP:FF CYC:4058
C7AB  29 80     AND #$80                        A:00 X:FF Y:00 P:26 SP:FF CYC:4062
C7AD  F0 F9     BEQ $C7A8                       A:00 X:FF Y:00 P:26 SP:FF CYC:4064
C7A8  AD 02 20  LDA $2002 = 00                  A:00 X:FF Y:00 P:26 SP:FF CYC:4067
C7AB  29 80     AND #$80                        A:00 X:FF Y:00 P:26 SP:FF CYC:4071
C7AD  F0 F9     BEQ $C7A8                       A:00 X:FF Y:00 P:26 SP:FF CYC:4073
C7A8  AD 02 20  LDA $2002 = 00                  A:00 X:FF Y:00 P:26 SP:FF CYC:4076
C7AB  29 80     AND #$80                        A:00 X:FF Y:00 P:26 SP:FF CYC:4080
C7AD  F0 F9     BEQ $C7A8                       A:00 X:FF Y:00 P:26 SP:FF CYC:4082
C7A8  AD 02 20  LDA $2002 = 00                  A:00 X:FF Y:00 P:26 SP:FF CYC:4085
C7AB  29 80     AND #$80                        A:00 X:FF Y:00 P:26 SP:FF CYC:4089
C7AD  F0 F9     BEQ $C7A8                       A:00 X:FF Y:00 P:26 SP:FF CYC:4091
C7A8  AD 02 20  LDA $2002 = 00                  A:00 X:FF Y:00 P:26 SP:FF CYC:4094
C7AB  29 80     AND #$80                        A:00 X:FF Y:00 P:26 SP:FF CYC:4098
C7AD  F0 F9     BEQ $C7A8                       A:00 X:FF Y:00 P:26 SP:FF CYC:4100
C7A8  AD 02 20  LDA $2002 = 00                  A:00 X:FF Y:00 P:26 SP:FF CYC:4103
C7AB  29 80     AND #$80                        A:00 X:FF Y:00 P:26 SP:FF CYC:4107
C7AD  F0 F9     BEQ $C7A8                       A:00 X:FF Y:00 P:26 SP:FF CYC:4109
C7A8  AD 02 20  LDA $2002 = 00                  A:00 X:FF Y:00 P:26 SP:FF CYC:4112
C7AB  29 80     AND #$80                        A:00 X:FF Y:00 P:26 SP:FF CYC:4116
C7AD  F0 F9     BEQ $C7A8                       A:00 X:FF Y:00 P:26 SP:FF CYC:4118
C7A8  AD 02 20  LDA $2002 = 00                  A:00 X:FF Y:00 P:26 SP:FF CYC:4121
C7AB  29 80     AND #$80                        A:00 X:FF Y:00 P:26 SP:FF CYC:4125
C7AD  F0 F9     BEQ $C7A8                       A:00 X:FF Y:00 P:26 SP:FF CYC:4127
C7A8  AD 02 20  LDA $2002 = 00                  A:00 X:FF Y:00 P:26 SP:FF CYC:4130
C7AB  29 80     AND #$80                        A:00 X:FF Y:00 P:26 SP:FF CYC:4134
C7AD  F0 F9     BEQ $C7A8                       A:00 X:FF Y:00 P:26 SP:FF CYC:4136
C7A8  AD 02 20  LDA $2002 = 00                  A:00 X:FF Y:00 P:26 SP:FF CYC:4139
C7AB  29 80     AND #$80                        A:00 X:FF Y:00 P:26 SP:FF CYC:4143
C7AD  F0 F9     BEQ $C7A8                       A:00 X:FF Y:00 P:26 SP:FF CYC:4145
C7A8  AD 02 20  LDA $2002 = 00                  A:00 X:FF Y:00 P:26 SP:FF CYC:4148
C7AB  29 80     AND #$80                        A:00 X:FF Y:00 P:26 SP:FF CYC:4152
C7AD  F0 F9     BEQ $C7A8                       A:00 X:FF Y:00 P:26 SP:FF CYC:4154
C7A8  AD 02 20  LDA $2002 = 00                  A:00 X:FF Y:00 P:26 SP:FF CYC:4157
C7AB  29 80     AND #$80                        A:00 X:FF Y:00 P:26 SP:FF CYC:4161
C7AD  F0 F9     BEQ $C7A8                       A:00 X:FF Y:00 P:26 SP:FF CYC:4163
C7A8  AD 02 20  LDA $2002 = 00                  A:00 X:FF Y:00 P:26 SP:FF CYC:4166
C7AB  29 80     AND #$80                        A:00 X:FF Y:00 P:26 SP:FF CYC:4170
C7AD  F0 F9     BEQ $C7A8                       A:00 X:FF Y:00 P:26 SP:FF CYC:4172
C7A8  AD 02 20  LDA $2002 = 00                  A:00 X:FF Y:00 P:26 SP:FF CYC:4175
C7AB  29 80     AND #$80                        A:00 X:FF Y:00 P:26 SP:FF CYC:4179
C7AD  F0 F9     BEQ $C7A8                       A:00 X:FF Y:00 P:26 SP:FF CYC:4181
C7A8  AD 02 20  LDA $2002 = 00                  A:00 X:FF Y:00 P:26 SP:FF CYC:4184
C7AB  29 80     AND #$80                        A:00 X:FF Y:00 P:26 SP:FF CYC:4188
C7AD  F0 F9     BEQ $C7A8                       A:00 X:FF Y:00 P:26 SP:FF CYC:4190
C7A8  AD 02 20  LDA $2002 = 00                  A:00 X:FF Y:00 P:26 SP:FF CYC:4193
C7AB  29 80     AND #$80                        A:00 X:FF Y:00 P:26 SP:FF CYC:4197
C7AD  F0 F9     BEQ $C7A8                       A:00 X:FF Y:00 P:26 SP:FF CYC:4199
C7A8  AD 02 20  LDA $2002 = 00                  A:00 X:FF Y:00 P:26 SP:FF CYC:4202
C7AB  29 80     AND #$80                        A:00 X:FF Y:00 P:26 SP:FF CYC:4206
C7AD  F0 F9     BEQ $C7A8                       A:00 X:FF Y:00 P:26 SP:FF CYC:4208
C7A8  AD 02 20  LDA $2002 = 00                  A:00 X:FF Y:00 P:26 SP:FF CYC:4211
C7AB  29 80     AND #$80                        A:00 X:FF Y:00 P:26 SP:FF CYC:4215
C7AD  F0 F9     BEQ $C7A8                       A:00 X:FF Y:00 P:26 SP:FF CYC:4217
C7A8  AD 02 20  LDA $2002 = 00                  A:00 X:FF Y:00 P:26 SP:FF CYC:4220
C7AB  29 80     AND #$80                        A:00 X:FF Y:00 P:26 SP:FF CYC:4224
C7AD  F0 F9     BEQ $C7A8                       A:00 X:FF Y:00 P:26 SP:FF CYC:4226
C7A8  AD 02 20  LDA $2002 = 00                  A:00 X:FF Y:00 P:26 SP:FF CYC:4229
C7AB  29 80     AND #$80                        A:00 X:FF Y:00 P:26 SP:FF CYC:4233
C7AD  F0 F9     BEQ $C7A8                       A:00 X:FF Y:00 P:26 SP:FF CYC:4235
C7A8  AD 02 20  LDA $2002 = 00                  A:00 X:FF Y:00 P:26 SP:FF CYC:4238
C7AB  29 80     AND #$80                        A:00 X:FF Y:00 P:26 SP:FF CYC:4242
C7AD  F0 F9     BEQ $C7A8                       A:00 X:FF Y:00 P:26 SP:FF CYC:4244
C7A8  AD 02 20  LDA $2002 = 00                  A:00 X:FF Y:00 P:26 SP:FF CYC:4247
C7AB  29 80     AND #$80                        A:00 X:FF Y:00 P:26 SP:FF CYC:4251
C7AD  F0 F9     BEQ $C7A8                       A:00 X:FF Y:00 P:26 SP:FF CYC:4253
C7A8  AD 02 20  LDA $2002 = 00                  A:00 X:FF Y:00 P:26 SP:FF CYC:4256
C7AB  29 80     AND #$80                        A:00 X:FF Y:00 P:26 SP:FF CYC:4260
C7AD  F0 F9     BEQ $C7A8                       A:00 X:FF Y:00 P:26 SP:FF CYC:4262
C7A8  AD 02 20  LDA $2002 = 00                  A:00 X:FF Y:00 P:26 SP:FF CYC:4265
C7AB  29 80     AND #$80                        A:00 X:FF Y:00 P:26 SP:FF CYC:4269
C7AD  F0 F9     BEQ $C7A8                       A:00 X:FF Y:00 P:26 SP:FF CYC:4271
C7A8  AD 02 20  LDA $2002 = 00                  A:00 X:FF Y:00 P:26 SP:FF CYC:4274
C7AB  29 80     AND #$80                        A:00 X:FF Y:00 P:26 SP:FF CYC:4278
C7AD  F0 F9     BEQ $C7A8                       A:00 X:FF Y:00 P:26 SP:FF CYC:4280
C7A8  AD 02 20  LDA $2002 = 00                  A:00 X:FF Y:00 P:26 SP:FF CYC:4283
C7AB  29 80     AND #$80                        A:00 X:FF Y:00 P:26 SP:FF CYC:4287
C7AD  F0 F9     BEQ $C7A8                       A:00 X:FF Y:00 P:26 SP:FF CYC:4289
C7A8  AD 02 20  LDA $2002 = 00                  A:00 X:FF Y:00 P:26 SP:FF CYC:4292
C7AB  29 80     AND #$80                        A:00 X:FF Y:00 P:26 SP:FF CYC:4296
C7AD  F0 F9     BEQ $C7A8                       A:00 X:FF Y:00 P:26 SP:FF CYC:4298
C7A8  AD 02 20  LDA $2002 = 00                  A:00 X:FF Y:00 P:26 SP:FF CYC:4301
C7AB  29 80     AND #$80                        A:00 X:FF Y:00 P:26 SP:FF CYC:4305
C7AD  F0 F9     BEQ $C7A8                       A:00 X:FF Y:00 P:26 SP:FF CYC:4307
C7A8  AD 02 20  LDA $2002 = 00                  A:00 X:FF Y:00 P:26 SP:FF CYC:4310
C7AB  29 80     AND #$80                        A:00 X:FF Y:00 P:26 SP:FF CYC:4314
C7AD  F0 F9     BEQ $C7A8                       A:00 X:FF Y:00 P:26 SP:FF CYC:4316
C7A8  AD 02 20  LDA $2002 = 00                  A:00 X:FF Y:00 P:26 SP:FF CYC:4319
C7AB  29 80     AND #$80                        A:00 X:FF Y:00 P:26 SP:FF CYC:4323
C7AD  F0 F9     BEQ $C7A8                       A:00 X:FF Y:00 P:26 SP:FF CYC:4325
C7A8  AD 02 20  LDA $2002 = 00                  A:00 X:FF Y:00 P:26 SP:FF CYC:4328
C7AB  29 80     AND #$80                        A:00 X:FF Y:00 P:26 SP:FF CYC:4332
C7AD  F0 F9     BEQ $C7A8                       A:00 X:FF Y:00 P:26 SP:FF CYC:4334
C7A8  AD 02 20  LDA $2002 = 00                  A:00 X:FF Y:00 P:26 SP:FF CYC:4337
C7AB  29 80     AND #$80                        A:00 X:FF Y:00 P:26 SP:FF CYC:4341
C7AD  F0 F9     BEQ $C7A8                       A:00 X:FF Y:00 P:26 SP:FF CYC:4343
C7A8  AD 02 20  LDA $2002 = 00                  A:00 X:FF Y:00 P:26 SP:FF CYC:4346
C7AB  29 80     AND #$80                        A:00 X:FF Y:00 P:26 SP:FF CYC:4350
C7AD  F0 F9     BEQ $C7A8                       A:00 X:FF Y:00 P:26 SP:FF CYC:4352
C7A8  AD 02 20  LDA $2002 = 00                  A:00 X:FF Y:00 P:26 SP:FF CYC:4355
C7AB  29 80     AND #$80                        A:00 X:FF Y:00 P:26 SP:FF CYC:4359
C7AD  F0 F9     BEQ $C7A8                       A:00 X:FF Y:00 P:26 SP:FF CYC:4361
C7A8  AD 02 20  LDA $2002 = 00                  A:00 X:FF Y:00 P:26 SP:FF CYC:4364
C7AB  29 80     AND #$80                        A:00 X:FF Y:00 P:26 SP:FF CYC:4368
C7AD  F0 F9     BEQ $C7A8                       A:00 X:FF Y:00 P:26 SP:FF CYC:4370
C7A8  AD 02 20  LDA $2002 = 00                  A:00 X:FF Y:00 P:26 SP:FF CYC:4373
C7AB  29 80     AND #$80                        A:00 X:FF Y:00 P:26 SP:FF CYC:4377
C7AD  F0 F9     BEQ $C7A8                       A:00 X:FF Y:00 P:26 SP:FF CYC:4379
C7A8  AD 02 20  LDA $2002 = 00                  A:00 X:FF Y:00 P:26 SP:FF CYC:4382
C7AB  29 80     AND #$80                        A:00 X:FF Y:00 P:26 SP:FF CYC:4386
C7AD  F0 F9     BEQ $C7A8                       A:00 X:FF Y:00 P:26 SP:FF CYC:4388
C7A8  AD 02 20  LDA $2002 = 00                  A:00 X:FF Y:00 P:26 SP:FF CYC:4391
C7AB  29 80     AND #$80                        A:00 X:FF Y:00 P:26 SP:FF CYC:4395
C7AD  F0 F9     BEQ $C7A8                       A:00 X:FF Y:00 P:26 SP:FF CYC:4397
C7A8  AD 02 20  LDA $2002 = 00                  A:00 X:FF Y:00 P:26 SP:FF CYC:4400
C7AB  29 80     AND #$80                        A:00 X:FF Y:00 P:26 SP:FF CYC:4404
C7AD  F0 F9     BEQ $C7A8                       A:00 X:FF Y:00 P:26 SP:FF CYC:4406
C7A8  AD 02 20  LDA $2002 = 00                  A:00 X:FF Y:00 P:26 SP:FF CYC:4409
C7AB  29 80     AND #$80                        A:00 X:FF Y:00 P:26 SP:FF CYC:4413
C7AD  F0 F9     BEQ $C7A8                       A:00 X:FF Y:00 P:26 SP:FF CYC:4415
C7A8  AD 02 20  LDA $2002 = 00                  A:00 X:FF Y:00 P:26 SP:FF CYC:4418
C7AB  29 80     AND #$80                        A:00 X:FF Y:00 P:26 SP:FF CYC:4422
C7AD  F0 F9     BEQ $C7A8                       A:00 X:FF Y:00 P:26 SP:FF CYC:4424
C7A8  AD 02 20  LDA $2002 = 00                  A:00 X:FF Y:00 P:26 SP:FF CYC:4427
C7AB  29 80     AND #$80                        A:00 X:FF Y:00 P:26 SP:FF CYC:4431
C7AD  F0 F9     BEQ $C7A8                       A:00 X:FF Y:00 P:26 SP:FF CYC:4433
C7A8  AD 02 20  LDA $2002 = 00                  A:00 X:FF Y:00 P:26 SP:FF CYC:4436
C7AB  29 80     AND #$80                        A:00 X:FF Y:00 P:26 SP:FF CYC:4440
C7AD  F0 F9     BEQ $C7A8                       A:00 X:FF Y:00 P:26 SP:FF CYC:4442
C7A8  AD 02 20  LDA $2002 = 00                  A:00 X:FF Y:00 P:26 SP:FF CYC:4445
C7AB  29 80     AND #$80                        A:00 X:FF Y:00 P:26 SP:FF CYC:4449
C7AD  F0 F9     BEQ $C7A8                       A:00 X:FF Y:00 P:26 SP:FF CYC:4451
C7A8  AD 02 20  LDA $2002 = 00                  A:00 X:FF Y:00 P:26 SP:FF CYC:4454
C7AB  29 80     AND #$80                        A:00 X:FF Y:00 P:26 SP:FF CYC:4458
C7AD  F0 F9     BEQ $C7A8                       A:00 X:FF Y:00 P:26 SP:FF CYC:4460
C7A8  AD 02 20  LDA $2002 = 00                  A:00 X:FF Y:00 P:26 SP:FF CYC:4463
C7AB  29 80     AND #$80                        A:00 X:FF Y:00 P:26 SP:FF CYC:4467
C7AD  F0 F9     BEQ $C7A8                       A:00 X:FF Y:00 P:26 SP:FF CYC:4469
C7A8  AD 02 20  LDA $2002 = 00                  A:00 X:FF Y:00 P:26 SP:FF CYC:4472
C7AB  29 80     AND #$80                        A:00 X:FF Y:00 P:26 SP:FF CYC:4476
C7AD  F0 F9     BEQ $C7A8                       A:00 X:FF Y:00 P:26 SP:FF CYC:4478
C7A8  AD 02 20  LDA $2002 = 00                  A:00 X:FF Y:00 P:26 SP:FF CYC:4481
C7AB  29 80     AND #$80                        A:00 X:FF Y:00 P:26 SP:FF CYC:4485
C7AD  F0 F9     BEQ $C7A8                       A:00 X:FF Y:00 P:26 SP:FF CYC:4487
C7A8  AD 02 20  LDA $2002 = 00                  A:00 X:FF Y:00 P:26 SP:FF CYC:4490
C7AB  29 80     AND #$80                        A:00 X:FF Y:00 P:26 SP:FF CYC:4494
C7AD  F0 F9     BEQ $C7A8                       A:00 X:FF Y:00 P:26 SP:FF CYC:4496
C7A8  AD 02 20  LDA $2002 = 00                  A:00 X:FF Y:00 P:26 SP:FF CYC:4499
C7AB  29 80     AND #$80                        A:00 X:FF Y:00 P:26 SP:FF CYC:4503
C7AD  F0 F9     BEQ $C7A8                       A:00 X:FF Y:00 P:26 SP:FF CYC:4505
C7A8  AD 02 20  LDA $2002 = 00                  A:00 X:FF Y:00 P:26 SP:FF CYC:4508
C7AB  29 80     AND #$80                        A:00 X:FF Y:00 P:26 SP:FF CYC:4512
C7AD  F0 F9     BEQ $C7A8                       A:00 X:FF Y:00 P:26 SP:FF CYC:4514
C7A8  AD 02 20  LDA $2002 = 00                  A:00 X:FF Y:00 P:26 SP:FF CYC:4517
C7AB  29 80     AND #$80                        A:00 X:FF Y:00 P:26 SP:FF CYC:4521
C7AD  F0 F9     BEQ $C7A8                       A:00 X:FF Y:00 P:26 SP:FF CYC:4523
C7A8  AD 02 20  LDA $2002 = 00                  A:00 X:FF Y:00 P:26 SP:FF CYC:4526
C7AB  29 80     AND #$80                        A:00 X:FF Y:00 P:26 SP:FF CYC:4530
C7AD  F0 F9     BEQ $C7A8                       A:00 X:FF Y:00 P:26 SP:FF CYC:4532
C7A8  AD 02 20  LDA $2002 = 00                  A:00 X:FF Y:00 P:26 SP:FF CYC:4535
C7AB  29 80     AND #$80                        A:00 X:FF Y:00 P:26 SP:FF CYC:4539
C7AD  F0 F9     BEQ $C7A8                       A:00 X:FF Y:00 P:26 SP:FF CYC:4541
C7A8  AD 02 20  LDA $2002 = 00                  A:00 X:FF Y:00 P:26 SP:FF CYC:4544
C7AB  29 80     AND #$80                        A:00 X:FF Y:00 P:26 SP:FF CYC:4548
C7AD  F0 F9     BEQ $C7A8                       A:00 X:FF Y:00 P:26 SP:FF CYC:4550
C7A8  AD 02 20  LDA $2002 = 00                  A:00 X:FF Y:00 P:26 SP:FF CYC:4553
C7AB  29 80     AND #$80                        A:00 X:FF Y:00 P:26 SP:FF CYC:4557
C7AD  F0 F9     BEQ $C7A8                       A:00 X:FF Y:00 P:26 SP:FF CYC:4559
C7A8  AD 02 20  LDA $2002 = 00                  A:00 X:FF Y:00 P:26 SP:FF CYC:4562
C7AB  29 80     AND #$80                        A:00 X:FF Y:00 P:26 SP:FF CYC:4566
C7AD  F0 F9     BEQ $C7A8                       A:00 X:FF Y:00 P:26 SP:FF CYC:4568
C7A8  AD 02 20  LDA $2002 = 00                  A:00 X:FF Y:00 P:26 SP:FF CYC:4571
C7AB  29 80     AND #$80                        A:00 X:FF Y:00 P:26 SP:FF CYC:4575
C7AD  F0 F9     BEQ $C7A8                       A:00 X:FF Y:00 P:26 SP:FF CYC:4577
C7A8  AD 02 20  LDA $2002 = 00                  A:00 X:FF Y:00 P:26 SP:FF CYC:4580
C7AB  29 80     AND #$80                        A:00 X:FF Y:00 P:26 SP:FF CYC:4584
C7AD  F0 F9     BEQ $C7A8                       A:00 X:FF Y:00 P:26 SP:FF CYC:4586
C7A8  AD 02 20  LDA $2002 = 00                  A:00 X:FF Y:00 P:26 SP:FF CYC:4589
C7AB  29 80     AND #$80                        A:00 X:FF Y:00 P:26 SP:FF CYC:4593
C7AD  F0 F9     BEQ $C7A8                       A:00 X:FF Y:00 P:26 SP:FF CYC:4595
C7A8  AD 02 20  LDA $2002 = 00                  A:00 X:FF Y:00 P:26 SP:FF CYC:4598
C7AB  29 80     AND #$80                        A:00 X:FF Y:00 P:26 SP:FF CYC:4602
C7AD  F0 F9     BEQ $C7A8                       A:00 X:FF Y:00 P:26 SP:FF CYC:4604
C7A8  AD 02 20  LDA $2002 = 00                  A:00 X:FF Y:00 P:26 SP:FF CYC:4607
C7AB  29 80     AND #$80                        A:00 X:FF Y:00 P:26 SP:FF CYC:4611
C7AD  F0 F9     BEQ $C7A8                       A:00 X:FF Y:00 P:26 SP:FF CYC:4613
C7A8  AD 02 20  LDA $2002 = 00                  A:00 X:FF Y:00 P:26 SP:FF CYC:4616
C7AB  29 80     AND #$80                        A:00 X:FF Y:00 P:26 SP:FF CYC:4620
C7AD  F0 F9     BEQ $C7A8                       A:00 X:FF Y:00 P:26 SP:FF CYC:4622
C7A8  AD 02 20  LDA $2002 = 00                  A:00 X:FF Y:00 P:26 SP:FF CYC:4625
C7AB  29 80     AND #$80                        A:00 X:FF Y:00 P:26 SP:FF CYC:4629
C7AD  F0 F9     BEQ $C7A8                       A:00 X:FF Y:00 P:26 SP:FF CYC:4631
C7A8  AD 02 20  LDA $2002 = 00                  A:00 X:FF Y:00 P:26 SP:FF CYC:4634
C7AB  29 80     AND #$80                        A:00 X:FF Y:00 P:26 SP:FF CYC:4638
C7AD  F0 F9     BEQ $C7A8                       A:00 X:FF Y:00 P:26 SP:FF CYC:4640
C7A8  AD 02 20  LDA $2002 = 00                  A:00 X:FF Y:00 P:26 SP:FF CYC:4643
C7AB  29 80     AND #$80                        A:00 X:FF Y:00 P:26 SP:FF CYC:4647
C7AD  F0 F9     BEQ $C7A8                       A:00 X:FF Y:00 P:26 SP:FF CYC:4649
C7A8  AD 02 20  LDA $2002 = 00                  A:00 X:FF Y:00 P:26 SP:FF CYC:4652
C7AB  29 80     AND #$80                        A:00 X:FF Y:00 P:26 SP:FF CYC:4656
C7AD  F0 F9     BEQ $C7A8                       A:00 X:FF Y:00 P:26 SP:FF CYC:4658
C7A8  AD 02 20  LDA $2002 = 00                  A:00 X:FF Y:00 P:26 SP:FF CYC:4661
C7AB  29 80     AND #$80                        A:00 X:FF Y:00 P:26 SP:FF CYC:4665
C7AD  F0 F9     BEQ $C7A8                       A:00 X:FF Y:00 P:26 SP:FF CYC:4667
C7A8  AD 02 20  LDA $2002 = 00                  A:00 X:FF Y:00 P:26 SP:FF CYC:4670
C7AB  29 80     AND #$80                        A:00 X:FF Y:00 P:26 SP:FF CYC:4674
C7AD  F0 F9     BEQ $C7A8                       A:00 X:FF Y:00 P:26 SP:FF CYC:4676
C7A8  AD 02 20  LDA $2002 = 00                  A:00 X:FF Y:00 P:26 SP:FF CYC:4679
C7AB  29 80     AND #$80                        A:00 X:FF Y:00 P:26 SP:FF CYC:4683
C7AD  F0 F9     BEQ $C7A8                       A:00 X:FF Y:00 P:26 SP:FF CYC:4685
C7A8  AD 02 20  LDA $2002 = 00                  A:00 X:FF Y:00 P:26 SP:FF CYC:4688
C7AB  29 80     AND #$80                        A:00 X:FF Y:00 P:26 SP:FF CYC:4692
C7AD  F0 F9     BEQ $C7A8                       A:00 X:FF Y:00 P:26 SP:FF CYC:4694
C7A8  AD 02 20  LDA $2002 = 00                  A:00 X:FF Y:00 P:26 SP:FF CYC:4697
C7AB  29 80     AND #$80                        A:00 X:FF Y:00 P:26 SP:FF CYC:4701
C7AD  F0 F9     BEQ $C7A8                       A:00 X:FF Y:00 P:26 SP:FF CYC:4703
C7A8  AD 02 20  LDA $2002 = 00                  A:00 X:FF Y:00 P:26 SP:FF CYC:4706
C7AB  29 80     AND #$80                        A:00 X:FF Y:00 P:26 SP:FF CYC:4710
C7AD  F0 F9     BEQ $C7A8                       A:00 X:FF Y:00 P:26 SP:FF CYC:4712
C7A8  AD 02 20  LDA $2002 = 00                  A:00 X:FF Y:00 P:26 SP:FF CYC:4715
C7AB  29 80     AND #$80                        A:00 X:FF Y:00 P:26 SP:FF CYC:4719
C7AD  F0 F9     BEQ $C7A8                       A:00 X:FF Y:00 P:26 SP:FF CYC:4721
C7A8  AD 02 20  LDA $2002 = 00                  A:00 X:FF Y:00 P:26 SP:FF CYC:4724
C7AB  29 80     AND #$80                        A:00 X:FF Y:00 P:26 SP:FF CYC:4728
C7AD  F0 F9     BEQ $C7A8                       A:00 X:FF Y:00 P:26 SP:FF CYC:4730
C7A8  AD 02 20  LDA $2002 = 00                  A:00 X:FF Y:00 P:26 SP:FF CYC:4733
C7AB  29 80     AND #$80                        A:00 X:FF Y:00 P:26 SP:FF CYC:4737
C7AD  F0 F9     BEQ $C7A8                       A:00 X:FF Y:00 P:26 SP:FF CYC:4739
C7A8  AD 02 20  LDA $2002 = 00                  A:00 X:FF Y:00 P:26 SP:FF CYC:4742
C7AB  29 80     AND #$80                        A:00 X:FF Y:00 P:26 SP:FF CYC:4746
C7AD  F0 F9     BEQ $C7A8                       A:00 X:FF Y:00 P:26 SP:FF CYC:4748
C7A8  AD 02 20  LDA $2002 = 00                  A:00 X:FF Y:00 P:26 SP:FF CYC:4751
C7AB  29 80     AND #$80                        A:00 X:FF Y:00 P:26 SP:FF CYC:4755
C7AD  F0 F9     BEQ $C7A8                       A:00 X:FF Y:00 P:26 SP:FF CYC:4757
C7A8  AD 02 20  LDA $2002 = 00                  A:00 X:FF Y:00 P:26 SP:FF CYC:4760
C7AB  29 80     AND #$80                        A:00 X:FF Y:00 P:26 SP:FF CYC:4764
C7AD  F0 F9     BEQ $C7A8                       A:00 X:FF Y:00 P:26 SP:FF CYC:4766
C7A8  AD 02 20  LDA $2002 = 00                  A:00 X:FF Y:00 P:26 SP:FF CYC:4769
C7AB  29 80     AND #$80                        A:00 X:FF Y:00 P:26 SP:FF CYC:4773
C7AD  F0 F9     BEQ $C7A8                       A:00 X:FF Y:00 P:26 SP:FF CYC:4775
C7A8  AD 02 20  LDA $2002 = 00                  A:00 X:FF Y:00 P:26 SP:FF CYC:4778
C7AB  29 80     AND #$80                        A:00 X:FF Y:00 P:26 SP:FF CYC:4782
C7AD  F0 F9     BEQ $C7A8                       A:00 X:FF Y:00 P:26 SP:FF CYC:4784
C7A8  AD 02 20  LDA $2002 = 00                  A:00 X:FF Y:00 P:26 SP:FF CYC:4787
C7AB  29 80     AND #$80                        A:00 X:FF Y:00 P:26 SP:FF CYC:4791
C7AD  F0 F9     BEQ $C7A8                       A:00 X:FF Y:00 P:26 SP:FF CYC:4793
C7A8  AD 02 20  LDA $2002 = 00                  A:00 X:FF Y:00 P:26 SP:FF CYC:4796
C7AB  29 80     AND #$80                        A:00 X:FF Y:00 P:26 SP:FF CYC:4800
C7AD  F0 F9     BEQ $C7A8                       A:00 X:FF Y:00 P:26 SP:FF CYC:4802
C7A8  AD 02 20  LDA $2002 = 00                  A:00 X:FF Y:00 P:26 SP:FF CYC:4805
C7AB  29 80     AND #$80                        A:00 X:FF Y:00 P:26 SP:FF CYC:4809
C7AD  F0 F9     BEQ $C7A8                       A:00 X:FF Y:00 P:26 SP:FF CYC:4811
C7A8  AD 02 20  LDA $2002 = 00                  A:00 X:FF Y:00 P:26 SP:FF CYC:4814
C7AB  29 80     AND #$80                        A:00 X:FF Y:00 P:26 SP:FF CYC:4818
C7AD  F0 F9     BEQ $C7A8                       A:00 X:FF Y:00 P:26 SP:FF CYC:4820
C7A8  AD 02 20  LDA $2002 = 00                  A:00 X:FF Y:00 P:26 SP:FF CYC:4823
C7AB  29 80     AND #$80                        A:00 X:FF Y:00 P:26 SP:FF CYC:4827
C7AD  F0 F9     BEQ $C7A8                       A:00 X:FF Y:00 P:26 SP:FF CYC:4829
C7A8  AD 02 20  LDA $2002 = 00                  A:00 X:FF Y:00 P:26 SP:FF CYC:4832
C7AB  29 80     AND #$80                        A:00 X:FF Y:00 P:26 SP:FF CYC:4836
C7AD  F0 F9     BEQ $C7A8                       A:00 X:FF Y:00 P:26 SP:FF CYC:4838
C7A8  AD 02 20  LDA $2002 = 00                  A:00 X:FF Y:00 P:26 SP:FF CYC:4841
C7AB  29 80     AND #$80                        A:00 X:FF Y:00 P:26 SP:FF CYC:4845
C7AD  F0 F9     BEQ $C7A8                       A:00 X:FF Y:00 P:26 SP:FF CYC:4847
C7A8  AD 02 20  LDA $2002 = 00                  A:00 X:FF Y:00 P:26 SP:FF CYC:4850
C7AB  29 80     AND #$80                        A:00 X:FF Y:00 P:26 SP:FF CYC:4854
C7AD  F0 F9     BEQ $C7A8                       A:00 X:FF Y:00 P:26 SP:FF CYC:4856
C7A8  AD 02 20  LDA $2002 = 00                  A:00 X:FF Y:00 P:26 SP:FF CYC:4859
C7AB  29 80     AND #$80                        A:00 X:FF Y:00 P:26 SP:FF CYC:4863
C7AD  F0 F9     BEQ $C7A8                       A:00 X:FF Y:00 P:26 SP:FF CYC:4865
C7A8  AD 02 20  LDA $2002 = 00                  A:00 X:FF Y:00 P:26 SP:FF CYC:4868
C7AB  29 80     AND #$80                        A:00 X:FF Y:00 P:26 SP:FF CYC:4872
C7AD  F0 F9     BEQ $C7A8                       A:00 X:FF Y:00 P:26 SP:FF CYC:4874
C7A8  AD 02 20  LDA $2002 = 00                  A:00 X:FF Y:00 P:26 SP:FF CYC:4877
C7AB  29 80     AND #$80                        A:00 X:FF Y:00 P:26 SP:FF CYC:4881
C7AD  F0 F9     BEQ $C7A8                       A:00 X:FF Y:00 P:26 SP:FF CYC:4883
C7A8  AD 02 20  LDA $2002 = 00                  A:00 X:FF Y:00 P:26 SP:FF CYC:4886
C7AB  29 80     AND #$80                        A:00 X:FF Y:00 P:26 SP:FF CYC:4890
C7AD  F0 F9     BEQ $C7A8                       A:00 X:FF Y:00 P:26 SP:FF CYC:4892
C7A8  AD 02 20  LDA $2002 = 00                  A:00 X:FF Y:00 P:26 SP:FF CYC:4895
C7AB  29 80     AND #$80                        A:00 X:FF Y:00 P:26 SP:FF CYC:4899
C7AD  F0 F9     BEQ $C7A8                       A:00 X:FF Y:00 P:26 SP:FF CYC:4901
C7A8  AD 02 20  LDA $2002 = 00                  A:00 X:FF Y:00 P:26 SP:FF CYC:4904
C7AB  29 80     AND #$80                        A:00 X:FF Y:00 P:26 SP:FF CYC:4908
C7AD  F0 F9     BEQ $C7A8                       A:00 X:FF Y:00 P:26 SP:FF CYC:4910
C7A8  AD 02 20  LDA $2002 = 00                  A:00 X:FF Y:00 P:26 SP:FF CYC:4913
C7AB  29 80     AND #$80                        A:00 X:FF Y:00 P:26 SP:FF CYC:4917
C7AD  F0 F9     BEQ $C7A8                       A:00 X:FF Y:00 P:26 SP:FF CYC:4919
C7A8  AD 02 20  LDA $2002 = 00                  A:00 X:FF Y:00 P:26 SP:FF CYC:4922
C7AB  29 80     AND #$80                        A:00 X:FF Y:00 P:26 SP:FF CYC:4926
C7AD  F0 F9     BEQ $C7A8                       A:00 X:FF Y:00 P:26 SP:FF CYC:4928
C7A8  AD 02 20  LDA $2002 = 00                  A:00 X:FF Y:00 P:26 SP:FF CYC:4931
C7AB  29 80     AND #$80                        A:00 X:FF Y:00 P:26 SP:FF CYC:4935
C7AD  F0 F9     BEQ $C7A8                       A:00 X:FF Y:00 P:26 SP:FF CYC:4937
C7A8  AD 02 20  LDA $2002 = 00                  A:00 X:FF Y:00 P:26 SP:FF CYC:4940
C7AB  29 80     AND #$80                        A:00 X:FF Y:00 P:26 SP:FF CYC:4944
C7AD  F0 F9     BEQ $C7A8                       A:00 X:FF Y:00 P:26 SP:FF CYC:4946
C7A8  AD 02 20  LDA $2002 = 00                  A:00 X:FF Y:00 P:26 SP:FF CYC:4949
C7AB  29 80     AND #$80                        A:00 X:FF Y:00 P:26 SP:FF CYC:4953
C7AD  F0 F9     BEQ $C7A8                       A:00 X:FF Y:00 P:26 SP:FF CYC:4955
C7A8  AD 02 20  LDA $2002 = 00                  A:00 X:FF Y:00 P:26 SP:FF CYC:4958
C7AB  29 80     AND #$80                        A:00 X:FF Y:00 P:26 SP:FF CYC:4962
C7AD  F0 F9     BEQ $C7A8                       A:00 X:FF Y:00 P:26 SP:FF CYC:4964
C7A8  AD 02 20  LDA $2002 = 00                  A:00 X:FF Y:00 P:26 SP:FF CYC:4967
C7AB  29 80     AND #$80                        A:00 X:FF Y:00 P:26 SP:FF CYC:4971
C7AD  F0 F9     BEQ $C7A8                       A:00 X:FF Y:00 P:26 SP:FF CYC:4973
C7A8  AD 02 20  LDA $2002 = 00                  A:00 X:FF Y:00 P:26 SP:FF CYC:4976
C7AB  29 80     AND #$80                        A:00 X:FF Y:00 P:26 SP:FF CYC:4980
C7AD  F0 F9     BEQ $C7A8                       A:00 X:FF Y:00 P:26 SP:FF CYC:4982
C7A8  AD 02 20  LDA $2002 = 00                  A:00 X:FF Y:00 P:26 SP:FF CYC:4985
C7AB  29 80     AND #$80                        A:00 X:FF Y:00 P:26 SP:FF CYC:4989
C7AD  F0 F9     BEQ $C7A8                       A:00 X:FF Y:00 P:26 SP:FF CYC:4991
C7A8  AD 02 20  LDA $2002 = 00                  A:00 X:FF Y:00 P:26 SP:FF CYC:4994
C7AB  29 80     AND #$80                        A:00 X:FF Y:00 P:26 SP:FF CYC:4998
C7AD  F0 F9     BEQ $C7A8                       A:00 X:FF Y:00 P:26 SP:FF CYC:5000
C7A8  AD 02 20  LDA $2002 = 00                  A:00 X:FF Y:00 P:26 SP:FF CYC:5003
C7AB  29 80     AND #$80                        A:00 X:FF Y:00 P:26 SP:FF CYC:5007
C7AD  F0 F9     BEQ $C7A8                       A:00 X:FF Y:00 P:26 SP:FF CYC:5009
C7A8  AD 02 20  LDA $2002 = 00                  A:00 X:FF Y:00 P:26 SP:FF CYC:5012
C7AB  29 80     AND #$80                        A:00 X:FF Y:00 P:26 SP:FF CYC:5016
C7AD  F0 F9     BEQ $C7A8                       A:00 X:FF Y:00 P:26 SP:FF CYC:5018
C7A8  AD 02 20  LDA $2002 = 00                  A:00 X:FF Y:00 P:26 SP:FF CYC:5021
C7AB  29 80     AND #$80                        A:00 X:FF Y:00 P:26 SP:FF CYC:5025
C7AD  F0 F9     BEQ $C7A8                       A:00 X:FF Y:00 P:26 SP:FF CYC:5027
C7A8  AD 02 20  LDA $2002 = 00                  A:00 X:FF Y:00 P:26 SP:FF CYC:5030
C7AB  29 80     AND #$80                        A:00 X:FF Y:00 P:26 SP:FF CYC:5034
C7AD  F0 F9     BEQ $C7A8                       A:00 X:FF Y:00 P:26 SP:FF CYC:5036
C7A8  AD 02 20  LDA $2002 = 00                  A:00 X:FF Y:00 P:26 SP:FF CYC:5039
C7AB  29 80     AND #$80                        A:00 X:FF Y:00 P:26 SP:FF CYC:5043
C7AD  F0 F9     BEQ $C7A8                       A:00 X:FF Y:00 P:26 SP:FF CYC:5045
C7A8  AD 02 20  LDA $2002 = 00                  A:00 X:FF Y:00 P:26 SP:FF CYC:5048
C7AB  29 80     AND #$80                        A:00 X:FF Y:00 P:26 SP:FF CYC:5052
C7AD  F0 F9     BEQ $C7A8                       A:00 X:FF Y:00 P:26 SP:FF CYC:5054
C7A8  AD 02 20  LDA $2002 = 00                  A:00 X:FF Y:00 P:26 SP:FF CYC:5057
C7AB  29 80     AND #$80                        A:00 X:FF Y:00 P:26 SP:FF CYC:5061
C7AD  F0 F9     BEQ $C7A8                       A:00 X:FF Y:00 P:26 SP:FF CYC:5063
C7A8  AD 02 20  LDA $2002 = 00                  A:00 X:FF Y:00 P:26 SP:FF CYC:5066
C7AB  29 80     AND #$80                        A:00 X:FF Y:00 P:26 SP:FF CYC:5070
C7AD  F0 F9     BEQ $C7A8                       A:00 X:FF Y:00 P:26 SP:FF CYC:5072
C7A8  AD 02 20  LDA $2002 = 00                  A:00 X:FF Y:00 P:26 SP:FF CYC:5075
C7AB  29 80     AND #$80                        A:00 X:FF Y:00 P:26 SP:FF CYC:5079
C7AD  F0 F9     BEQ $C7A8                       A:00 X:FF Y:00 P:26 SP:FF CYC:5081
C7A8  AD 02 20  LDA $2002 = 00                  A:00 X:FF Y:00 P:26 SP:FF CYC:5084
C7AB  29 80     AND #$80                        A:00 X:FF Y:00 P:26 SP:FF CYC:5088
C7AD  F0 F9     BEQ $C7A8                       A:00 X:FF Y:00 P:26 SP:FF CYC:5090
C7A8  AD 02 20  LDA $2002 = 00                  A:00 X:FF Y:00 P:26 SP:FF CYC:5093
C7AB  29 80     AND #$80                        A:00 X:FF Y:00 P:26 SP:FF CYC:5097
C7AD  F0 F9     BEQ $C7A8                       A:00 X:FF Y:00 P:26 SP:FF CYC:5099
C7A8  AD 02 20  LDA $2002 = 00                  A:00 X:FF Y:00 P:26 SP:FF CYC:5102
C7AB  29 80     AND #$80                        A:00 X:FF Y:00 P:26 SP:FF CYC:5106
C7AD  F0 F9     BEQ $C7A8                       A:00 X:FF Y:00 P:26 SP:FF CYC:5108
C7A8  AD 02 20  LDA $2002 = 00                  A:00 X:FF Y:00 P:26 SP:FF CYC:5111
C7AB  29 80     AND #$80                        A:00 X:FF Y:00 P:26 SP:FF CYC:5115
C7AD  F0 F9     BEQ $C7A8                       A:00 X:FF Y:00 P:26 SP:FF CYC:5117
C7A8  AD 02 20  LDA $2002 = 00                  A:00 X:FF Y:00 P:26 SP:FF CYC:5120
C7AB  29 80     AND #$80                        A:00 X:FF Y:00 P:26 SP:FF CYC:5124
C7AD  F0 F9     BEQ $C7A8                       A:00 X:FF Y:00 P:26 SP:FF CYC:5126
C7A8  AD 02 20  LDA $2002 = 00                  A:00 X:FF Y:00 P:26 SP:FF CYC:5129
C7AB  29 80     AND #$80                        A:00 X:FF Y:00 P:26 SP:FF CYC:5133
C7AD  F0 F9     BEQ $C7A8                       A:00 X:FF Y:00 P:26 SP:FF CYC:5135
C7A8  AD 02 20  LDA $2002 = 00                  A:00 X:FF Y:00 P:26 SP:FF CYC:5138
C7AB  29 80     AND #$80                        A:00 X:FF Y:00 P:26 SP:FF CYC:5142
C7AD  F0 F9     BEQ $C7A8                       A:00 X:FF Y:00 P:26 SP:FF CYC:5144
C7A8  AD 02 20  LDA $2002 = 00                  A:00 X:FF Y:00 P:26 SP:FF CYC:5147
C7AB  29 80     AND #$80                        A:00 X:FF Y:00 P:26 SP:FF CYC:5151
C7AD  F0 F9     BEQ $C7A8                       A:00 X:FF Y:00 P:26 SP:FF CYC:5153
C7A8  AD 02 20  LDA $2002 = 00                  A:00 X:FF Y:00 P:26 SP:FF CYC:5156
C7AB  29 80     AND #$80                        A:00 X:FF Y:00 P:26 SP:FF CYC:5160
C7AD  F0 F9     BEQ $C7A8                       A:00 X:FF Y:00 P:26 SP:FF CYC:5162
C7A8  AD 02 20  LDA $2002 = 00                  A:00 X:FF Y:00 P:26 SP:FF CYC:5165
C7AB  29 80     AND #$80                        A:00 X:FF Y:00 P:26 SP:FF CYC:5169
C7AD  F0 F9     BEQ $C7A8                       A:00 X:FF Y:00 P:26 SP:FF CYC:5171
C7A8  AD 02 20  LDA $2002 = 00                  A:00 X:FF Y:00 P:26 SP:FF CYC:5174
C7AB  29 80     AND #$80                        A:00 X:FF Y:00 P:26 SP:FF CYC:5178
C7AD  F0 F9     BEQ $C7A8                       A:00 X:FF Y:00 P:26 SP:FF CYC:5180
C7A8  AD 02 20  LDA $2002 = 00                  A:00 X:FF Y:00 P:26 SP:FF CYC:5183
C7AB  29 80     AND #$80                        A:00 X:FF Y:00 P:26 SP:FF CYC:5187
C7AD  F0 F9     BEQ $C7A8                       A:00 X:FF Y:00 P:26 SP:FF CYC:5189
C7A8  AD 02 20  LDA $2002 = 00                  A:00 X:FF Y:00 P:26 SP:FF CYC:5192
C7AB  29 80     AND #$80                        A:00 X:FF Y:00 P:26 SP:FF CYC:5196
C7AD  F0 F9     BEQ $C7A8                       A:00 X:FF Y:00 P:26 SP:FF CYC:5198
C7A8  AD 02 20  LDA $2002 = 00                  A:00 X:FF Y:00 P:26 SP:FF CYC:5201
C7AB  29 80     AND #$80                        A:00 X:FF Y:00 P:26 SP:FF CYC:5205
C7AD  F0 F9     BEQ $C7A8                       A:00 X:FF Y:00 P:26 SP:FF CYC:5207
C7A8  AD 02 20  LDA $2002 = 00                  A:00 X:FF Y:00 P:26 SP:FF CYC:5210
C7AB  29 80     AND #$80                        A:00 X:FF Y:00 P:26 SP:FF CYC:5214
C7AD  F0 F9     BEQ $C7A8                       A:00 X:FF Y:00 P:26 SP:FF CYC:5216
C7A8  AD 02 20  LDA $2002 = 00                  A:00 X:FF Y:00 P:26 SP:FF CYC:5219
C7AB  29 80     AND #$80                        A:00 X:FF Y:00 P:26 SP:FF CYC:5223
C7AD  F0 F9     BEQ $C7A8                       A:00 X:FF Y:00 P:26 SP:FF CYC:5225
C7A8  AD 02 20  LDA $2002 = 00                  A:00 X:FF Y:00 P:26 SP:FF CYC:5228
C7AB  29 80     AND #$80                        A:00 X:FF Y:00 P:26 SP:FF CYC:5232
C7AD  F0 F9     BEQ $C7A8                       A:00 X:FF Y:00 P:26 SP:FF CYC:5234
C7A8  AD 02 20  LDA $2002 = 00                  A:00 X:FF Y:00 P:26 SP:FF CYC:5237
C7AB  29 80     AND #$80                        A:00 X:FF Y:00 P:26 SP:FF CYC:5241
C7AD  F0 F9     BEQ $C7A8                       A:00 X:FF Y:00 P:26 SP:FF CYC:5243
C7A8  AD 02 20  LDA $2002 = 00                  A:00 X:FF Y:00 P:26 SP:FF CYC:5246
C7AB  29 80     AND #$80                        A:00 X:FF Y:00 P:26 SP:FF CYC:5250
C7AD  F0 F9     BEQ $C7A8                       A:00 X:FF Y:00 P:26 SP:FF CYC:5252
C7A8  AD 02 20  LDA $2002 = 00                  A:00 X:FF Y:00 P:26 SP:FF CYC:5255
C7AB  29 80     AND #$80                        A:00 X:FF Y:00 P:26 SP:FF CYC:5259
C7AD  F0 F9     BEQ $C7A8                       A:00 X:FF Y:00 P:26 SP:FF CYC:5261
C7A8  AD 02 20  LDA $2002 = 00                  A:00 X:FF Y:00 P:26 SP:FF CYC:5264
C7AB  29 80     AND #$80                        A:00 X:FF Y:00 P:26 SP:FF CYC:5268
C7AD  F0 F9     BEQ $C7A8                       A:00 X:FF Y:00 P:26 SP:FF CYC:5270
C7A8  AD 02 20  LDA $2002 = 00                  A:00 X:FF Y:00 P:26 SP:FF CYC:5273
C7AB  29 80     AND #$80                        A:00 X:FF Y:00 P:26 SP:FF CYC:5277
C7AD  F0 F9     BEQ $C7A8                       A:00 X:FF Y:00 P:26 SP:FF CYC:5279
C7A8  AD 02 20  LDA $2002 = 00                  A:00 X:FF Y:00 P:26 SP:FF CYC:5282
C7AB  29 80     AND #$80                        A:00 X:FF Y:00 P:26 SP:FF CYC:5286
C7AD  F0 F9     BEQ $C7A8                       A:00 X:FF Y:00 P:26 SP:FF CYC:5288
C7A8  AD 02 20  LDA $2002 = 00                  A:00 X:FF Y:00 P:26 SP:FF CYC:5291
C7AB  29 80     AND #$80                        A:00 X:FF Y:00 P:26 SP:FF CYC:5295
C7AD  F0 F9     BEQ $C7A8                       A:00 X:FF Y:00 P:26 SP:FF CYC:5297
C7A8  AD 02 20  LDA $2002 = 00                  A:00 X:FF Y:00 P:26 SP:FF CYC:5300
C7AB  29 80     AND #$80                        A:00 X:FF Y:00 P:26 SP:FF CYC:5304
C7AD  F0 F9     BEQ $C7A8                       A:00 X:FF Y:00 P:26 SP:FF CYC:5306
C7A8  AD 02 20  LDA $2002 = 00                  A:00 X:FF Y:00 P:26 SP:FF CYC:5309
C7AB  29 80     AND #$80                        A:00 X:FF Y:00 P:26 SP:FF CYC:5313
C7AD  F0 F9     BEQ $C7A8                       A:00 X:FF Y:00 P:26 SP:FF CYC:5315
C7A8  AD 02 20  LDA $2002 = 00                  A:00 X:FF Y:00 P:26 SP:FF CYC:5318
C7AB  29 80     AND #$80                        A:00 X:FF Y:00 P:26 SP:FF CYC:5322
C7AD  F0 F9     BEQ $C7A8                       A:00 X:FF Y:00 P:26 SP:FF CYC:5324
C7A8  AD 02 20  LDA $2002 = 00                  A:00 X:FF Y:00 P:26 SP:FF CYC:5327
C7AB  29 80     AND #$80                        A:00 X:FF Y:00 P:26 SP:FF CYC:5331
C7AD  F0 F9     BEQ $C7A8                       A:00 X:FF Y:00 P:26 SP:FF CYC:5333
C7A8  AD 02 20  LDA $2002 = 00                  A:00 X:FF Y:00 P:26 SP:FF CYC:5336
C7AB  29 80     AND #$80                        A:00 X:FF Y:00 P:26 SP:FF CYC:5340
C7AD  F0 F9     BEQ $C7A8                       A:00 X:FF Y:00 P:26 SP:FF CYC:5342
C7A8  AD 02 20  LDA $2002 = 00                  A:00 X:FF Y:00 P:26 SP:FF CYC:5345
C7AB  29 80     AND #$80                        A:00 X:FF Y:00 P:26 SP:FF CYC:5349
C7AD  F0 F9     BEQ $C7A8                       A:00 X:FF Y:00 P:26 SP:FF CYC:5351
C7A8  AD 02 20  LDA $2002 = 00                  A:00 X:FF Y:00 P:26 SP:FF CYC:5354
C7AB  29 80     AND #$80                        A:00 X:FF Y:00 P:26 SP:FF CYC:5358
C7AD  F0 F9     BEQ $C7A8                       A:00 X:FF Y:00 P:26 SP:FF CYC:5360
C7A8  AD 02 20  LDA $2002 = 00                  A:00 X:FF Y:00 P:26 SP:FF CYC:5363
C7AB  29 80     AND #$80                        A:00 X:FF Y:00 P:26 SP:FF CYC:5367
C7AD  F0 F9     BEQ $C7A8                       A:00 X:FF Y:00 P:26 SP:FF CYC:5369
C7A8  AD 02 20  LDA $2002 = 00                  A:00 X:FF Y:00 P:26 SP:FF CYC:5372
C7AB  29 80     AND #$80                        A:00 X:FF Y:00 P:26 SP:FF CYC:5376
C7AD  F0 F9     BEQ $C7A8                       A:00 X:FF Y:00 P:26 SP:FF CYC:5378
C7A8  AD 02 20  LDA $2002 = 00                  A:00 X:FF Y:00 P:26 SP:FF CYC:5381
C7AB  29 80     AND #$80                        A:00 X:FF Y:00 P:26 SP:FF CYC:5385
C7AD  F0 F9     BEQ $C7A8                       A:00 X:FF Y:00 P:26 SP:FF CYC:5387
C7A8  AD 02 20  LDA $2002 = 00                  A:00 X:FF Y:00 P:26 SP:FF CYC:5390
C7AB  29 80     AND #$80                        A:00 X:FF Y:00 P:26 SP:FF CYC:5394
C7AD  F0 F9     BEQ $C7A8                       A:00 X:FF Y:00 P:26 SP:FF CYC:5396
C7A8  AD 02 20  LDA $2002 = 00                  A:00 X:FF Y:00 P:26 SP:FF CYC:5399
C7AB  29 80     AND #$80                        A:00 X:FF Y:00 P:26 SP:FF CYC:5403
C7AD  F0 F9     BEQ $C7A8                       A:00 X:FF Y:00 P:26 SP:FF CYC:5405
C7A8  AD 02 20  LDA $2002 = 00                  A:00 X:FF Y:00 P:26 SP:FF CYC:5408
C7AB  29 80     AND #$80                        A:00 X:FF Y:00 P:26 SP:FF CYC:5412
C7AD  F0 F9     BEQ $C7A8                       A:00 X:FF Y:00 P:26 SP:FF CYC:5414
C7A8  AD 02 20  LDA $2002 = 00                  A:00 X:FF Y:00 P:26 SP:FF CYC:5417
C7AB  29 80     AND #$80                        A:00 X:FF Y:00 P:26 SP:FF CYC:5421
C7AD  F0 F9     BEQ $C7A8                       A:00 X:FF Y:00 P:26 SP:FF CYC:5423
C7A8  AD 02 20  LDA $2002 = 00                  A:00 X:FF Y:00 P:26 SP:FF CYC:5426
C7AB  29 80     AND #$80                        A:00 X:FF Y:00 P:26 SP:FF CYC:5430
C7AD  F0 F9     BEQ $C7A8                       A:00 X:FF Y:00 P:26 SP:FF CYC:5432
C7A8  AD 02 20  LDA $2002 = 00                  A:00 X:FF Y:00 P:26 SP:FF CYC:5435
C7AB  29 80     AND #$80                        A:00 X:FF Y:00 P:26 SP:FF CYC:5439
C7AD  F0 F9     BEQ $C7A8                       A:00 X:FF Y:00 P:26 SP:FF CYC:5441
C7A8  AD 02 20  LDA $2002 = 00                  A:00 X:FF Y:00 P:26 SP:FF CYC:5444
C7AB  29 80     AND #$80                        A:00 X:FF Y:00 P:26 SP:FF CYC:5448
C7AD  F0 F9     BEQ $C7A8                       A:00 X:FF Y:00 P:26 SP:FF CYC:5450
C7A8  AD 02 20  LDA $2002 = 00                  A:00 X:FF Y:00 P:26 SP:FF CYC:5453
C7AB  29 80     AND #$80                        A:00 X:FF Y:00 P:26 SP:FF CYC:5457
C7AD  F0 F9     BEQ $C7A8                       A:00 X:FF Y:00 P:26 SP:FF CYC:5459
C7A8  AD 02 20  LDA $2002 = 00                  A:00 X:FF Y:00 P:26 SP:FF CYC:5462
C7AB  29 80     AND #$80                        A:00 X:FF Y:00 P:26 SP:FF CYC:5466
C7AD  F0 F9     BEQ $C7A8                       A:00 X:FF Y:00 P:26 SP:FF CYC:5468
C7A8  AD 02 20  LDA $2002 = 00                  A:00 X:FF Y:00 P:26 SP:FF CYC:5471
C7AB  29 80     AND #$80                        A:00 X:FF Y:00 P:26 SP:FF CYC:5475
C7AD  F0 F9     BEQ $C7A8                       A:00 X:FF Y:00 P:26 SP:FF CYC:5477
C7A8  AD 02 20  LDA $2002 = 00                  A:00 X:FF Y:00 P:26 SP:FF CYC:5480
C7AB  29 80     AND #$80                        A:00 X:FF Y:00 P:26 SP:FF CYC:5484
C7AD  F0 F9     BEQ $C7A8                       A:00 X:FF Y:00 P:26 SP:FF CYC:5486
C7A8  AD 02 20  LDA $2002 = 00                  A:00 X:FF Y:00 P:26 SP:FF CYC:5489
C7AB  29 80     AND #$80                        A:00 X:FF Y:00 P:26 SP:FF CYC:5493
C7AD  F0 F9     BEQ $C7A8                       A:00 X:FF Y:00 P:26 SP:FF CYC:5495
C7A8  AD 02 20  LDA $2002 = 00                  A:00 X:FF Y:00 P:26 SP:FF CYC:5498
C7AB  29 80     AND #$80                        A:00 X:FF Y:00 P:26 SP:FF CYC:5502
C7AD  F0 F9     BEQ $C7A8                       A:00 X:FF Y:00 P:26 SP:FF CYC:5504
C7A8  AD 02 20  LDA $2002 = 00                  A:00 X:FF Y:00 P:26 SP:FF CYC:5507
C7AB  29 80     AND #$80                        A:00 X:FF Y:00 P:26 SP:FF CYC:5511
C7AD  F0 F9     BEQ $C7A8                       A:00 X:FF Y:00 P:26 SP:FF CYC:5513
C7A8  AD 02 20  LDA $2002 = 00                  A:00 X:FF Y:00 P:26 SP:FF CYC:5516
C7AB  29 80     AND #$80                        A:00 X:FF Y:00 P:26 SP:FF CYC:5520
C7AD  F0 F9     BEQ $C7A8                       A:00 X:FF Y:00 P:26 SP:FF CYC:5522
C7A8  AD 02 20  LDA $2002 = 00                  A:00 X:FF Y:00 P:26 SP:FF CYC:5525
C7AB  29 80     AND #$80                        A:00 X:FF Y:00 P:26 SP:FF CYC:5529
C7AD  F0 F9     BEQ $C7A8                       A:00 X:FF Y:00 P:26 SP:FF CYC:5531
C7A8  AD 02 20  LDA $2002 = 00                  A:00 X:FF Y:00 P:26 SP:FF CYC:5534
C7AB  29 80     AND #$80                        A:00 X:FF Y:00 P:26 SP:FF CYC:5538
C7AD  F0 F9     BEQ $C7A8                       A:00 X:FF Y:00 P:26 SP:FF CYC:5540
C7A8  AD 02 20  LDA $2002 = 00                  A:00 X:FF Y:00 P:26 SP:FF CYC:5543
C7AB  29 80     AND #$80                        A:00 X:FF Y:00 P:26 SP:FF CYC:5547
C7AD  F0 F9     BEQ $C7A8                       A:00 X:FF Y:00 P:26 SP:FF CYC:5549
C7A8  AD 02 20  LDA $2002 = 00                  A:00 X:FF Y:00 P:26 SP:FF CYC:5552
C7AB  29 80     AND #$80                        A:00 X:FF Y:00 P:26 SP:FF CYC:5556
C7AD  F0 F9     BEQ $C7A8                       A:00 X:FF Y:00 P:26 SP:FF CYC:5558
C7A8  AD 02 20  LDA $2002 = 00                  A:00 X:FF Y:00 P:26 SP:FF CYC:5561
C7AB  29 80     AND #$80                        A:00 X:FF Y:00 P:26 SP:FF CYC:5565
C7AD  F0 F9     BEQ $C7A8                       A:00 X:FF Y:00 P:26 SP:FF CYC:5567
C7A8  AD 02 20  LDA $2002 = 00                  A:00 X:FF Y:00 P:26 SP:FF CYC:5570
C7AB  29 80     AND #$80                        A:00 X:FF Y:00 P:26 SP:FF CYC:5574
C7AD  F0 F9     BEQ $C7A8                       A:00 X:FF Y:00 P:26 SP:FF CYC:5576
C7A8  AD 02 20  LDA $2002 = 00                  A:00 X:FF Y:00 P:26 SP:FF CYC:5579
C7AB  29 80     AND #$80                        A:00 X:FF Y:00 P:26 SP:FF CYC:5583
C7AD  F0 F9     BEQ $C7A8                       A:00 X:FF Y:00 P:26 SP:FF CYC:5585
C7A8  AD 02 20  LDA $2002 = 00                  A:00 X:FF Y:00 P:26 SP:FF CYC:5588
C7AB  29 80     AND #$80                        A:00 X:FF Y:00 P:26 SP:FF CYC:5592
C7AD  F0 F9     BEQ $C7A8                       A:00 X:FF Y:00 P:26 SP:FF CYC:5594
C7A8  AD 02 20  LDA $2002 = 00                  A:00 X:FF Y:00 P:26 SP:FF CYC:5597
C7AB  29 80     AND #$80                        A:00 X:FF Y:00 P:26 SP:FF CYC:5601
C7AD  F0 F9     BEQ $C7A8                       A:00 X:FF Y:00 P:26 SP:FF CYC:5603
C7A8  AD 02 20  LDA $2002 = 00                  A:00 X:FF Y:00 P:26 SP:FF CYC:5606
C7AB  29 80     AND #$80                        A:00 X:FF Y:00 P:26 SP:FF CYC:5610
C7AD  F0 F9     BEQ $C7A8                       A:00 X:FF Y:00 P:26 SP:FF CYC:5612
C7A8  AD 02 20  LDA $2002 = 00                  A:00 X:FF Y:00 P:26 SP:FF CYC:5615
C7AB  29 80     AND #$80                        A:00 X:FF Y:00 P:26 SP:FF CYC:5619
C7AD  F0 F9     BEQ $C7A8                       A:00 X:FF Y:00 P:26 SP:FF CYC:5621
C7A8  AD 02 20  LDA $2002 = 00                  A:00 X:FF Y:00 P:26 SP:FF CYC:5624
C7AB  29 80     AND #$80                        A:00 X:FF Y:00 P:26 SP:FF CYC:5628
C7AD  F0 F9     BEQ $C7A8                       A:00 X:FF Y:00 P:26 SP:FF CYC:5630
C7A8  AD 02 20  LDA $2002 = 00                  A:00 X:FF Y:00 P:26 SP:FF CYC:5633
C7AB  29 80     AND #$80                        A:00 X:FF Y:00 P:26 SP:FF CYC:5637
C7AD  F0 F9     BEQ $C7A8                       A:00 X:FF Y:00 P:26 SP:FF CYC:5639
C7A8  AD 02 20  LDA $2002 = 00                  A:00 X:FF Y:00 P:26 SP:FF CYC:5642
C7AB  29 80     AND #$80                        A:00 X:FF Y:00 P:26 SP:FF CYC:5646
C7AD  F0 F9     BEQ $C7A8                       A:00 X:FF Y:00 P:26 SP:FF CYC:5648
C7A8  AD 02 20  LDA $2002 = 00                  A:00 X:FF Y:00 P:26 SP:FF CYC:5651
C7AB  29 80     AND #$80                        A:00 X:FF Y:00 P:26 SP:FF CYC:5655
C7AD  F0 F9     BEQ $C7A8                       A:00 X:FF Y:00 P:26 SP:FF CYC:5657
C7A8  AD 02 20  LDA $2002 = 00                  A:00 X:FF Y:00 P:26 SP:FF CYC:5660
C7AB  29 80     AND #$80                        A:00 X:FF Y:00 P:26 SP:FF CYC:5664
C7AD  F0 F9     BEQ $C7A8                       A:00 X:FF Y:00 P:26 SP:FF CYC:5666
C7A8  AD 02 20  LDA $2002 = 00                  A:00 X:FF Y:00 P:26 SP:FF CYC:5669
C7AB  29 80     AND #$80                        A:00 X:FF Y:00 P:26 SP:FF CYC:5673
C7AD  F0 F9     BEQ $C7A8                       A:00 X:FF Y:00 P:26 SP:FF CYC:5675
C7A8  AD 02 20  LDA $2002 = 00                  A:00 X:FF Y:00 P:26 SP:FF CYC:5678
C7AB  29 80     AND #$80                        A:00 X:FF Y:00 P:26 SP:FF CYC:5682
C7AD  F0 F9     BEQ $C7A8                       A:00 X:FF Y:00 P:26 SP:FF CYC:5684
C7A8  AD 02 20  LDA $2002 = 00                  A:00 X:FF Y:00 P:26 SP:FF CYC:5687
C7AB  29 80     AND #$80                        A:00 X:FF Y:00 P:26 SP:FF CYC:5691
C7AD  F0 F9     BEQ $C7A8                       A:00 X:FF Y:00 P:26 SP:FF CYC:5693
C7A8  AD 02 20  LDA $2002 = 00                  A:00 X:FF Y:00 P:26 SP:FF CYC:5696
C7AB  29 80     AND #$80                        A:00 X:FF Y:00 P:26 SP:FF CYC:5700
C7AD  F0 F9     BEQ $C7A8                       A:00 X:FF Y:00 P:26 SP:FF CYC:5702
C7A8  AD 02 20  LDA $2002 = 00                  A:00 X:FF Y:00 P:26 SP:FF CYC:5705
C7AB  29 80     AND #$80                        A:00 X:FF Y:00 P:26 SP:FF CYC:5709
C7AD  F0 F9     BEQ $C7A8                       A:00 X:FF Y:00 P:26 SP:FF CYC:5711
C7A8  AD 02 20  LDA $2002 = 00                  A:00 X:FF Y:00 P:26 SP:FF CYC:5714
C7AB  29 80     AND #$80                        A:00 X:FF Y:00 P:26 SP:FF CYC:5718
C7AD  F0 F9     BEQ $C7A8                       A:00 X:FF Y:00 P:26 SP:FF CYC:5720
C7A8  AD 02 20  LDA $2002 = 00                  A:00 X:FF Y:00 P:26 SP:FF CYC:5723
C7AB  29 80     AND #$80                        A:00 X:FF Y:00 P:26 SP:FF CYC:5727
C7AD  F0 F9     BEQ $C7A8                       A:00 X:FF Y:00 P:26 SP:FF CYC:5729
C7A8  AD 02 20  LDA $2002 = 00                  A:00 X:FF Y:00 P:26 SP:FF CYC:5732
C7AB  29 80     AND #$80                        A:00 X:FF Y:00 P:26 SP:FF CYC:5736
C7AD  F0 F9     BEQ $C7A8                       A:00 X:FF Y:00 P:26 SP:FF CYC:5738
C7A8  AD 02 20  LDA $2002 = 00                  A:00 X:FF Y:00 P:26 SP:FF CYC:5741
C7AB  29 80     AND #$80                        A:00 X:FF Y:00 P:26 SP:FF CYC:5745
C7AD  F0 F9     BEQ $C7A8                       A:00 X:FF Y:00 P:26 SP:FF CYC:5747
C7A8  AD 02 20  LDA $2002 = 00                  A:00 X:FF Y:00 P:26 SP:FF CYC:5750
C7AB  29 80     AND #$80                        A:00 X:FF Y:00 P:26 SP:FF CYC:5754
C7AD  F0 F9     BEQ $C7A8                       A:00 X:FF Y:00 P:26 SP:FF CYC:5756
C7A8  AD 02 20  LDA $2002 = 00                  A:00 X:FF Y:00 P:26 SP:FF CYC:5759
C7AB  29 80     AND #$80                        A:00 X:FF Y:00 P:26 SP:FF CYC:5763
C7AD  F0 F9     BEQ $C7A8                       A:00 X:FF Y:00 P:26 SP:FF CYC:5765
C7A8  AD 02 20  LDA $2002 = 00                  A:00 X:FF Y:00 P:26 SP:FF CYC:5768
C7AB  29 80     AND #$80                        A:00 X:FF Y:00 P:26 SP:FF CYC:5772
C7AD  F0 F9     BEQ $C7A8                       A:00 X:FF Y:00 P:26 SP:FF CYC:5774
C7A8  AD 02 20  LDA $2002 = 00                  A:00 X:FF Y:00 P:26 SP:FF CYC:5777
C7AB  29 80     AND #$80                        A:00 X:FF Y:00 P:26 SP:FF CYC:5781
C7AD  F0 F9     BEQ $C7A8                       A:00 X:FF Y:00 P:26 SP:FF CYC:5783
C7A8  AD 02 20  LDA $2002 = 00                  A:00 X:FF Y:00 P:26 SP:FF CYC:5786
C7AB  29 80     AND #$80                        A:00 X:FF Y:00 P:26 SP:FF CYC:5790
C7AD  F0 F9     BEQ $C7A8                       A:00 X:FF Y:00 P:26 SP:FF CYC:5792
C7A8  AD 02 20  LDA $2002 = 00                  A:00 X:FF Y:00 P:26 SP:FF CYC:5795
C7AB  29 80     AND #$80                        A:00 X:FF Y:00 P:26 SP:FF CYC:5799
C7AD  F0 F9     BEQ $C7A8                       A:00 X:FF Y:00 P:26 SP:FF CYC:5801
C7A8  AD 02 20  LDA $2002 = 00                  A:00 X:FF Y:00 P:26 SP:FF CYC:5804
C7AB  29 80     AND #$80                        A:00 X:FF Y:00 P:26 SP:FF CYC:5808
C7AD  F0 F9     BEQ $C7A8                       A:00 X:FF Y:00 P:26 SP:FF CYC:5810
C7A8  AD 02 20  LDA $2002 = 00                  A:00 X:FF Y:00 P:26 SP:FF CYC:5813
C7AB  29 80     AND #$80                        A:00 X:FF Y:00 P:26 SP:FF CYC:5817
C7AD  F0 F9     BEQ $C7A8                       A:00 X:FF Y:00 P:26 SP:FF CYC:5819
C7A8  AD 02 20  LDA $2002 = 00                  A:00 X:FF Y:00 P:26 SP:FF CYC:5822
C7AB  29 80     AND #$80                        A:00 X:FF Y:00 P:26 SP:FF CYC:5826
C7AD  F0 F9     BEQ $C7A8                       A:00 X:FF Y:00 P:26 SP:FF CYC:5828
C7A8  AD 02 20  LDA $2002 = 00                  A:00 X:FF Y:00 P:26 SP:FF CYC:5831
C7AB  29 80     AND #$80                        A:00 X:FF Y:00 P:26 SP:FF CYC:5835
C7AD  F0 F9     BEQ $C7A8                       A:00 X:FF Y:00 P:26 SP:FF CYC:5837
C7A8  AD 02 20  LDA $2002 = 00                  A:00 X:FF Y:00 P:26 SP:FF CYC:5840
C7AB  29 80     AND #$80                        A:00 X:FF Y:00 P:26 SP:FF CYC:5844
C7AD  F0 F9     BEQ $C7A8                       A:00 X:FF Y:00 P:26 SP:FF CYC:5846
C7A8  AD 02 20  LDA $2002 = 00                  A:00 X:FF Y:00 P:26 SP:FF CYC:5849
C7AB  29 80     AND #$80                        A:00 X:FF Y:00 P:26 SP:FF CYC:5853
C7AD  F0 F9     BEQ $C7A8                       A:00 X:FF Y:00 P:26 SP:FF CYC:5855
C7A8  AD 02 20  LDA $2002 = 00                  A:00 X:FF Y:00 P:26 SP:FF CYC:5858
C7AB  29 80     AND #$80                        A:00 X:FF Y:00 P:26 SP:FF CYC:5862
C7AD  F0 F9     BEQ $C7A8                       A:00 X:FF Y:00 P:26 SP:FF CYC:5864
C7A8  AD 02 20  LDA $2002 = 00                  A:00 X:FF Y:00 P:26 SP:FF CYC:5867
C7AB  29 80     AND #$80                        A:00 X:FF Y:00 P:26 SP:FF CYC:5871
C7AD  F0 F9     BEQ $C7A8                       A:00 X:FF Y:00 P:26 SP:FF CYC:5873
C7A8  AD 02 20  LDA $2002 = 00                  A:00 X:FF Y:00 P:26 SP:FF CYC:5876
C7AB  29 80     AND #$80                        A:00 X:FF Y:00 P:26 SP:FF CYC:5880
C7AD  F0 F9     BEQ $C7A8                       A:00 X:FF Y:00 P:26 SP:FF CYC:5882
C7A8  AD 02 20  LDA $2002 = 00                  A:00 X:FF Y:00 P:26 SP:FF CYC:5885
C7AB  29 80     AND #$80                        A:00 X:FF Y:00 P:26 SP:FF CYC:5889
C7AD  F0 F9     BEQ $C7A8                       A:00 X:FF Y:00 P:26 SP:FF CYC:5891
C7A8  AD 02 20  LDA $2002 = 00                  A:00 X:FF Y:00 P:26 SP:FF CYC:5894
C7AB  29 80     AND #$80                        A:00 X:FF Y:00 P:26 SP:FF CYC:5898
C7AD  F0 F9     BEQ $C7A8                       A:00 X:FF Y:00 P:26 SP:FF CYC:5900
C7A8  AD 02 20  LDA $2002 = 00                  A:00 X:FF Y:00 P:26 SP:FF CYC:5903
C7AB  29 80     AND #$80                        A:00 X:FF Y:00 P:26 SP:FF CYC:5907
C7AD  F0 F9     BEQ $C7A8                       A:00 X:FF Y:00 P:26 SP:FF CYC:5909
C7A8  AD 02 20  LDA $2002 = 00                  A:00 X:FF Y:00 P:26 SP:FF CYC:5912
C7AB  29 80     AND #$80                        A:00 X:FF Y:00 P:26 SP:FF CYC:5916
C7AD  F0 F9     BEQ $C7A8                       A:00 X:FF Y:00 P:26 SP:FF CYC:5918
C7A8  AD 02 20  LDA $2002 = 00                  A:00 X:FF Y:00 P:26 SP:FF CYC:5921
C7AB  29 80     AND #$80                        A:00 X:FF Y:00 P:26 SP:FF CYC:5925
C7AD  F0 F9     BEQ $C7A8                       A:00 X:FF Y:00 P:26 SP:FF CYC:5927
C7A8  AD 02 20  LDA $2002 = 00                  A:00 X:FF Y:00 P:26 SP:FF CYC:5930
C7AB  29 80     AND #$80                        A:00 X:FF Y:00 P:26 SP:FF CYC:5934
C7AD  F0 F9     BEQ $C7A8                       A:00 X:FF Y:00 P:26 SP:FF CYC:5936
C7A8  AD 02 20  LDA $2002 = 00                  A:00 X:FF Y:00 P:26 SP:FF CYC:5939
C7AB  29 80     AND #$80                        A:00 X:FF Y:00 P:26 SP:FF CYC:5943
C7AD  F0 F9     BEQ $C7A8                       A:00 X:FF Y:00 P:26 SP:FF CYC:5945
C7A8  AD 02 20  LDA $2002 = 00                  A:00 X:FF Y:00 P:26 SP:FF CYC:5948
C7AB  29 80     AND #$80                        A:00 X:FF Y:00 P:26 SP:FF CYC:5952
C7AD  F0 F9     BEQ $C7A8                       A:00 X:FF Y:00 P:26 SP:FF CYC:5954
C7A8  AD 02 20  LDA $2002 = 00                  A:00 X:FF Y:00 P:26 SP:FF CYC:5957
C7AB  29 80     AND #$80                        A:00 X:FF Y:00 P:26 SP:FF CYC:5961
C7AD  F0 F9     BEQ $C7A8                       A:00 X:FF Y:00 P:26 SP:FF CYC:5963
C7A8  AD 02 20  LDA $2002 = 00                  A:00 X:FF Y:00 P:26 SP:FF CYC:5966
C7AB  29 80     AND #$80                        A:00 X:FF Y:00 P:26 SP:FF CYC:5970
C7AD  F0 F9     BEQ $C7A8                       A:00 X:FF Y:00 P:26 SP:FF CYC:5972
C7A8  AD 02 20  LDA $2002 = 00                  A:00 X:FF Y:00 P:26 SP:FF CYC:5975
C7AB  29 80     AND #$80                        A:00 X:FF Y:00 P:26 SP:FF CYC:5979
C7AD  F0 F9     BEQ $C7A8                       A:00 X:FF Y:00 P:26 SP:FF CYC:5981
C7A8  AD 02 20  LDA $2002 = 00                  A:00 X:FF Y:00 P:26 SP:FF CYC:5984
C7AB  29 80     AND #$80                        A:00 X:FF Y:00 P:26 SP:FF CYC:5988
C7AD  F0 F9     BEQ $C7A8                       A:00 X:FF Y:00 P:26 SP:FF CYC:5990
C7A8  AD 02 20  LDA $2002 = 00                  A:00 X:FF Y:00 P:26 SP:FF CYC:5993
C7AB  29 80     AND #$80                        A:00 X:FF Y:00 P:26 SP:FF CYC:5997
C7AD  F0 F9     BEQ $C7A8                       A:00 X:FF Y:00 P:26 SP:FF CYC:5999
C7A8  AD 02 20  LDA $2002 = 00                  A:00 X:FF Y:00 P:26 SP:FF CYC:6002
C7AB  29 80     AND #$80                        A:00 X:FF Y:00 P:26 SP:FF CYC:6006
C7AD  F0 F9     BEQ $C7A8                       A:00 X:FF Y:00 P:26 SP:FF CYC:6008
C7A8  AD 02 20  LDA $2002 = 00                  A:00 X:FF Y:00 P:26 SP:FF CYC:6011
C7AB  29 80     AND #$80                        A:00 X:FF Y:00 P:26 SP:FF CYC:6015
C7AD  F0 F9     BEQ $C7A8                       A:00 X:FF Y:00 P:26 SP:FF CYC:6017
C7A8  AD 02 20  LDA $2002 = 00                  A:00 X:FF Y:00 P:26 SP:FF CYC:6020
C7AB  29 80     AND #$80                        A:00 X:FF Y:00 P:26 SP:FF CYC:6024
C7AD  F0 F9     BEQ $C7A8                       A:00 X:FF Y:00 P:26 SP:FF CYC:6026
C7A8  AD 02 20  LDA $2002 = 00                  A:00 X:FF Y:00 P:26 SP:FF CYC:6029
C7AB  29 80     AND #$80                        A:00 X:FF Y:00 P:26 SP:FF CYC:6033
C7AD  F0 F9     BEQ $C7A8                       A:00 X:FF Y:00 P:26 SP:FF CYC:6035
C7A8  AD 02 20  LDA $2002 = 00                  A:00 X:FF Y:00 P:26 SP:FF CYC:6038
C7AB  29 80     AND #$80                        A:00 X:FF Y:00 P:26 SP:FF CYC:6042
C7AD  F0 F9     BEQ $C7A8                       A:00 X:FF Y:00 P:26 SP:FF CYC:6044
C7A8  AD 02 20  LDA $2002 = 00                  A:00 X:FF Y:00 P:26 SP:FF CYC:6047
C7AB  29 80     AND #$80                        A:00 X:FF Y:00 P:26 SP:FF CYC:6051
C7AD  F0 F9     BEQ $C7A8                       A:00 X:FF Y:00 P:26 SP:FF CYC:6053
C7A8  AD 02 20  LDA $2002 = 00                  A:00 X:FF Y:00 P:26 SP:FF CYC:6056
C7AB  29 80     AND #$80                        A:00 X:FF Y:00 P:26 SP:FF CYC:6060
C7AD  F0 F9     BEQ $C7A8                       A:00 X:FF Y:00 P:26 SP:FF CYC:6062
C7A8  AD 02 20  LDA $2002 = 00                  A:00 X:FF Y:00 P:26 SP:FF CYC:6065
C7AB  29 80     AND #$80                        A:00 X:FF Y:00 P:26 SP:FF CYC:6069
C7AD  F0 F9     BEQ $C7A8                       A:00 X:FF Y:00 P:26 SP:FF CYC:6071
C7A8  AD 02 20  LDA $2002 = 00                  A:00 X:FF Y:00 P:26 SP:FF CYC:6074
C7AB  29 80     AND #$80                        A:00 X:FF Y:00 P:26 SP:FF CYC:6078
C7AD  F0 F9     BEQ $C7A8                       A:00 X:FF Y:00 P:26 SP:FF CYC:6080
C7A8  AD 02 20  LDA $2002 = 00                  A:00 X:FF Y:00 P:26 SP:FF CYC:6083
C7AB  29 80     AND #$80                        A:00 X:FF Y:00 P:26 SP:FF CYC:6087
C7AD  F0 F9     BEQ $C7A8                       A:00 X:FF Y:00 P:26 SP:FF CYC:6089
C7A8  AD 02 20  LDA $2002 = 00                  A:00 X:FF Y:00 P:26 SP:FF CYC:6092
C7AB  29 80     AND #$80                        A:00 X:FF Y:00 P:26 SP:FF CYC:6096
C7AD  F0 F9     BEQ $C7A8                       A:00 X:FF Y:00 P:26 SP:FF CYC:6098
C7A8  AD 02 20  LDA $2002 = 00                  A:00 X:FF Y:00 P:26 SP:FF CYC:6101
C7AB  29 80     AND #$80                        A:00 X:FF Y:00 P:26 SP:FF CYC:6105
C7AD  F0 F9     BEQ $C7A8                       A:00 X:FF Y:00 P:26 SP:FF CYC:6107
C7A8  AD 02 20  LDA $2002 = 00                  A:00 X:FF Y:00 P:26 SP:FF CYC:6110
C7AB  29 80     AND #$80                        A:00 X:FF Y:00 P:26 SP:FF CYC:6114
C7AD  F0 F9     BEQ $C7A8                       A:00 X:FF Y:00 P:26 SP:FF CYC:6116
C7A8  AD 02 20  LDA $2002 = 00                  A:00 X:FF Y:00 P:26 SP:FF CYC:6119
C7AB  29 80     AND #$80                        A:00 X:FF Y:00 P:26 SP:FF CYC:6123
C7AD  F0 F9     BEQ $C7A8                       A:00 X:FF Y:00 P:26 SP:FF CYC:6125
C7A8  AD 02 20  LDA $2002 = 00                  A:00 X:FF Y:00 P:26 SP:FF CYC:6128
C7AB  29 80     AND #$80                        A:00 X:FF Y:00 P:26 SP:FF CYC:6132
C7AD  F0 F9     BEQ $C7A8                       A:00 X:FF Y:00 P:26 SP:FF CYC:6134
C7A8  AD 02 20  LDA $2002 = 00                  A:00 X:FF Y:00 P:26 SP:FF CYC:6137
C7AB  29 80     AND #$80                        A:00 X:FF Y:00 P:26 SP:FF CYC:6141
C7AD  F0 F9     BEQ $C7A8                       A:00 X:FF Y:00 P:26 SP:FF CYC:6143
C7A8  AD 02 20  LDA $2002 = 00                  A:00 X:FF Y:00 P:26 SP:FF CYC:6146
C7AB  29 80     AND #$80                        A:00 X:FF Y:00 P:26 SP:FF CYC:6150
C7AD  F0 F9     BEQ $C7A8                       A:00 X:FF Y:00 P:26 SP:FF CYC:6152
C7A8  AD 02 20  LDA $2002 = 00                  A:00 X:FF Y:00 P:26 SP:FF CYC:6155
C7AB  29 80     AND #$80                        A:00 X:FF Y:00 P:26 SP:FF CYC:6159
C7AD  F0 F9     BEQ $C7A8                       A:00 X:FF Y:00 P:26 SP:FF CYC:6161
C7A8  AD 02 20  LDA $2002 = 00                  A:00 X:FF Y:00 P:26 SP:FF CYC:6164
C7AB  29 80     AND #$80                        A:00 X:FF Y:00 P:26 SP:FF CYC:6168
C7AD  F0 F9     BEQ $C7A8                       A:00 X:FF Y:00 P:26 SP:FF CYC:6170
C7A8  AD 02 20  LDA $2002 = 00                  A:00 X:FF Y:00 P:26 SP:FF CYC:6173
C7AB  29 80     AND #$80                        A:00 X:FF Y:00 P:26 SP:FF CYC:6177
C7AD  F0 F9     BEQ $C7A8                       A:00 X:FF Y:00 P:26 SP:FF CYC:6179
C7A8  AD 02 20  LDA $2002 = 00                  A:00 X:FF Y:00 P:26 SP:FF CYC:6182
C7AB  29 80     AND #$80                        A:00 X:FF Y:00 P:26 SP:FF CYC:6186
C7AD  F0 F9     BEQ $C7A8                       A:00 X:FF Y:00 P:26 SP:FF CYC:6188
C7A8  AD 02 20  LDA $2002 = 00                  A:00 X:FF Y:00 P:26 SP:FF CYC:6191
C7AB  29 80     AND #$80                        A:00 X:FF Y:00 P:26 SP:FF CYC:6195
C7AD  F0 F9     BEQ $C7A8                       A:00 X:FF Y:00 P:26 SP:FF CYC:6197
C7A8  AD 02 20  LDA $2002 = 00                  A:00 X:FF Y:00 P:26 SP:FF CYC:6200
C7AB  29 80     AND #$80                        A:00 X:FF Y:00 P:26 SP:FF CYC:6204
C7AD  F0 F9     BEQ $C7A8                       A:00 X:FF Y:00 P:26 SP:FF CYC:6206
C7A8  AD 02 20  LDA $2002 = 00                  A:00 X:FF Y:00 P:26 SP:FF CYC:6209
C7AB  29 80     AND #$80                        A:00 X:FF Y:00 P:26 SP:FF CYC:6213
C7AD  F0 F9     BEQ $C7A8                       A:00 X:FF Y:00 P:26 SP:FF CYC:6215
C7A8  AD 02 20  LDA $2002 = 00                  A:00 X:FF Y:00 P:26 SP:FF CYC:6218
C7AB  29 80     AND #$80                        A:00 X:FF Y:00 P:26 SP:FF CYC:6222
C7AD  F0 F9     BEQ $C7A8                       A:00 X:FF Y:00 P:26 SP:FF CYC:6224
C7A8  AD 02 20  LDA $2002 = 00                  A:00 X:FF Y:00 P:26 SP:FF CYC:6227
C7AB  29 80     AND #$80                        A:00 X:FF Y:00 P:26 SP:FF CYC:6231
C7AD  F0 F9     BEQ $C7A8                       A:00 X:FF Y:00 P:26 SP:FF CYC:6233
C7A8  AD 02 20  LDA $2002 = 00                  A:00 X:FF Y:00 P:26 SP:FF CYC:6236
C7AB  29 80     AND #$80                        A:00 X:FF Y:00 P:26 SP:FF CYC:6240
C7AD  F0 F9     BEQ $C7A8                       A:00 X:FF Y:00 P:26 SP:FF CYC:6242
C7A8  AD 02 20  LDA $2002 = 00                  A:00 X:FF Y:00 P:26 SP:FF CYC:6245
C7AB  29 80     AND #$80                        A:00 X:FF Y:00 P:26 SP:FF CYC:6249
C7AD  F0 F9     BEQ $C7A8                       A:00 X:FF Y:00 P:26 SP:FF CYC:6251
C7A8  AD 02 20  LDA $2002 = 00                  A:00 X:FF Y:00 P:26 SP:FF CYC:6254
C7AB  29 80     AND #$80                        A:00 X:FF Y:00 P:26 SP:FF CYC:6258
C7AD  F0 F9     BEQ $C7A8                       A:00 X:FF Y:00 P:26 SP:FF CYC:6260
C7A8  AD 02 20  LDA $2002 = 00                  A:00 X:FF Y:00 P:26 SP:FF CYC:6263
C7AB  29 80     AND #$80                        A:00 X:FF Y:00 P:26 SP:FF CYC:6267
C7AD  F0 F9     BEQ $C7A8                       A:00 X:FF Y:00 P:26 SP:FF CYC:6269
C7A8  AD 02 20  LDA $2002 = 00                  A:00 X:FF Y:00 P:26 SP:FF CYC:6272
C7AB  29 80     AND #$80                        A:00 X:FF Y:00 P:26 SP:FF CYC:6276
C7AD  F0 F9     BEQ $C7A8                       A:00 X:FF Y:00 P:26 SP:FF CYC:6278
C7A8  AD 02 20  LDA $2002 = 00                  A:00 X:FF Y:00 P:26 SP:FF CYC:6281
C7AB  29 80     AND #$80                        A:00 X:FF Y:00 P:26 SP:FF CYC:6285
C7AD  F0 F9     BEQ $C7A8                       A:00 X:FF Y:00 P:26 SP:FF CYC:6287
C7A8  AD 02 20  LDA $2002 = 00                  A:00 X:FF Y:00 P:26 SP:FF CYC:6290
C7AB  29 80     AND #$80                        A:00 X:FF Y:00 P:26 SP:FF CYC:6294
C7AD  F0 F9     BEQ $C7A8                       A:00 X:FF Y:00 P:26 SP:FF CYC:6296
C7A8  AD 02 20  LDA $2002 = 00                  A:00 X:FF Y:00 P:26 SP:FF CYC:6299
C7AB  29 80     AND #$80                        A:00 X:FF Y:00 P:26 SP:FF CYC:6303
C7AD  F0 F9     BEQ $C7A8                       A:00 X:FF Y:00 P:26 SP:FF CYC:6305
C7A8  AD 02 20  LDA $2002 = 00                  A:00 X:FF Y:00 P:26 SP:FF CYC:6308
C7AB  29 80     AND #$80                        A:00 X:FF Y:00 P:26 SP:FF CYC:6312
C7AD  F0 F9     BEQ $C7A8                       A:00 X:FF Y:00 P:26 SP:FF CYC:6314
C7A8  AD 02 20  LDA $2002 = 00                  A:00 X:FF Y:00 P:26 SP:FF CYC:6317
C7AB  29 80     AND #$80                        A:00 X:FF Y:00 P:26 SP:FF CYC:6321
C7AD  F0 F9     BEQ $C7A8                       A:00 X:FF Y:00 P:26 SP:FF CYC:6323
C7A8  AD 02 20  LDA $2002 = 00                  A:00 X:FF Y:00 P:26 SP:FF CYC:6326
C7AB  29 80     AND #$80                        A:00 X:FF Y:00 P:26 SP:FF CYC:6330
C7AD  F0 F9     BEQ $C7A8                       A:00 X:FF Y:00 P:26 SP:FF CYC:6332
C7A8  AD 02 20  LDA $2002 = 00                  A:00 X:FF Y:00 P:26 SP:FF CYC:6335
C7AB  29 80     AND #$80                        A:00 X:FF Y:00 P:26 SP:FF CYC:6339
C7AD  F0 F9     BEQ $C7A8                       A:00 X:FF Y:00 P:26 SP:FF CYC:6341
C7A8  AD 02 20  LDA $2002 = 00                  A:00 X:FF Y:00 P:26 SP:FF CYC:6344
C7AB  29 80     AND #$80                        A:00 X:FF Y:00 P:26 SP:FF CYC:6348
C7AD  F0 F9     BEQ $C7A8                       A:00 X:FF Y:00 P:26 SP:FF CYC:6350
C7A8  AD 02 20  LDA $2002 = 00                  A:00 X:FF Y:00 P:26 SP:FF CYC:6353
C7AB  29 80     AND #$80                        A:00 X:FF Y:00 P:26 SP:FF CYC:6357
C7AD  F0 F9     BEQ $C7A8                       A:00 X:FF Y:00 P:26 SP:FF CYC:6359
C7A8  AD 02 20  LDA $2002 = 00                  A:00 X:FF Y:00 P:26 SP:FF CYC:6362
C7AB  29 80     AND #$80                        A:00 X:FF Y:00 P:26 SP:FF CYC:6366
C7AD  F0 F9     BEQ $C7A8                       A:00 X:FF Y:00 P:26 SP:FF CYC:6368
C7A8  AD 02 20  LDA $2002 = 00                  A:00 X:FF Y:00 P:26 SP:FF CYC:6371
C7AB  29 80     AND #$80                        A:00 X:FF Y:00 P:26 SP:FF CYC:6375
C7AD  F0 F9     BEQ $C7A8                       A:00 X:FF Y:00 P:26 SP:FF CYC:6377
C7A8  AD 02 20  LDA $2002 = 00                  A:00 X:FF Y:00 P:26 SP:FF CYC:6380
C7AB  29 80     AND #$80                        A:00 X:FF Y:00 P:26 SP:FF CYC:6384
C7AD  F0 F9     BEQ $C7A8                       A:00 X:FF Y:00 P:26 SP:FF CYC:6386
C7A8  AD 02 20  LDA $2002 = 00                  A:00 X:FF Y:00 P:26 SP:FF CYC:6389
C7AB  29 80     AND #$80                        A:00 X:FF Y:00 P:26 SP:FF CYC:6393
C7AD  F0 F9     BEQ $C7A8                       A:00 X:FF Y:00 P:26 SP:FF CYC:6395
C7A8  AD 02 20  LDA $2002 = 00                  A:00 X:FF Y:00 P:26 SP:FF CYC:6398
C7AB  29 80     AND #$80                        A:00 X:FF Y:00 P:26 SP:FF CYC:6402
C7AD  F0 F9     BEQ $C7A8                       A:00 X:FF Y:00 P:26 SP:FF CYC:6404
C7A8  AD 02 20  LDA $2002 = 00                  A:00 X:FF Y:00 P:26 SP:FF CYC:6407
C7AB  29 80     AND #$80                        A:00 X:FF Y:00 P:26 SP:FF CYC:6411
C7AD  F0 F9     BEQ $C7A8                       A:00 X:FF Y:00 P:26 SP:FF CYC:6413
C7A8  AD 02 20  LDA $2002 = 00                  A:00 X:FF Y:00 P:26 SP:FF CYC:6416
C7AB  29 80     AND #$80                        A:00 X:FF Y:00 P:26 SP:FF CYC:6420
C7AD  F0 F9     BEQ $C7A8                       A:00 X:FF Y:00 P:26 SP:FF CYC:6422
C7A8  AD 02 20  LDA $2002 = 00                  A:00 X:FF Y:00 P:26 SP:FF CYC:6425
C7AB  29 80     AND #$80                        A:00 X:FF Y:00 P:26 SP:FF CYC:6429
C7AD  F0 F9     BEQ $C7A8                       A:00 X:FF Y:00 P:26 SP:FF CYC:6431
C7A8  AD 02 20  LDA $2002 = 00                  A:00 X:FF Y:00 P:26 SP:FF CYC:6434
C7AB  29 80     AND #$80                        A:00 X:FF Y:00 P:26 SP:FF CYC:6438
C7AD  F0 F9     BEQ $C7A8                       A:00 X:FF Y:00 P:26 SP:FF CYC:6440
C7A8  AD 02 20  LDA $2002 = 00                  A:00 X:FF Y:00 P:26 SP:FF CYC:6443
C7AB  29 80     AND #$80                        A:00 X:FF Y:00 P:26 SP:FF CYC:6447
C7AD  F0 F9     BEQ $C7A8                       A:00 X:FF Y:00 P:26 SP:FF CYC:6449
C7A8  AD 02 20  LDA $2002 = 00                  A:00 X:FF Y:00 P:26 SP:FF CYC:6452
C7AB  29 80     AND #$80                        A:00 X:FF Y:00 P:26 SP:FF CYC:6456
C7AD  F0 F9     BEQ $C7A8                       A:00 X:FF Y:00 P:26 SP:FF CYC:6458
C7A8  AD 02 20  LDA $2002 = 00                  A:00 X:FF Y:00 P:26 SP:FF CYC:6461
C7AB  29 80     AND #$80                        A:00 X:FF Y:00 P:26 SP:FF CYC:6465
C7AD  F0 F9     BEQ $C7A8                       A:00 X:FF Y:00 P:26 SP:FF CYC:6467
C7A8  AD 02 20  LDA $2002 = 00                  A:00 X:FF Y:00 P:26 SP:FF CYC:6470
C7AB  29 80     AND #$80                        A:00 X:FF Y:00 P:26 SP:FF CYC:6474
C7AD  F0 F9     BEQ $C7A8                       A:00 X:FF Y:00 P:26 SP:FF CYC:6476
C7A8  AD 02 20  LDA $2002 = 00                  A:00 X:FF Y:00 P:26 SP:FF CYC:6479
C7AB  29 80     AND #$80                        A:00 X:FF Y:00 P:26 SP:FF CYC:6483
C7AD  F0 F9     BEQ $C7A8                       A:00 X:FF Y:00 P:26 SP:FF CYC:6485
C7A8  AD 02 20  LDA $2002 = 00                  A:00 X:FF Y:00 P:26 SP:FF CYC:6488
C7AB  29 80     AND #$80                        A:00 X:FF Y:00 P:26 SP:FF CYC:6492
C7AD  F0 F9     BEQ $C7A8                       A:00 X:FF Y:00 P:26 SP:FF CYC:6494
C7A8  AD 02 20  LDA $2002 = 00                  A:00 X:FF Y:00 P:26 SP:FF CYC:6497
C7AB  29 80     AND #$80                        A:00 X:FF Y:00 P:26 SP:FF CYC:6501
C7AD  F0 F9     BEQ $C7A8                       A:00 X:FF Y:00 P:26 SP:FF CYC:6503
C7A8  AD 02 20  LDA $2002 = 00                  A:00 X:FF Y:00 P:26 SP:FF CYC:6506
C7AB  29 80     AND #$80                        A:00 X:FF Y:00 P:26 SP:FF CYC:6510
C7AD  F0 F9     BEQ $C7A8                       A:00 X:FF Y:00 P:26 SP:FF CYC:6512
C7A8  AD 02 20  LDA $2002 = 00                  A:00 X:FF Y:00 P:26 SP:FF CYC:6515
C7AB  29 80     AND #$80                        A:00 X:FF Y:00 P:26 SP:FF CYC:6519
C7AD  F0 F9     BEQ $C7A8                       A:00 X:FF Y:00 P:26 SP:FF CYC:6521
C7A8  AD 02 20  LDA $2002 = 00                  A:00 X:FF Y:00 P:26 SP:FF CYC:6524
C7AB  29 80     AND #$80                        A:00 X:FF Y:00 P:26 SP:FF CYC:6528
C7AD  F0 F9     BEQ $C7A8                       A:00 X:FF Y:00 P:26 SP:FF CYC:6530
C7A8  AD 02 20  LDA $2002 = 00                  A:00 X:FF Y:00 P:26 SP:FF CYC:6533
C7AB  29 80     AND #$80                        A:00 X:FF Y:00 P:26 SP:FF CYC:6537
C7AD  F0 F9     BEQ $C7A8                       A:00 X:FF Y:00 P:26 SP:FF CYC:6539
C7A8  AD 02 20  LDA $2002 = 00                  A:00 X:FF Y:00 P:26 SP:FF CYC:6542
C7AB  29 80     AND #$80                        A:00 X:FF Y:00 P:26 SP:FF CYC:6546
C7AD  F0 F9     BEQ $C7A8                       A:00 X:FF Y:00 P:26 SP:FF CYC:6548
C7A8  AD 02 20  LDA $2002 = 00                  A:00 X:FF Y:00 P:26 SP:FF CYC:6551
C7AB  29 80     AND #$80                        A:00 X:FF Y:00 P:26 SP:FF CYC:6555
C7AD  F0 F9     BEQ $C7A8                       A:00 X:FF Y:00 P:26 SP:FF CYC:6557
C7A8  AD 02 20  LDA $2002 = 00                  A:00 X:FF Y:00 P:26 SP:FF CYC:6560
C7AB  29 80     AND #$80                        A:00 X:FF Y:00 P:26 SP:FF CYC:6564
C7AD  F0 F9     BEQ $C7A8                       A:00 X:FF Y:00 P:26 SP:FF CYC:6566
C7A8  AD 02 20  LDA $2002 = 00                  A:00 X:FF Y:00 P:26 SP:FF CYC:6569
C7AB  29 80     AND #$80                        A:00 X:FF Y:00 P:26 SP:FF CYC:6573
C7AD  F0 F9     BEQ $C7A8                       A:00 X:FF Y:00 P:26 SP:FF CYC:6575
C7A8  AD 02 20  LDA $2002 = 00                  A:00 X:FF Y:00 P:26 SP:FF CYC:6578
C7AB  29 80     AND #$80                        A:00 X:FF Y:00 P:26 SP:FF CYC:6582
C7AD  F0 F9     BEQ $C7A8                       A:00 X:FF Y:00 P:26 SP:FF CYC:6584
C7A8  AD 02 20  LDA $2002 = 00                  A:00 X:FF Y:00 P:26 SP:FF CYC:6587
C7AB  29 80     AND #$80                        A:00 X:FF Y:00 P:26 SP:FF CYC:6591
C7AD  F0 F9     BEQ $C7A8                       A:00 X:FF Y:00 P:26 SP:FF CYC:6593
C7A8  AD 02 20  LDA $2002 = 00                  A:00 X:FF Y:00 P:26 SP:FF CYC:6596
C7AB  29 80     AND #$80                        A:00 X:FF Y:00 P:26 SP:FF CYC:6600
C7AD  F0 F9     BEQ $C7A8                       A:00 X:FF Y:00 P:26 SP:FF CYC:6602
C7A8  AD 02 20  LDA $2002 = 00                  A:00 X:FF Y:00 P:26 SP:FF CYC:6605
C7AB  29 80     AND #$80                        A:00 X:FF Y:00 P:26 SP:FF CYC:6609
C7AD  F0 F9     BEQ $C7A8                       A:00 X:FF Y:00 P:26 SP:FF CYC:6611
C7A8  AD 02 20  LDA $2002 = 00                  A:00 X:FF Y:00 P:26 SP:FF CYC:6614
C7AB  29 80     AND #$80                        A:00 X:FF Y:00 P:26 SP:FF CYC:6618
C7AD  F0 F9     BEQ $C7A8                       A:00 X:FF Y:00 P:26 SP:FF CYC:6620
C7A8  AD 02 20  LDA $2002 = 00                  A:00 X:FF Y:00 P:26 SP:FF CYC:6623
C7AB  29 80     AND #$80                        A:00 X:FF Y:00 P:26 SP:FF CYC:6627
C7AD  F0 F9     BEQ $C7A8                       A:00 X:FF Y:00 P:26 SP:FF CYC:6629
C7A8  AD 02 20  LDA $2002 = 00                  A:00 X:FF Y:00 P:26 SP:FF CYC:6632
C7AB  29 80     AND #$80                        A:00 X:FF Y:00 P:26 SP:FF CYC:6636
C7AD  F0 F9     BEQ $C7A8                       A:00 X:FF Y:00 P:26 SP:FF CYC:6638
C7A8  AD 02 20  LDA $2002 = 00                  A:00 X:FF Y:00 P:26 SP:FF CYC:6641
C7AB  29 80     AND #$80                        A:00 X:FF Y:00 P:26 SP:FF CYC:6645
C7AD  F0 F9     BEQ $C7A8                       A:00 X:FF Y:00 P:26 SP:FF CYC:6647
C7A8  AD 02 20  LDA $2002 = 00                  A:00 X:FF Y:00 P:26 SP:FF CYC:6650
C7AB  29 80     AND #$80                        A:00 X:FF Y:00 P:26 SP:FF CYC:6654
C7AD  F0 F9     BEQ $C7A8                       A:00 X:FF Y:00 P:26 SP:FF CYC:6656
C7A8  AD 02 20  LDA $2002 = 00                  A:00 X:FF Y:00 P:26 SP:FF CYC:6659
C7AB  29 80     AND #$80                        A:00 X:FF Y:00 P:26 SP:FF CYC:6663
C7AD  F0 F9     BEQ $C7A8                       A:00 X:FF Y:00 P:26 SP:FF CYC:6665
C7A8  AD 02 20  LDA $2002 = 00                  A:00 X:FF Y:00 P:26 SP:FF CYC:6668
C7AB  29 80     AND #$80                        A:00 X:FF Y:00 P:26 SP:FF CYC:6672
C7AD  F0 F9     BEQ $C7A8                       A:00 X:FF Y:00 P:26 SP:FF CYC:6674
C7A8  AD 02 20  LDA $2002 = 00                  A:00 X:FF Y:00 P:26 SP:FF CYC:6677
C7AB  29 80     AND #$80                        A:00 X:FF Y:00 P:26 SP:FF CYC:6681
C7AD  F0 F9     BEQ $C7A8                       A:00 X:FF Y:00 P:26 SP:FF CYC:6683
C7A8  AD 02 20  LDA $2002 = 00                  A:00 X:FF Y:00 P:26 SP:FF CYC:6686
C7AB  29 80     AND #$80                        A:00 X:FF Y:00 P:26 SP:FF CYC:6690
C7AD  F0 F9     BEQ $C7A8                       A:00 X:FF Y:00 P:26 SP:FF CYC:6692
C7A8  AD 02 20  LDA $2002 = 00                  A:00 X:FF Y:00 P:26 SP:FF CYC:6695
C7AB  29 80     AND #$80                        A:00 X:FF Y:00 P:26 SP:FF CYC:6699
C7AD  F0 F9     BEQ $C7A8                       A:00 X:FF Y:00 P:26 SP:FF CYC:6701
C7A8  AD 02 20  LDA $2002 = 00                  A:00 X:FF Y:00 P:26 SP:FF CYC:6704
C7AB  29 80     AND #$80                        A:00 X:FF Y:00 P:26 SP:FF CYC:6708
C7AD  F0 F9     BEQ $C7A8                       A:00 X:FF Y:00 P:26 SP:FF CYC:6710
C7A8  AD 02 20  LDA $2002 = 00                  A:00 X:FF Y:00 P:26 SP:FF CYC:6713
C7AB  29 80     AND #$80                        A:00 X:FF Y:00 P:26 SP:FF CYC:6717
C7AD  F0 F9     BEQ $C7A8                       A:00 X:FF Y:00 P:26 SP:FF CYC:6719
C7A8  AD 02 20  LDA $2002 = 00                  A:00 X:FF Y:00 P:26 SP:FF CYC:6722
C7AB  29 80     AND #$80                        A:00 X:FF Y:00 P:26 SP:FF CYC:6726
C7AD  F0 F9     BEQ $C7A8                       A:00 X:FF Y:00 P:26 SP:FF CYC:6728
C7A8  AD 02 20  LDA $2002 = 00                  A:00 X:FF Y:00 P:26 SP:FF CYC:6731
C7AB  29 80     AND #$80                        A:00 X:FF Y:00 P:26 SP:FF CYC:6735
C7AD  F0 F9     BEQ $C7A8                       A:00 X:FF Y:00 P:26 SP:FF CYC:6737
C7A8  AD 02 20  LDA $2002 = 00                  A:00 X:FF Y:00 P:26 SP:FF CYC:6740
C7AB  29 80     AND #$80                        A:00 X:FF Y:00 P:26 SP:FF CYC:6744
C7AD  F0 F9     BEQ $C7A8                       A:00 X:FF Y:00 P:26 SP:FF CYC:6746
C7A8  AD 02 20  LDA $2002 = 00                  A:00 X:FF Y:00 P:26 SP:FF CYC:6749
C7AB  29 80     AND #$80                        A:00 X:FF Y:00 P:26 SP:FF CYC:6753
C7AD  F0 F9     BEQ $C7A8                       A:00 X:FF Y:00 P:26 SP:FF CYC:6755
C7A8  AD 02 20  LDA $2002 = 00                  A:00 X:FF Y:00 P:26 SP:FF CYC:6758
C7AB  29 80     AND #$80                        A:00 X:FF Y:00 P:26 SP:FF CYC:6762
C7AD  F0 F9     BEQ $C7A8                       A:00 X:FF Y:00 P:26 SP:FF CYC:6764
C7A8  AD 02 20  LDA $2002 = 00                  A:00 X:FF Y:00 P:26 SP:FF CYC:6767
C7AB  29 80     AND #$80                        A:00 X:FF Y:00 P:26 SP:FF CYC:6771
C7AD  F0 F9     BEQ $C7A8                       A:00 X:FF Y:00 P:26 SP:FF CYC:6773
C7A8  AD 02 20  LDA $2002 = 00                  A:00 X:FF Y:00 P:26 SP:FF CYC:6776
C7AB  29 80     AND #$80                        A:00 X:FF Y:00 P:26 SP:FF CYC:6780
C7AD  F0 F9     BEQ $C7A8                       A:00 X:FF Y:00 P:26 SP:FF CYC:6782
C7A8  AD 02 20  LDA $2002 = 00                  A:00 X:FF Y:00 P:26 SP:FF CYC:6785
C7AB  29 80     AND #$80                        A:00 X:FF Y:00 P:26 SP:FF CYC:6789
C7AD  F0 F9     BEQ $C7A8                       A:00 X:FF Y:00 P:26 SP:FF CYC:6791
C7A8  AD 02 20  LDA $2002 = 00                  A:00 X:FF Y:00 P:26 SP:FF CYC:6794
C7AB  29 80     AND #$80                        A:00 X:FF Y:00 P:26 SP:FF CYC:6798
C7AD  F0 F9     BEQ $C7A8                       A:00 X:FF Y:00 P:26 SP:FF CYC:6800
C7A8  AD 02 20  LDA $2002 = 00                  A:00 X:FF Y:00 P:26 SP:FF CYC:6803
C7AB  29 80     AND #$80                        A:00 X:FF Y:00 P:26 SP:FF CYC:6807
C7AD  F0 F9     BEQ $C7A8                       A:00 X:FF Y:00 P:26 SP:FF CYC:6809
C7A8  AD 02 20  LDA $2002 = 00                  A:00 X:FF Y:00 P:26 SP:FF CYC:6812
C7AB  29 80     AND #$80                        A:00 X:FF Y:00 P:26 SP:FF CYC:6816
C7AD  F0 F9     BEQ $C7A8                       A:00 X:FF Y:00 P:26 SP:FF CYC:6818
C7A8  AD 02 20  LDA $2002 = 00                  A:00 X:FF Y:00 P:26 SP:FF CYC:6821
C7AB  29 80     AND #$80                        A:00 X:FF Y:00 P:26 SP:FF CYC:6825
C7AD  F0 F9     BEQ $C7A8                       A:00 X:FF Y:00 P:26 SP:FF CYC:6827
C7A8  AD 02 20  LDA $2002 = 00                  A:00 X:FF Y:00 P:26 SP:FF CYC:6830
C7AB  29 80     AND #$80                        A:00 X:FF Y:00 P:26 SP:FF CYC:6834
C7AD  F0 F9     BEQ $C7A8                       A:00 X:FF Y:00 P:26 SP:FF CYC:6836
C7A8  AD 02 20  LDA $2002 = 00                  A:00 X:FF Y:00 P:26 SP:FF CYC:6839
C7AB  29 80     AND #$80                        A:00 X:FF Y:00 P:26 SP:FF CYC:6843
C7AD  F0 F9     BEQ $C7A8                       A:00 X:FF Y:00 P:26 SP:FF CYC:6845
C7A8  AD 02 20  LDA $2002 = 00                  A:00 X:FF Y:00 P:26 SP:FF CYC:6848
C7AB  29 80     AND #$80                        A:00 X:FF Y:00 P:26 SP:FF CYC:6852
C7AD  F0 F9     BEQ $C7A8                       A:00 X:FF Y:00 P:26 SP:FF CYC:6854
C7A8  AD 02 20  LDA $2002 = 00                  A:00 X:FF Y:00 P:26 SP:FF CYC:6857
C7AB  29 80     AND #$80                        A:00 X:FF Y:00 P:26 SP:FF CYC:6861
C7AD  F0 F9     BEQ $C7A8                       A:00 X:FF Y:00 P:26 SP:FF CYC:6863
C7A8  AD 02 20  LDA $2002 = 00                  A:00 X:FF Y:00 P:26 SP:FF CYC:6866
C7AB  29 80     AND #$80                        A:00 X:FF Y:00 P:26 SP:FF CYC:6870
C7AD  F0 F9     BEQ $C7A8                       A:00 X:FF Y:00 P:26 SP:FF CYC:6872
C7A8  AD 02 20  LDA $2002 = 00                  A:00 X:FF Y:00 P:26 SP:FF CYC:6875
C7AB  29 80     AND #$80                        A:00 X:FF Y:00 P:26 SP:FF CYC:6879
C7AD  F0 F9     BEQ $C7A8                       A:00 X:FF Y:00 P:26 SP:FF CYC:6881
C7A8  AD 02 20  LDA $2002 = 00                  A:00 X:FF Y:00 P:26 SP:FF CYC:6884
C7AB  29 80     AND #$80                        A:00 X:FF Y:00 P:26 SP:FF CYC:6888
C7AD  F0 F9     BEQ $C7A8                       A:00 X:FF Y:00 P:26 SP:FF CYC:6890
C7A8  AD 02 20  LDA $2002 = 00                  A:00 X:FF Y:00 P:26 SP:FF CYC:6893
C7AB  29 80     AND #$80                        A:00 X:FF Y:00 P:26 SP:FF CYC:6897
C7AD  F0 F9     BEQ $C7A8                       A:00 X:FF Y:00 P:26 SP:FF CYC:6899
C7A8  AD 02 20  LDA $2002 = 00                  A:00 X:FF Y:00 P:26 SP:FF CYC:6902
C7AB  29 80     AND #$80                        A:00 X:FF Y:00 P:26 SP:FF CYC:6906
C7AD  F0 F9     BEQ $C7A8                       A:00 X:FF Y:00 P:26 SP:FF CYC:6908
C7A8  AD 02 20  LDA $2002 = 00                  A:00 X:FF Y:00 P:26 SP:FF CYC:6911
C7AB  29 80     AND #$80                        A:00 X:FF Y:00 P:26 SP:FF CYC:6915
C7AD  F0 F9     BEQ $C7A8                       A:00 X:FF Y:00 P:26 SP:FF CYC:6917
C7A8  AD 02 20  LDA $2002 = 00                  A:00 X:FF Y:00 P:26 SP:FF CYC:6920
C7AB  29 80     AND #$80                        A:00 X:FF Y:00 P:26 SP:FF CYC:6924
C7AD  F0 F9     BEQ $C7A8                       A:00 X:FF Y:00 P:26 SP:FF CYC:6926
C7A8  AD 02 20  LDA $2002 = 00                  A:00 X:FF Y:00 P:26 SP:FF CYC:6929
C7AB  29 80     AND #$80                        A:00 X:FF Y:00 P:26 SP:FF CYC:6933
C7AD  F0 F9     BEQ $C7A8                       A:00 X:FF Y:00 P:26 SP:FF CYC:6935
C7A8  AD 02 20  LDA $2002 = 00                  A:00 X:FF Y:00 P:26 SP:FF CYC:6938
C7AB  29 80     AND #$80                        A:00 X:FF Y:00 P:26 SP:FF CYC:6942
C7AD  F0 F9     BEQ $C7A8                       A:00 X:FF Y:00 P:26 SP:FF CYC:6944
C7A8  AD 02 20  LDA $2002 = 00                  A:00 X:FF Y:00 P:26 SP:FF CYC:6947
C7AB  29 80     AND #$80                        A:00 X:FF Y:00 P:26 SP:FF CYC:6951
C7AD  F0 F9     BEQ $C7A8                       A:00 X:FF Y:00 P:26 SP:FF CYC:6953
C7A8  AD 02 20  LDA $2002 = 00                  A:00 X:FF Y:00 P:26 SP:FF CYC:6956
C7AB  29 80     AND #$80                        A:00 X:FF Y:00 P:26 SP:FF CYC:6960
C7AD  F0 F9     BEQ $C7A8                       A:00 X:FF Y:00 P:26 SP:FF CYC:6962
C7A8  AD 02 20  LDA $2002 = 00                  A:00 X:FF Y:00 P:26 SP:FF CYC:6965
C7AB  29 80     AND #$80                        A:00 X:FF Y:00 P:26 SP:FF CYC:6969
C7AD  F0 F9     BEQ $C7A8                       A:00 X:FF Y:00 P:26 SP:FF CYC:6971
C7A8  AD 02 20  LDA $2002 = 00                  A:00 X:FF Y:00 P:26 SP:FF CYC:6974
C7AB  29 80     AND #$80                        A:00 X:FF Y:00 P:26 SP:FF CYC:6978
C7AD  F0 F9     BEQ $C7A8                       A:00 X:FF Y:00 P:26 SP:FF CYC:6980
C7A8  AD 02 20  LDA $2002 = 00                  A:00 X:FF Y:00 P:26 SP:FF CYC:6983
C7AB  29 80     AND #$80                        A:00 X:FF Y:00 P:26 SP:FF CYC:6987
C7AD  F0 F9     BEQ $C7A8                       A:00 X:FF Y:00 P:26 SP:FF CYC:6989
C7A8  AD 02 20  LDA $2002 = 00                  A:00 X:FF Y:00 P:26 SP:FF CYC:6992
C7AB  29 80     AND #$80                        A:00 X:FF Y:00 P:26 SP:FF CYC:6996
C7AD  F0 F9     BEQ $C7A8                       A:00 X:FF Y:00 P:26 SP:FF CYC:6998
C7A8  AD 02 20  LDA $2002 = 00                  A:00 X:FF Y:00 P:26 SP:FF CYC:7001
C7AB  29 80     AND #$80                        A:00 X:FF Y:00 P:26 SP:FF CYC:7005
C7AD  F0 F9     BEQ $C7A8                       A:00 X:FF Y:00 P:26 SP:FF CYC:7007
C7A8  AD 02 20  LDA $2002 = 00                  A:00 X:FF Y:00 P:26 SP:FF CYC:7010
C7AB  29 80     AND #$80                        A:00 X:FF Y:00 P:26 SP:FF CYC:7014
C7AD  F0 F9     BEQ $C7A8                       A:00 X:FF Y:00 P:26 SP:FF CYC:7016
C7A8  AD 02 20  LDA $2002 = 00                  A:00 X:FF Y:00 P:26 SP:FF CYC:7019
C7AB  29 80     AND #$80                        A:00 X:FF Y:00 P:26 SP:FF CYC:7023
C7AD  F0 F9     BEQ $C7A8                       A:00 X:FF Y:00 P:26 SP:FF CYC:7025
C7A8  AD 02 20  LDA $2002 = 00                  A:00 X:FF Y:00 P:26 SP:FF CYC:7028
C7AB  29 80     AND #$80                        A:00 X:FF Y:00 P:26 SP:FF CYC:7032
C7AD  F0 F9     BEQ $C7A8                       A:00 X:FF Y:00 P:26 SP:FF CYC:7034
C7A8  AD 02 20  LDA $2002 = 00                  A:00 X:FF Y:00 P:26 SP:FF CYC:7037
C7AB  29 80     AND #$80                        A:00 X:FF Y:00 P:26 SP:FF CYC:7041
C7AD  F0 F9     BEQ $C7A8                       A:00 X:FF Y:00 P:26 SP:FF CYC:7043
C7A8  AD 02 20  LDA $2002 = 00                  A:00 X:FF Y:00 P:26 SP:FF CYC:7046
C7AB  29 80     AND #$80                        A:00 X:FF Y:00 P:26 SP:FF CYC:7050
C7AD  F0 F9     BEQ $C7A8                       A:00 X:FF Y:00 P:26 SP:FF CYC:7052
C7A8  AD 02 20  LDA $2002 = 00                  A:00 X:FF Y:00 P:26 SP:FF CYC:7055
C7AB  29 80     AND #$80                        A:00 X:FF Y:00 P:26 SP:FF CYC:7059
C7AD  F0 F9     BEQ $C7A8                       A:00 X:FF Y:00 P:26 SP:FF CYC:7061
C7A8  AD 02 20  LDA $2002 = 00                  A:00 X:FF Y:00 P:26 SP:FF CYC:7064
C7AB  29 80     AND #$80                        A:00 X:FF Y:00 P:26 SP:FF CYC:7068
C7AD  F0 F9     BEQ $C7A8                       A:00 X:FF Y:00 P:26 SP:FF CYC:7070
C7A8  AD 02 20  LDA $2002 = 00                  A:00 X:FF Y:00 P:26 SP:FF CYC:7073
C7AB  29 80     AND #$80                        A:00 X:FF Y:00 P:26 SP:FF CYC:7077
C7AD  F0 F9     BEQ $C7A8                       A:00 X:FF Y:00 P:26 SP:FF CYC:7079
C7A8  AD 02 20  LDA $2002 = 00                  A:00 X:FF Y:00 P:26 SP:FF CYC:7082
C7AB  29 80     AND #$80                        A:00 X:FF Y:00 P:26 SP:FF CYC:7086
C7AD  F0 F9     BEQ $C7A8                       A:00 X:FF Y:00 P:26 SP:FF CYC:7088
C7A8  AD 02 20  LDA $2002 = 00                  A:00 X:FF Y:00 P:26 SP:FF CYC:7091
C7AB  29 80     AND #$80                        A:00 X:FF Y:00 P:26 SP:FF CYC:7095
C7AD  F0 F9     BEQ $C7A8                       A:00 X:FF Y:00 P:26 SP:FF CYC:7097
C7A8  AD 02 20  LDA $2002 = 00                  A:00 X:FF Y:00 P:26 SP:FF CYC:7100
C7AB  29 80     AND #$80                        A:00 X:FF Y:00 P:26 SP:FF CYC:7104
C7AD  F0 F9     BEQ $C7A8                       A:00 X:FF Y:00 P:26 SP:FF CYC:7106
C7A8  AD 02 20  LDA $2002 = 00                  A:00 X:FF Y:00 P:26 SP:FF CYC:7109
C7AB  29 80     AND #$80                        A:00 X:FF Y:00 P:26 SP:FF CYC:7113
C7AD  F0 F9     BEQ $C7A8                       A:00 X:FF Y:00 P:26 SP:FF CYC:7115
C7A8  AD 02 20  LDA $2002 = 00                  A:00 X:FF Y:00 P:26 SP:FF CYC:7118
C7AB  29 80     AND #$80                        A:00 X:FF Y:00 P:26 SP:FF CYC:7122
C7AD  F0 F9     BEQ $C7A8                       A:00 X:FF Y:00 P:26 SP:FF CYC:7124
C7A8  AD 02 20  LDA $2002 = 00                  A:00 X:FF Y:00 P:26 SP:FF CYC:7127
C7AB  29 80     AND #$80                        A:00 X:FF Y:00 P:26 SP:FF CYC:7131
C7AD  F0 F9     BEQ $C7A8                       A:00 X:FF Y:00 P:26 SP:FF CYC:7133
C7A8  AD 02 20  LDA $2002 = 00                  A:00 X:FF Y:00 P:26 SP:FF CYC:7136
C7AB  29 80     AND #$80                        A:00 X:FF Y:00 P:26 SP:FF CYC:7140
C7AD  F0 F9     BEQ $C7A8                       A:00 X:FF Y:00 P:26 SP:FF CYC:7142
C7A8  AD 02 20  LDA $2002 = 00                  A:00 X:FF Y:00 P:26 SP:FF CYC:7145
C7AB  29 80     AND #$80                        A:00 X:FF Y:00 P:26 SP:FF CYC:7149
C7AD  F0 F9     BEQ $C7A8                       A:00 X:FF Y:00 P:26 SP:FF CYC:7151
C7A8  AD 02 20  LDA $2002 = 00                  A:00 X:FF Y:00 P:26 SP:FF CYC:7154
C7AB  29 80     AND #$80                        A:00 X:FF Y:00 P:26 SP:FF CYC:7158
C7AD  F0 F9     BEQ $C7A8                       A:00 X:FF Y:00 P:26 SP:FF CYC:7160
C7A8  AD 02 20  LDA $2002 = 00                  A:00 X:FF Y:00 P:26 SP:FF CYC:7163
C7AB  29 80     AND #$80                        A:00 X:FF Y:00 P:26 SP:FF CYC:7167
C7AD  F0 F9     BEQ $C7A8                       A:00 X:FF Y:00 P:26 SP:FF CYC:7169
C7A8  AD 02 20  LDA $2002 = 00                  A:00 X:FF Y:00 P:26 SP:FF CYC:7172
C7AB  29 80     AND #$80                        A:00 X:FF Y:00 P:26 SP:FF CYC:7176
C7AD  F0 F9     BEQ $C7A8                       A:00 X:FF Y:00 P:26 SP:FF CYC:7178
C7A8  AD 02 20  LDA $2002 = 00                  A:00 X:FF Y:00 P:26 SP:FF CYC:7181
C7AB  29 80     AND #$80                        A:00 X:FF Y:00 P:26 SP:FF CYC:7185
C7AD  F0 F9     BEQ $C7A8                       A:00 X:FF Y:00 P:26 SP:FF CYC:7187
C7A8  AD 02 20  LDA $2002 = 00                  A:00 X:FF Y:00 P:26 SP:FF CYC:7190
C7AB  29 80     AND #$80                        A:00 X:FF Y:00 P:26 SP:FF CYC:7194
C7AD  F0 F9     BEQ $C7A8                       A:00 X:FF Y:00 P:26 SP:FF CYC:7196
C7A8  AD 02 20  LDA $2002 = 00                  A:00 X:FF Y:00 P:26 SP:FF CYC:7199
C7AB  29 80     AND #$80                        A:00 X:FF Y:00 P:26 SP:FF CYC:7203
C7AD  F0 F9     BEQ $C7A8                       A:00 X:FF Y:00 P:26 SP:FF CYC:7205
C7A8  AD 02 20  LDA $2002 = 00                  A:00 X:FF Y:00 P:26 SP:FF CYC:7208
C7AB  29 80     AND #$80                        A:00 X:FF Y:00 P:26 SP:FF CYC:7212
C7AD  F0 F9     BEQ $C7A8                       A:00 X:FF Y:00 P:26 SP:FF CYC:7214
C7A8  AD 02 20  LDA $2002 = 00                  A:00 X:FF Y:00 P:26 SP:FF CYC:7217
C7AB  29 80     AND #$80                        A:00 X:FF Y:00 P:26 SP:FF CYC:7221
C7AD  F0 F9     BEQ $C7A8                       A:00 X:FF Y:00 P:26 SP:FF CYC:7223
C7A8  AD 02 20  LDA $2002 = 00                  A:00 X:FF Y:00 P:26 SP:FF CYC:7226
C7AB  29 80     AND #$80                        A:00 X:FF Y:00 P:26 SP:FF CYC:7230
C7AD  F0 F9     BEQ $C7A8                       A:00 X:FF Y:00 P:26 SP:FF CYC:7232
C7A8  AD 02 20  LDA $2002 = 00                  A:00 X:FF Y:00 P:26 SP:FF CYC:7235
C7AB  29 80     AND #$80                        A:00 X:FF Y:00 P:26 SP:FF CYC:7239
C7AD  F0 F9     BEQ $C7A8                       A:00 X:FF Y:00 P:26 SP:FF CYC:7241
C7A8  AD 02 20  LDA $2002 = 00                  A:00 X:FF Y:00 P:26 SP:FF CYC:7244
C7AB  29 80     AND #$80                        A:00 X:FF Y:00 P:26 SP:FF CYC:7248
C7AD  F0 F9     BEQ $C7A8                       A:00 X:FF Y:00 P:26 SP:FF CYC:7250
C7A8  AD 02 20  LDA $2002 = 00                  A:00 X:FF Y:00 P:26 SP:FF CYC:7253
C7AB  29 80     AND #$80                        A:00 X:FF Y:00 P:26 SP:FF CYC:7257
C7AD  F0 F9     BEQ $C7A8                       A:00 X:FF Y:00 P:26 SP:FF CYC:7259
C7A8  AD 02 20  LDA $2002 = 00                  A:00 X:FF Y:00 P:26 SP:FF CYC:7262
C7AB  29 80     AND #$80                        A:00 X:FF Y:00 P:26 SP:FF CYC:7266
C7AD  F0 F9     BEQ $C7A8                       A:00 X:FF Y:00 P:26 SP:FF CYC:7268
C7A8  AD 02 20  LDA $2002 = 00                  A:00 X:FF Y:00 P:26 SP:FF CYC:7271
C7AB  29 80     AND #$80                        A:00 X:FF Y:00 P:26 SP:FF CYC:7275
C7AD  F0 F9     BEQ $C7A8                       A:00 X:FF Y:00 P:26 SP:FF CYC:7277
C7A8  AD 02 20  LDA $2002 = 00                  A:00 X:FF Y:00 P:26 SP:FF CYC:7280
C7AB  29 80     AND #$80                        A:00 X:FF Y:00 P:26 SP:FF CYC:7284
C7AD  F0 F9     BEQ $C7A8                       A:00 X:FF Y:00 P:26 SP:FF CYC:7286
C7A8  AD 02 20  LDA $2002 = 00                  A:00 X:FF Y:00 P:26 SP:FF CYC:7289
C7AB  29 80     AND #$80                        A:00 X:FF Y:00 P:26 SP:FF CYC:7293
C7AD  F0 F9     BEQ $C7A8                       A:00 X:FF Y:00 P:26 SP:FF CYC:7295
C7A8  AD 02 20  LDA $2002 = 00                  A:00 X:FF Y:00 P:26 SP:FF CYC:7298
C7AB  29 80     AND #$80                        A:00 X:FF Y:00 P:26 SP:FF CYC:7302
C7AD  F0 F9     BEQ $C7A8                       A:00 X:FF Y:00 P:26 SP:FF CYC:7304
C7A8  AD 02 20  LDA $2002 = 00                  A:00 X:FF Y:00 P:26 SP:FF CYC:7307
C7AB  29 80     AND #$80                        A:00 X:FF Y:00 P:26 SP:FF CYC:7311
C7AD  F0 F9     BEQ $C7A8                       A:00 X:FF Y:00 P:26 SP:FF CYC:7313
C7A8  AD 02 20  LDA $2002 = 00                  A:00 X:FF Y:00 P:26 SP:FF CYC:7316
C7AB  29 80     AND #$80                        A:00 X:FF Y:00 P:26 SP:FF CYC:7320
C7AD  F0 F9     BEQ $C7A8                       A:00 X:FF Y:00 P:26 SP:FF CYC:7322
C7A8  AD 02 20  LDA $2002 = 00                  A:00 X:FF Y:00 P:26 SP:FF CYC:7325
C7AB  29 80     AND #$80                        A:00 X:FF Y:00 P:26 SP:FF CYC:7329
C7AD  F0 F9     BEQ $C7A8                       A:00 X:FF Y:00 P:26 SP:FF CYC:7331
C7A8  AD 02 20  LDA $2002 = 00                  A:00 X:FF Y:00 P:26 SP:FF CYC:7334
C7AB  29 80     AND #$80                        A:00 X:FF Y:00 P:26 SP:FF CYC:7338
C7AD  F0 F9     BEQ $C7A8                       A:00 X:FF Y:00 P:26 SP:FF CYC:7340
C7A8  AD 02 20  LDA $2002 = 00                  A:00 X:FF Y:00 P:26 SP:FF CYC:7343
C7AB  29 80     AND #$80                        A:00 X:FF Y:00 P:26 SP:FF CYC:7347
C7AD  F0 F9     BEQ $C7A8                       A:00 X:FF Y:00 P:26 SP:FF CYC:7349
C7A8  AD 02 20  LDA $2002 = 00                  A:00 X:FF Y:00 P:26 SP:FF CYC:7352
C7AB  29 80     AND #$80                        A:00 X:FF Y:00 P:26 SP:FF CYC:7356
C7AD  F0 F9     BEQ $C7A8                       A:00 X:FF Y:00 P:26 SP:FF CYC:7358
C7A8  AD 02 20  LDA $2002 = 00                  A:00 X:FF Y:00 P:26 SP:FF CYC:7361
C7AB  29 80     AND #$80                        A:00 X:FF Y:00 P:26 SP:FF CYC:7365
C7AD  F0 F9     BEQ $C7A8                       A:00 X:FF Y:00 P:26 SP:FF CYC:7367
C7A8  AD 02 20  LDA $2002 = 00                  A:00 X:FF Y:00 P:26 SP:FF CYC:7370
C7AB  29 80     AND #$80                        A:00 X:FF Y:00 P:26 SP:FF CYC:7374
C7AD  F0 F9     BEQ $C7A8                       A:00 X:FF Y:00 P:26 SP:FF CYC:7376
C7A8  AD 02 20  LDA $2002 = 00                  A:00 X:FF Y:00 P:26 SP:FF CYC:7379
C7AB  29 80     AND #$80                        A:00 X:FF Y:00 P:26 SP:FF CYC:7383
C7AD  F0 F9     BEQ $C7A8                       A:00 X:FF Y:00 P:26 SP:FF CYC:7385
C7A8  AD 02 20  LDA $2002 = 00                  A:00 X:FF Y:00 P:26 SP:FF CYC:7388
C7AB  29 80     AND #$80                        A:00 X:FF Y:00 P:26 SP:FF CYC:7392
C7AD  F0 F9     BEQ $C7A8                       A:00 X:FF Y:00 P:26 SP:FF CYC:7394
C7A8  AD 02 20  LDA $2002 = 00                  A:00 X:FF Y:00 P:26 SP:FF CYC:7397
C7AB  29 80     AND #$80                        A:00 X:FF Y:00 P:26 SP:FF CYC:7401
C7AD  F0 F9     BEQ $C7A8                       A:00 X:FF Y:00 P:26 SP:FF CYC:7403
C7A8  AD 02 20  LDA $2002 = 00                  A:00 X:FF Y:00 P:26 SP:FF CYC:7406
C7AB  29 80     AND #$80                        A:00 X:FF Y:00 P:26 SP:FF CYC:7410
C7AD  F0 F9     BEQ $C7A8                       A:00 X:FF Y:00 P:26 SP:FF CYC:7412
C7A8  AD 02 20  LDA $2002 = 00                  A:00 X:FF Y:00 P:26 SP:FF CYC:7415
C7AB  29 80     AND #$80                        A:00 X:FF Y:00 P:26 SP:FF CYC:7419
C7AD  F0 F9     BEQ $C7A8                       A:00 X:FF Y:00 P:26 SP:FF CYC:7421
C7A8  AD 02 20  LDA $2002 = 00                  A:00 X:FF Y:00 P:26 SP:FF CYC:7424
C7AB  29 80     AND #$80                        A:00 X:FF Y:00 P:26 SP:FF CYC:7428
C7AD  F0 F9     BEQ $C7A8                       A:00 X:FF Y:00 P:26 SP:FF CYC:7430
C7A8  AD 02 20  LDA $2002 = 00                  A:00 X:FF Y:00 P:26 SP:FF CYC:7433
C7AB  29 80     AND #$80                        A:00 X:FF Y:00 P:26 SP:FF CYC:7437
C7AD  F0 F9     BEQ $C7A8                       A:00 X:FF Y:00 P:26 SP:FF CYC:7439
C7A8  AD 02 20  LDA $2002 = 00                  A:00 X:FF Y:00 P:26 SP:FF CYC:7442
C7AB  29 80     AND #$80                        A:00 X:FF Y:00 P:26 SP:FF CYC:7446
C7AD  F0 F9     BEQ $C7A8                       A:00 X:FF Y:00 P:26 SP:FF CYC:7448
C7A8  AD 02 20  LDA $2002 = 00                  A:00 X:FF Y:00 P:26 SP:FF CYC:7451
C7AB  29 80     AND #$80                        A:00 X:FF Y:00 P:26 SP:FF CYC:7455
C7AD  F0 F9     BEQ $C7A8                       A:00 X:FF Y:00 P:26 SP:FF CYC:7457
C7A8  AD 02 20  LDA $2002 = 00                  A:00 X:FF Y:00 P:26 SP:FF CYC:7460
C7AB  29 80     AND #$80                        A:00 X:FF Y:00 P:26 SP:FF CYC:7464
C7AD  F0 F9     BEQ $C7A8                       A:00 X:FF Y:00 P:26 SP:FF CYC:7466
C7A8  AD 02 20  LDA $2002 = 00                  A:00 X:FF Y:00 P:26 SP:FF CYC:7469
C7AB  29 80     AND #$80                        A:00 X:FF Y:00 P:26 SP:FF CYC:7473
C7AD  F0 F9     BEQ $C7A8                       A:00 X:FF Y:00 P:26 SP:FF CYC:7475
C7A8  AD 02 20  LDA $2002 = 00                  A:00 X:FF Y:00 P:26 SP:FF CYC:7478
C7AB  29 80     AND #$80                        A:00 X:FF Y:00 P:26 SP:FF CYC:7482
C7AD  F0 F9     BEQ $C7A8                       A:00 X:FF Y:00 P:26 SP:FF CYC:7484
C7A8  AD 02 20  LDA $2002 = 00                  A:00 X:FF Y:00 P:26 SP:FF CYC:7487
C7AB  29 80     AND #$80                        A:00 X:FF Y:00 P:26 SP:FF CYC:7491
C7AD  F0 F9     BEQ $C7A8                       A:00 X:FF Y:00 P:26 SP:FF CYC:7493
C7A8  AD 02 20  LDA $2002 = 00                  A:00 X:FF Y:00 P:26 SP:FF CYC:7496
C7AB  29 80     AND #$80                        A:00 X:FF Y:00 P:26 SP:FF CYC:7500
C7AD  F0 F9     BEQ $C7A8                       A:00 X:FF Y:00 P:26 SP:FF CYC:7502
C7A8  AD 02 20  LDA $2002 = 00                  A:00 X:FF Y:00 P:26 SP:FF CYC:7505
C7AB  29 80     AND #$80                        A:00 X:FF Y:00 P:26 SP:FF CYC:7509
C7AD  F0 F9     BEQ $C7A8                       A:00 X:FF Y:00 P:26 SP:FF CYC:7511
C7A8  AD 02 20  LDA $2002 = 00                  A:00 X:FF Y:00 P:26 SP:FF CYC:7514
C7AB  29 80     AND #$80                        A:00 X:FF Y:00 P:26 SP:FF CYC:7518
C7AD  F0 F9     BEQ $C7A8                       A:00 X:FF Y:00 P:26 SP:FF CYC:7520
C7A8  AD 02 20  LDA $2002 = 00                  A:00 X:FF Y:00 P:26 SP:FF CYC:7523
C7AB  29 80     AND #$80                        A:00 X:FF Y:00 P:26 SP:FF CYC:7527
C7AD  F0 F9     BEQ $C7A8                       A:00 X:FF Y:00 P:26 SP:FF CYC:7529
C7A8  AD 02 20  LDA $2002 = 00                  A:00 X:FF Y:00 P:26 SP:FF CYC:7532
C7AB  29 80     AND #$80                        A:00 X:FF Y:00 P:26 SP:FF CYC:7536
C7AD  F0 F9     BEQ $C7A8                       A:00 X:FF Y:00 P:26 SP:FF CYC:7538
C7A8  AD 02 20  LDA $2002 = 00                  A:00 X:FF Y:00 P:26 SP:FF CYC:7541
C7AB  29 80     AND #$80                        A:00 X:FF Y:00 P:26 SP:FF CYC:7545
C7AD  F0 F9     BEQ $C7A8                       A:00 X:FF Y:00 P:26 SP:FF CYC:7547
C7A8  AD 02 20  LDA $2002 = 00                  A:00 X:FF Y:00 P:26 SP:FF CYC:7550
C7AB  29 80     AND #$80                        A:00 X:FF Y:00 P:26 SP:FF CYC:7554
C7AD  F0 F9     BEQ $C7A8                       A:00 X:FF Y:00 P:26 SP:FF CYC:7556
C7A8  AD 02 20  LDA $2002 = 00                  A:00 X:FF Y:00 P:26 SP:FF CYC:7559
C7AB  29 80     AND #$80                        A:00 X:FF Y:00 P:26 SP:FF CYC:7563
C7AD  F0 F9     BEQ $C7A8                       A:00 X:FF Y:00 P:26 SP:FF CYC:7565
C7A8  AD 02 20  LDA $2002 = 00                  A:00 X:FF Y:00 P:26 SP:FF CYC:7568
C7AB  29 80     AND #$80                        A:00 X:FF Y:00 P:26 SP:FF CYC:7572
C7AD  F0 F9     BEQ $C7A8                       A:00 X:FF Y:00 P:26 SP:FF CYC:7574
C7A8  AD 02 20  LDA $2002 = 00                  A:00 X:FF Y:00 P:26 SP:FF CYC:7577
C7AB  29 80     AND #$80                        A:00 X:FF Y:00 P:26 SP:FF CYC:7581
C7AD  F0 F9     BEQ $C7A8                       A:00 X:FF Y:00 P:26 SP:FF CYC:7583
C7A8  AD 02 20  LDA $2002 = 00                  A:00 X:FF Y:00 P:26 SP:FF CYC:7586
C7AB  29 80     AND #$80                        A:00 X:FF Y:00 P:26 SP:FF CYC:7590
C7AD  F0 F9     BEQ $C7A8                       A:00 X:FF Y:00 P:26 SP:FF CYC:7592
C7A8  AD 02 20  LDA $2002 = 00                  A:00 X:FF Y:00 P:26 SP:FF CYC:7595
C7AB  29 80     AND #$80                        A:00 X:FF Y:00 P:26 SP:FF CYC:7599
C7AD  F0 F9     BEQ $C7A8                       A:00 X:FF Y:00 P:26 SP:FF CYC:7601
C7A8  AD 02 20  LDA $2002 = 00                  A:00 X:FF Y:00 P:26 SP:FF CYC:7604
C7AB  29 80     AND #$80                        A:00 X:FF Y:00 P:26 SP:FF CYC:7608
C7AD  F0 F9     BEQ $C7A8                       A:00 X:FF Y:00 P:26 SP:FF CYC:7610
C7A8  AD 02 20  LDA $2002 = 00                  A:00 X:FF Y:00 P:26 SP:FF CYC:7613
C7AB  29 80     AND #$80                        A:00 X:FF Y:00 P:26 SP:FF CYC:7617
C7AD  F0 F9     BEQ $C7A8                       A:00 X:FF Y:00 P:26 SP:FF CYC:7619
C7A8  AD 02 20  LDA $2002 = 00                  A:00 X:FF Y:00 P:26 SP:FF CYC:7622
C7AB  29 80     AND #$80                        A:00 X:FF Y:00 P:26 SP:FF CYC:7626
C7AD  F0 F9     BEQ $C7A8                       A:00 X:FF Y:00 P:26 SP:FF CYC:7628
C7A8  AD 02 20  LDA $2002 = 00                  A:00 X:FF Y:00 P:26 SP:FF CYC:7631
C7AB  29 80     AND #$80                        A:00 X:FF Y:00 P:26 SP:FF CYC:7635
C7AD  F0 F9     BEQ $C7A8                       A:00 X:FF Y:00 P:26 SP:FF CYC:7637
C7A8  AD 02 20  LDA $2002 = 00                  A:00 X:FF Y:00 P:26 SP:FF CYC:7640
C7AB  29 80     AND #$80                        A:00 X:FF Y:00 P:26 SP:FF CYC:7644
C7AD  F0 F9     BEQ $C7A8                       A:00 X:FF Y:00 P:26 SP:FF CYC:7646
C7A8  AD 02 20  LDA $2002 = 00                  A:00 X:FF Y:00 P:26 SP:FF CYC:7649
C7AB  29 80     AND #$80                        A:00 X:FF Y:00 P:26 SP:FF CYC:7653
C7AD  F0 F9     BEQ $C7A8                       A:00 X:FF Y:00 P:26 SP:FF CYC:7655
C7A8  AD 02 20  LDA $2002 = 00                  A:00 X:FF Y:00 P:26 SP:FF CYC:7658
C7AB  29 80     AND #$80                        A:00 X:FF Y:00 P:26 SP:FF CYC:7662
C7AD  F0 F9     BEQ $C7A8                       A:00 X:FF Y:00 P:26 SP:FF CYC:7664
C7A8  AD 02 20  LDA $2002 = 00                  A:00 X:FF Y:00 P:26 SP:FF CYC:7667
C7AB  29 80     AND #$80                        A:00 X:FF Y:00 P:26 SP:FF CYC:7671
C7AD  F0 F9     BEQ $C7A8                       A:00 X:FF Y:00 P:26 SP:FF CYC:7673
C7A8  AD 02 20  LDA $2002 = 00                  A:00 X:FF Y:00 P:26 SP:FF CYC:7676
C7AB  29 80     AND #$80                        A:00 X:FF Y:00 P:26 SP:FF CYC:7680
C7AD  F0 F9     BEQ $C7A8                       A:00 X:FF Y:00 P:26 SP:FF CYC:7682
C7A8  AD 02 20  LDA $2002 = 00                  A:00 X:FF Y:00 P:26 SP:FF CYC:7685
C7AB  29 80     AND #$80                        A:00 X:FF Y:00 P:26 SP:FF CYC:7689
C7AD  F0 F9     BEQ $C7A8                       A:00 X:FF Y:00 P:26 SP:FF CYC:7691
C7A8  AD 02 20  LDA $2002 = 00                  A:00 X:FF Y:00 P:26 SP:FF CYC:7694
C7AB  29 80     AND #$80                        A:00 X:FF Y:00 P:26 SP:FF CYC:7698
C7AD  F0 F9     BEQ $C7A8                       A:00 X:FF Y:00 P:26 SP:FF CYC:7700
C7A8  AD 02 20  LDA $2002 = 00                  A:00 X:FF Y:00 P:26 SP:FF CYC:7703
C7AB  29 80     AND #$80                        A:00 X:FF Y:00 P:26 SP:FF CYC:7707
C7AD  F0 F9     BEQ $C7A8                       A:00 X:FF Y:00 P:26 SP:FF CYC:7709
C7A8  AD 02 20  LDA $2002 = 00                  A:00 X:FF Y:00 P:26 SP:FF CYC:7712
C7AB  29 80     AND #$80                        A:00 X:FF Y:00 P:26 SP:FF CYC:7716
C7AD  F0 F9     BEQ $C7A8                       A:00 X:FF Y:00 P:26 SP:FF CYC:7718
C7A8  AD 02 20  LDA $2002 = 00                  A:00 X:FF Y:00 P:26 SP:FF CYC:7721
C7AB  29 80     AND #$80                        A:00 X:FF Y:00 P:26 SP:FF CYC:7725
C7AD  F0 F9     BEQ $C7A8                       A:00 X:FF Y:00 P:26 SP:FF CYC:7727
C7A8  AD 02 20  LDA $2002 = 00                  A:00 X:FF Y:00 P:26 SP:FF CYC:7730
C7AB  29 80     AND #$80                        A:00 X:FF Y:00 P:26 SP:FF CYC:7734
C7AD  F0 F9     BEQ $C7A8                       A:00 X:FF Y:00 P:26 SP:FF CYC:7736
C7A8  AD 02 20  LDA $2002 = 00                  A:00 X:FF Y:00 P:26 SP:FF CYC:7739
C7AB  29 80     AND #$80                        A:00 X:FF Y:00 P:26 SP:FF CYC:7743
C7AD  F0 F9     BEQ $C7A8                       A:00 X:FF Y:00 P:26 SP:FF CYC:7745
C7A8  AD 02 20  LDA $2002 = 00                  A:00 X:FF Y:00 P:26 SP:FF CYC:7748
C7AB  29 80     AND #$80                        A:00 X:FF Y:00 P:26 SP:FF CYC:7752
C7AD  F0 F9     BEQ $C7A8                       A:00 X:FF Y:00 P:26 SP:FF CYC:7754
C7A8  AD 02 20  LDA $2002 = 00                  A:00 X:FF Y:00 P:26 SP:FF CYC:7757
C7AB  29 80     AND #$80                        A:00 X:FF Y:00 P:26 SP:FF CYC:7761
C7AD  F0 F9     BEQ $C7A8                       A:00 X:FF Y:00 P:26 SP:FF CYC:7763
C7A8  AD 02 20  LDA $2002 = 00                  A:00 X:FF Y:00 P:26 SP:FF CYC:7766
C7AB  29 80     AND #$80                        A:00 X:FF Y:00 P:26 SP:FF CYC:7770
C7AD  F0 F9     BEQ $C7A8                       A:00 X:FF Y:00 P:26 SP:FF CYC:7772
C7A8  AD 02 20  LDA $2002 = 00                  A:00 X:FF Y:00 P:26 SP:FF CYC:7775
C7AB  29 80     AND #$80                        A:00 X:FF Y:00 P:26 SP:FF CYC:7779
C7AD  F0 F9     BEQ $C7A8                       A:00 X:FF Y:00 P:26 SP:FF CYC:7781
C7A8  AD 02 20  LDA $2002 = 00                  A:00 X:FF Y:00 P:26 SP:FF CYC:7784
C7AB  29 80     AND #$80                        A:00 X:FF Y:00 P:26 SP:FF CYC:7788
C7AD  F0 F9     BEQ $C7A8                       A:00 X:FF Y:00 P:26 SP:FF CYC:7790
C7A8  AD 02 20  LDA $2002 = 00                  A:00 X:FF Y:00 P:26 SP:FF CYC:7793
C7AB  29 80     AND #$80                        A:00 X:FF Y:00 P:26 SP:FF CYC:7797
C7AD  F0 F9     BEQ $C7A8                       A:00 X:FF Y:00 P:26 SP:FF CYC:7799
C7A8  AD 02 20  LDA $2002 = 00                  A:00 X:FF Y:00 P:26 SP:FF CYC:7802
C7AB  29 80     AND #$80                        A:00 X:FF Y:00 P:26 SP:FF CYC:7806
C7AD  F0 F9     BEQ $C7A8                       A:00 X:FF Y:00 P:26 SP:FF CYC:7808
C7A8  AD 02 20  LDA $2002 = 00                  A:00 X:FF Y:00 P:26 SP:FF CYC:7811
C7AB  29 80     AND #$80                        A:00 X:FF Y:00 P:26 SP:FF CYC:7815
C7AD  F0 F9     BEQ $C7A8                       A:00 X:FF Y:00 P:26 SP:FF CYC:7817
C7A8  AD 02 20  LDA $2002 = 00                  A:00 X:FF Y:00 P:26 SP:FF CYC:7820
C7AB  29 80     AND #$80                        A:00 X:FF Y:00 P:26 SP:FF CYC:7824
C7AD  F0 F9     BEQ $C7A8                       A:00 X:FF Y:00 P:26 SP:FF CYC:7826
C7A8  AD 02 20  LDA $2002 = 00                  A:00 X:FF Y:00 P:26 SP:FF CYC:7829
C7AB  29 80     AND #$80                        A:00 X:FF Y:00 P:26 SP:FF CYC:7833
C7AD  F0 F9     BEQ $C7A8                       A:00 X:FF Y:00 P:26 SP:FF CYC:7835
C7A8  AD 02 20  LDA $2002 = 00                  A:00 X:FF Y:00 P:26 SP:FF CYC:7838
C7AB  29 80     AND #$80                        A:00 X:FF Y:00 P:26 SP:FF CYC:7842
C7AD  F0 F9     BEQ $C7A8                       A:00 X:FF Y:00 P:26 SP:FF CYC:7844
C7A8  AD 02 20  LDA $2002 = 00                  A:00 X:FF Y:00 P:26 SP:FF CYC:7847
C7AB  29 80     AND #$80                        A:00 X:FF Y:00 P:26 SP:FF CYC:7851
C7AD  F0 F9     BEQ $C7A8                       A:00 X:FF Y:00 P:26 SP:FF CYC:7853
C7A8  AD 02 20  LDA $2002 = 00                  A:00 X:FF Y:00 P:26 SP:FF CYC:7856
C7AB  29 80     AND #$80                        A:00 X:FF Y:00 P:26 SP:FF CYC:7860
C7AD  F0 F9     BEQ $C7A8                       A:00 X:FF Y:00 P:26 SP:FF CYC:7862
C7A8  AD 02 20  LDA $2002 = 00                  A:00 X:FF Y:00 P:26 SP:FF CYC:7865
C7AB  29 80     AND #$80                        A:00 X:FF Y:00 P:26 SP:FF CYC:7869
C7AD  F0 F9     BEQ $C7A8                       A:00 X:FF Y:00 P:26 SP:FF CYC:7871
C7A8  AD 02 20  LDA $2002 = 00                  A:00 X:FF Y:00 P:26 SP:FF CYC:7874
C7AB  29 80     AND #$80                        A:00 X:FF Y:00 P:26 SP:FF CYC:7878
C7AD  F0 F9     BEQ $C7A8                       A:00 X:FF Y:00 P:26 SP:FF CYC:7880
C7A8  AD 02 20  LDA $2002 = 00                  A:00 X:FF Y:00 P:26 SP:FF CYC:7883
C7AB  29 80     AND #$80                        A:00 X:FF Y:00 P:26 SP:FF CYC:7887
C7AD  F0 F9     BEQ $C7A8                       A:00 X:FF Y:00 P:26 SP:FF CYC:7889
C7A8  AD 02 20  LDA $2002 = 00                  A:00 X:FF Y:00 P:26 SP:FF CYC:7892
C7AB  29 80     AND #$80                        A:00 X:FF Y:00 P:26 SP:FF CYC:7896
C7AD  F0 F9     BEQ $C7A8                       A:00 X:FF Y:00 P:26 SP:FF CYC:7898
C7A8  AD 02 20  LDA $2002 = 00                  A:00 X:FF Y:00 P:26 SP:FF CYC:7901
C7AB  29 80     AND #$80                        A:00 X:FF Y:00 P:26 SP:FF CYC:7905
C7AD  F0 F9     BEQ $C7A8                       A:00 X:FF Y:00 P:26 SP:FF CYC:7907
C7A8  AD 02 20  LDA $2002 = 00                  A:00 X:FF Y:00 P:26 SP:FF CYC:7910
C7AB  29 80     AND #$80                        A:00 X:FF Y:00 P:26 SP:FF CYC:7914
C7AD  F0 F9     BEQ $C7A8                       A:00 X:FF Y:00 P:26 SP:FF CYC:7916
C7A8  AD 02 20  LDA $2002 = 00                  A:00 X:FF Y:00 P:26 SP:FF CYC:7919
C7AB  29 80     AND #$80                        A:00 X:FF Y:00 P:26 SP:FF CYC:7923
C7AD  F0 F9     BEQ $C7A8                       A:00 X:FF Y:00 P:26 SP:FF CYC:7925
C7A8  AD 02 20  LDA $2002 = 00                  A:00 X:FF Y:00 P:26 SP:FF CYC:7928
C7AB  29 80     AND #$80                        A:00 X:FF Y:00 P:26 SP:FF CYC:7932
C7AD  F0 F9     BEQ $C7A8                       A:00 X:FF Y:00 P:26 SP:FF CYC:7934
C7A8  AD 02 20  LDA $2002 = 00                  A:00 X:FF Y:00 P:26 SP:FF CYC:7937
C7AB  29 80     AND #$80                        A:00 X:FF Y:00 P:26 SP:FF CYC:7941
C7AD  F0 F9     BEQ $C7A8                       A:00 X:FF Y:00 P:26 SP:FF CYC:7943
C7A8  AD 02 20  LDA $2002 = 00                  A:00 X:FF Y:00 P:26 SP:FF CYC:7946
C7AB  29 80     AND #$80                        A:00 X:FF Y:00 P:26 SP:FF CYC:7950
C7AD  F0 F9     BEQ $C7A8                       A:00 X:FF Y:00 P:26 SP:FF CYC:7952
C7A8  AD 02 20  LDA $2002 = 00                  A:00 X:FF Y:00 P:26 SP:FF CYC:7955
C7AB  29 80     AND #$80                        A:00 X:FF Y:00 P:26 SP:FF CYC:7959
C7AD  F0 F9     BEQ $C7A8                       A:00 X:FF Y:00 P:26 SP:FF CYC:7961
C7A8  AD 02 20  LDA $2002 = 00                  A:00 X:FF Y:00 P:26 SP:FF CYC:7964
C7AB  29 80     AND #$80                        A:00 X:FF Y:00 P:26 SP:FF CYC:7968
C7AD  F0 F9     BEQ $C7A8                       A:00 X:FF Y:00 P:26 SP:FF CYC:7970
C7A8  AD 02 20  LDA $2002 = 00                  A:00 X:FF Y:00 P:26 SP:FF CYC:7973
C7AB  29 80     AND #$80                        A:00 X:FF Y:00 P:26 SP:FF CYC:7977
C7AD  F0 F9     BEQ $C7A8                       A:00 X:FF Y:00 P:26 SP:FF CYC:7979
C7A8  AD 02 20  LDA $2002 = 00                  A:00 X:FF Y:00 P:26 SP:FF CYC:7982
C7AB  29 80     AND #$80                        A:00 X:FF Y:00 P:26 SP:FF CYC:7986
C7AD  F0 F9     BEQ $C7A8                       A:00 X:FF Y:00 P:26 SP:FF CYC:7988
C7A8  AD 02 20  LDA $2002 = 00                  A:00 X:FF Y:00 P:26 SP:FF CYC:7991
C7AB  29 80     AND #$80                        A:00 X:FF Y:00 P:26 SP:FF CYC:7995
C7AD  F0 F9     BEQ $C7A8                       A:00 X:FF Y:00 P:26 SP:FF CYC:7997
C7A8  AD 02 20  LDA $2002 = 00                  A:00 X:FF Y:00 P:26 SP:FF CYC:8000
C7AB  29 80     AND #$80                        A:00 X:FF Y:00 P:26 SP:FF CYC:8004
C7AD  F0 F9     BEQ $C7A8                       A:00 X:FF Y:00 P:26 SP:FF CYC:8006
C7A8  AD 02 20  LDA $2002 = 00                  A:00 X:FF Y:00 P:26 SP:FF CYC:8009
C7AB  29 80     AND #$80                        A:00 X:FF Y:00 P:26 SP:FF CYC:8013
C7AD  F0 F9     BEQ $C7A8                       A:00 X:FF Y:00 P:26 SP:FF CYC:8015
C7A8  AD 02 20  LDA $2002 = 00                  A:00 X:FF Y:00 P:26 SP:FF CYC:8018
C7AB  29 80     AND #$80                        A:00 X:FF Y:00 P:26 SP:FF CYC:8022
C7AD  F0 F9     BEQ $C7A8                       A:00 X:FF Y:00 P:26 SP:FF CYC:8024
C7A8  AD 02 20  LDA $2002 = 00                  A:00 X:FF Y:00 P:26 SP:FF CYC:8027
C7AB  29 80     AND #$80                        A:00 X:FF Y:00 P:26 SP:FF CYC:8031
C7AD  F0 F9     BEQ $C7A8                       A:00 X:FF Y:00 P:26 SP:FF CYC:8033
C7A8  AD 02 20  LDA $2002 = 00                  A:00 X:FF Y:00 P:26 SP:FF CYC:8036
C7AB  29 80     AND #$80                        A:00 X:FF Y:00 P:26 SP:FF CYC:8040
C7AD  F0 F9     BEQ $C7A8                       A:00 X:FF Y:00 P:26 SP:FF CYC:8042
C7A8  AD 02 20  LDA $2002 = 00                  A:00 X:FF Y:00 P:26 SP:FF CYC:8045
C7AB  29 80     AND #$80                        A:00 X:FF Y:00 P:26 SP:FF CYC:8049
C7AD  F0 F9     BEQ $C7A8                       A:00 X:FF Y:00 P:26 SP:FF CYC:8051
C7A8  AD 02 20  LDA $2002 = 00                  A:00 X:FF Y:00 P:26 SP:FF CYC:8054
C7AB  29 80     AND #$80                        A:00 X:FF Y:00 P:26 SP:FF CYC:8058
C7AD  F0 F9     BEQ $C7A8                       A:00 X:FF Y:00 P:26 SP:FF CYC:8060
C7A8  AD 02 20  LDA $2002 = 00                  A:00 X:FF Y:00 P:26 SP:FF CYC:8063
C7AB  29 80     AND #$80                        A:00 X:FF Y:00 P:26 SP:FF CYC:8067
C7AD  F0 F9     BEQ $C7A8                       A:00 X:FF Y:00 P:26 SP:FF CYC:8069
C7A8  AD 02 20  LDA $2002 = 00                  A:00 X:FF Y:00 P:26 SP:FF CYC:8072
C7AB  29 80     AND #$80                        A:00 X:FF Y:00 P:26 SP:FF CYC:8076
C7AD  F0 F9     BEQ $C7A8                       A:00 X:FF Y:00 P:26 SP:FF CYC:8078
C7A8  AD 02 20  LDA $2002 = 00                  A:00 X:FF Y:00 P:26 SP:FF CYC:8081
C7AB  29 80     AND #$80                        A:00 X:FF Y:00 P:26 SP:FF CYC:8085
C7AD  F0 F9     BEQ $C7A8                       A:00 X:FF Y:00 P:26 SP:FF CYC:8087
C7A8  AD 02 20  LDA $2002 = 00                  A:00 X:FF Y:00 P:26 SP:FF CYC:8090
C7AB  29 80     AND #$80                        A:00 X:FF Y:00 P:26 SP:FF CYC:8094
C7AD  F0 F9     BEQ $C7A8                       A:00 X:FF Y:00 P:26 SP:FF CYC:8096
C7A8  AD 02 20  LDA $2002 = 00                  A:00 X:FF Y:00 P:26 SP:FF CYC:8099
C7AB  29 80     AND #$80                        A:00 X:FF Y:00 P:26 SP:FF CYC:8103
C7AD  F0 F9     BEQ $C7A8                       A:00 X:FF Y:00 P:26 SP:FF CYC:8105
C7A8  AD 02 20  LDA $2002 = 00                  A:00 X:FF Y:00 P:26 SP:FF CYC:8108
C7AB  29 80     AND #$80                        A:00 X:FF Y:00 P:26 SP:FF CYC:8112
C7AD  F0 F9     BEQ $C7A8                       A:00 X:FF Y:00 P:26 SP:FF CYC:8114
C7A8  AD 02 20  LDA $2002 = 00                  A:00 X:FF Y:00 P:26 SP:FF CYC:8117
C7AB  29 80     AND #$80                        A:00 X:FF Y:00 P:26 SP:FF CYC:8121
C7AD  F0 F9     BEQ $C7A8                       A:00 X:FF Y:00 P:26 SP:FF CYC:8123
C7A8  AD 02 20  LDA $2002 = 00                  A:00 X:FF Y:00 P:26 SP:FF CYC:8126
C7AB  29 80     AND #$80                        A:00 X:FF Y:00 P:26 SP:FF CYC:8130
C7AD  F0 F9     BEQ $C7A8                       A:00 X:FF Y:00 P:26 SP:FF CYC:8132
C7A8  AD 02 20  LDA $2002 = 00                  A:00 X:FF Y:00 P:26 SP:FF CYC:8135
C7AB  29 80     AND #$80                        A:00 X:FF Y:00 P:26 SP:FF CYC:8139
C7AD  F0 F9     BEQ $C7A8                       A:00 X:FF Y:00 P:26 SP:FF CYC:8141
C7A8  AD 02 20  LDA $2002 = 00                  A:00 X:FF Y:00 P:26 SP:FF CYC:8144
C7AB  29 80     AND #$80                        A:00 X:FF Y:00 P:26 SP:FF CYC:8148
C7AD  F0 F9     BEQ $C7A8                       A:00 X:FF Y:00 P:26 SP:FF CYC:8150
C7A8  AD 02 20  LDA $2002 = 00                  A:00 X:FF Y:00 P:26 SP:FF CYC:8153
C7AB  29 80     AND #$80                        A:00 X:FF Y:00 P:26 SP:FF CYC:8157
C7AD  F0 F9     BEQ $C7A8                       A:00 X:FF Y:00 P:26 SP:FF CYC:8159
C7A8  AD 02 20  LDA $2002 = 00                  A:00 X:FF Y:00 P:26 SP:FF CYC:8162
C7AB  29 80     AND #$80                        A:00 X:FF Y:00 P:26 SP:FF CYC:8166
C7AD  F0 F9     BEQ $C7A8                       A:00 X:FF Y:00 P:26 SP:FF CYC:8168
C7A8  AD 02 20  LDA $2002 = 00                  A:00 X:FF Y:00 P:26 SP:FF CYC:8171
C7AB  29 80     AND #$80                        A:00 X:FF Y:00 P:26 SP:FF CYC:8175
C7AD  F0 F9     BEQ $C7A8                       A:00 X:FF Y:00 P:26 SP:FF CYC:8177
C7A8  AD 02 20  LDA $2002 = 00                  A:00 X:FF Y:00 P:26 SP:FF CYC:8180
C7AB  29 80     AND #$80                        A:00 X:FF Y:00 P:26 SP:FF CYC:8184
C7AD  F0 F9     BEQ $C7A8                       A:00 X:FF Y:00 P:26 SP:FF CYC:8186
C7A8  AD 02 20  LDA $2002 = 00                  A:00 X:FF Y:00 P:26 SP:FF CYC:8189
C7AB  29 80     AND #$80                        A:00 X:FF Y:00 P:26 SP:FF CYC:8193
C7AD  F0 F9     BEQ $C7A8                       A:00 X:FF Y:00 P:26 SP:FF CYC:8195
C7A8  AD 02 20  LDA $2002 = 00                  A:00 X:FF Y:00 P:26 SP:FF CYC:8198
C7AB  29 80     AND #$80                        A:00 X:FF Y:00 P:26 SP:FF CYC:8202
C7AD  F0 F9     BEQ $C7A8                       A:00 X:FF Y:00 P:26 SP:FF CYC:8204
C7A8  AD 02 20  LDA $2002 = 00                  A:00 X:FF Y:00 P:26 SP:FF CYC:8207
C7AB  29 80     AND #$80                        A:00 X:FF Y:00 P:26 SP:FF CYC:8211
C7AD  F0 F9     BEQ $C7A8                       A:00 X:FF Y:00 P:26 SP:FF CYC:8213
C7A8  AD 02 20  LDA $2002 = 00                  A:00 X:FF Y:00 P:26 SP:FF CYC:8216
C7AB  29 80     AND #$80                        A:00 X:FF Y:00 P:26 SP:FF CYC:8220
C7AD  F0 F9     BEQ $C7A8                       A:00 X:FF Y:00 P:26 SP:FF CYC:8222
C7A8  AD 02 20  LDA $2002 = 00                  A:00 X:FF Y:00 P:26 SP:FF CYC:8225
C7AB  29 80     AND #$80                        A:00 X:FF Y:00 P:26 SP:FF CYC:8229
C7AD  F0 F9     BEQ $C7A8                       A:00 X:FF Y:00 P:26 SP:FF CYC:8231
C7A8  AD 02 20  LDA $2002 = 00                  A:00 X:FF Y:00 P:26 SP:FF CYC:8234
C7AB  29 80     AND #$80                        A:00 X:FF Y:00 P:26 SP:FF CYC:8238
C7AD  F0 F9     BEQ $C7A8                       A:00 X:FF Y:00 P:26 SP:FF CYC:8240
C7A8  AD 02 20  LDA $2002 = 00                  A:00 X:FF Y:00 P:26 SP:FF CYC:8243
C7AB  29 80     AND #$80                        A:00 X:FF Y:00 P:26 SP:FF CYC:8247
C7AD  F0 F9     BEQ $C7A8                       A:00 X:FF Y:00 P:26 SP:FF CYC:8249
C7A8  AD 02 20  LDA $2002 = 00                  A:00 X:FF Y:00 P:26 SP:FF CYC:8252
C7AB  29 80     AND #$80                        A:00 X:FF Y:00 P:26 SP:FF CYC:8256
C7AD  F0 F9     BEQ $C7A8                       A:00 X:FF Y:00 P:26 SP:FF CYC:8258
C7A8  AD 02 20  LDA $2002 = 00                  A:00 X:FF Y:00 P:26 SP:FF CYC:8261
C7AB  29 80     AND #$80                        A:00 X:FF Y:00 P:26 SP:FF CYC:8265
C7AD  F0 F9     BEQ $C7A8                       A:00 X:FF Y:00 P:26 SP:FF CYC:8267
C7A8  AD 02 20  LDA $2002 = 00                  A:00 X:FF Y:00 P:26 SP:FF CYC:8270
C7AB  29 80     AND #$80                        A:00 X:FF Y:00 P:26 SP:FF CYC:8274
C7AD  F0 F9     BEQ $C7A8                       A:00 X:FF Y:00 P:26 SP:FF CYC:8276
C7A8  AD 02 20  LDA $2002 = 00                  A:00 X:FF Y:00 P:26 SP:FF CYC:8279
C7AB  29 80     AND #$80                        A:00 X:FF Y:00 P:26 SP:FF CYC:8283
C7AD  F0 F9     BEQ $C7A8                       A:00 X:FF Y:00 P:26 SP:FF CYC:8285
C7A8  AD 02 20  LDA $2002 = 00                  A:00 X:FF Y:00 P:26 SP:FF CYC:8288
C7AB  29 80     AND #$80                        A:00 X:FF Y:00 P:26 SP:FF CYC:8292
C7AD  F0 F9     BEQ $C7A8                       A:00 X:FF Y:00 P:26 SP:FF CYC:8294
C7A8  AD 02 20  LDA $2002 = 00                  A:00 X:FF Y:00 P:26 SP:FF CYC:8297
C7AB  29 80     AND #$80                        A:00 X:FF Y:00 P:26 SP:FF CYC:8301
C7AD  F0 F9     BEQ $C7A8                       A:00 X:FF Y:00 P:26 SP:FF CYC:8303
C7A8  AD 02 20  LDA $2002 = 00                  A:00 X:FF Y:00 P:26 SP:FF CYC:8306
C7AB  29 80     AND #$80                        A:00 X:FF Y:00 P:26 SP:FF CYC:8310
C7AD  F0 F9     BEQ $C7A8                       A:00 X:FF Y:00 P:26 SP:FF CYC:8312
C7A8  AD 02 20  LDA $2002 = 00                  A:00 X:FF Y:00 P:26 SP:FF CYC:8315
C7AB  29 80     AND #$80                        A:00 X:FF Y:00 P:26 SP:FF CYC:8319
C7AD  F0 F9     BEQ $C7A8                       A:00 X:FF Y:00 P:26 SP:FF CYC:8321
C7A8  AD 02 20  LDA $2002 = 00                  A:00 X:FF Y:00 P:26 SP:FF CYC:8324
C7AB  29 80     AND #$80                        A:00 X:FF Y:00 P:26 SP:FF CYC:8328
C7AD  F0 F9     BEQ $C7A8                       A:00 X:FF Y:00 P:26 SP:FF CYC:8330
C7A8  AD 02 20  LDA $2002 = 00                  A:00 X:FF Y:00 P:26 SP:FF CYC:8333
C7AB  29 80     AND #$80                        A:00 X:FF Y:00 P:26 SP:FF CYC:8337
C7AD  F0 F9     BEQ $C7A8                       A:00 X:FF Y:00 P:26 SP:FF CYC:8339
C7A8  AD 02 20  LDA $2002 = 00                  A:00 X:FF Y:00 P:26 SP:FF CYC:8342
C7AB  29 80     AND #$80                        A:00 X:FF Y:00 P:26 SP:FF CYC:8346
C7AD  F0 F9     BEQ $C7A8                       A:00 X:FF Y:00 P:26 SP:FF CYC:8348
C7A8  AD 02 20  LDA $2002 = 00                  A:00 X:FF Y:00 P:26 SP:FF CYC:8351
C7AB  29 80     AND #$80                        A:00 X:FF Y:00 P:26 SP:FF CYC:8355
C7AD  F0 F9     BEQ $C7A8                       A:00 X:FF Y:00 P:26 SP:FF CYC:8357
C7A8  AD 02 20  LDA $2002 = 00                  A:00 X:FF Y:00 P:26 SP:FF CYC:8360
C7AB  29 80     AND #$80                        A:00 X:FF Y:00 P:26 SP:FF CYC:8364
C7AD  F0 F9     BEQ $C7A8                       A:00 X:FF Y:00 P:26 SP:FF CYC:8366
C7A8  AD 02 20  LDA $2002 = 00                  A:00 X:FF Y:00 P:26 SP:FF CYC:8369
C7AB  29 80     AND #$80                        A:00 X:FF Y:00 P:26 SP:FF CYC:8373
C7AD  F0 F9     BEQ $C7A8                       A:00 X:FF Y:00 P:26 SP:FF CYC:8375
C7A8  AD 02 20  LDA $2002 = 00                  A:00 X:FF Y:00 P:26 SP:FF CYC:8378
C7AB  29 80     AND #$80                        A:00 X:FF Y:00 P:26 SP:FF CYC:8382
C7AD  F0 F9     BEQ $C7A8                       A:00 X:FF Y:00 P:26 SP:FF CYC:8384
C7A8  AD 02 20  LDA $2002 = 00                  A:00 X:FF Y:00 P:26 SP:FF CYC:8387
C7AB  29 80     AND #$80                        A:00 X:FF Y:00 P:26 SP:FF CYC:8391
C7AD  F0 F9     BEQ $C7A8                       A:00 X:FF Y:00 P:26 SP:FF CYC:8393
C7A8  AD 02 20  LDA $2002 = 00                  A:00 X:FF Y:00 P:26 SP:FF CYC:8396
C7AB  29 80     AND #$80                        A:00 X:FF Y:00 P:26 SP:FF CYC:8400
C7AD  F0 F9     BEQ $C7A8                       A:00 X:FF Y:00 P:26 SP:FF CYC:8402
C7A8  AD 02 20  LDA $2002 = 00                  A:00 X:FF Y:00 P:26 SP:FF CYC:8405
C7AB  29 80     AND #$80                        A:00 X:FF Y:00 P:26 SP:FF CYC:8409
C7AD  F0 F9     BEQ $C7A8                       A:00 X:FF Y:00 P:26 SP:FF CYC:8411
C7A8  AD 02 20  LDA $2002 = 00                  A:00 X:FF Y:00 P:26 SP:FF CYC:8414
C7AB  29 80     AND #$80                        A:00 X:FF Y:00 P:26 SP:FF CYC:8418
C7AD  F0 F9     BEQ $C7A8                       A:00 X:FF Y:00 P:26 SP:FF CYC:8420
C7A8  AD 02 20  LDA $2002 = 00                  A:00 X:FF Y:00 P:26 SP:FF CYC:8423
C7AB  29 80     AND #$80                        A:00 X:FF Y:00 P:26 SP:FF CYC:8427
C7AD  F0 F9     BEQ $C7A8                       A:00 X:FF Y:00 P:26 SP:FF CYC:8429
C7A8  AD 02 20  LDA $2002 = 00                  A:00 X:FF Y:00 P:26 SP:FF CYC:8432
C7AB  29 80     AND #$80                        A:00 X:FF Y:00 P:26 SP:FF CYC:8436
C7AD  F0 F9     BEQ $C7A8                       A:00 X:FF Y:00 P:26 SP:FF CYC:8438
C7A8  AD 02 20  LDA $2002 = 00                  A:00 X:FF Y:00 P:26 SP:FF CYC:8441
C7AB  29 80     AND #$80                        A:00 X:FF Y:00 P:26 SP:FF CYC:8445
C7AD  F0 F9     BEQ $C7A8                       A:00 X:FF Y:00 P:26 SP:FF CYC:8447
C7A8  AD 02 20  LDA $2002 = 00                  A:00 X:FF Y:00 P:26 SP:FF CYC:8450
C7AB  29 80     AND #$80                        A:00 X:FF Y:00 P:26 SP:FF CYC:8454
C7AD  F0 F9     BEQ $C7A8                       A:00 X:FF Y:00 P:26 SP:FF CYC:8456
C7A8  AD 02 20  LDA $2002 = 00                  A:00 X:FF Y:00 P:26 SP:FF CYC:8459
C7AB  29 80     AND #$80                        A:00 X:FF Y:00 P:26 SP:FF CYC:8463
C7AD  F0 F9     BEQ $C7A8                       A:00 X:FF Y:00 P:26 SP:FF CYC:8465
C7A8  AD 02 20  LDA $2002 = 00                  A:00 X:FF Y:00 P:26 SP:FF CYC:8468
C7AB  29 80     AND #$80                        A:00 X:FF Y:00 P:26 SP:FF CYC:8472
C7AD  F0 F9     BEQ $C7A8                       A:00 X:FF Y:00 P:26 SP:FF CYC:8474
C7A8  AD 02 20  LDA $2002 = 00                  A:00 X:FF Y:00 P:26 SP:FF CYC:8477
C7AB  29 80     AND #$80                        A:00 X:FF Y:00 P:26 SP:FF CYC:8481
C7AD  F0 F9     BEQ $C7A8                       A:00 X:FF Y:00 P:26 SP:FF CYC:8483
C7A8  AD 02 20  LDA $2002 = 00                  A:00 X:FF Y:00 P:26 SP:FF CYC:8486
C7AB  29 80     AND #$80                        A:00 X:FF Y:00 P:26 SP:FF CYC:8490
C7AD  F0 F9     BEQ $C7A8                       A:00 X:FF Y:00 P:26 SP:FF CYC:8492
C7A8  AD 02 20  LDA $2002 = 00                  A:00 X:FF Y:00 P:26 SP:FF CYC:8495
C7AB  29 80     AND #$80                        A:00 X:FF Y:00 P:26 SP:FF CYC:8499
C7AD  F0 F9     BEQ $C7A8                       A:00 X:FF Y:00 P:26 SP:FF CYC:8501
C7A8  AD 02 20  LDA $2002 = 00                  A:00 X:FF Y:00 P:26 SP:FF CYC:8504
C7AB  29 80     AND #$80                        A:00 X:FF Y:00 P:26 SP:FF CYC:8508
C7AD  F0 F9     BEQ $C7A8                       A:00 X:FF Y:00 P:26 SP:FF CYC:8510
C7A8  AD 02 20  LDA $2002 = 00                  A:00 X:FF Y:00 P:26 SP:FF CYC:8513
C7AB  29 80     AND #$80                        A:00 X:FF Y:00 P:26 SP:FF CYC:8517
C7AD  F0 F9     BEQ $C7A8                       A:00 X:FF Y:00 P:26 SP:FF CYC:8519
C7A8  AD 02 20  LDA $2002 = 00                  A:00 X:FF Y:00 P:26 SP:FF CYC:8522
C7AB  29 80     AND #$80                        A:00 X:FF Y:00 P:26 SP:FF CYC:8526
C7AD  F0 F9     BEQ $C7A8                       A:00 X:FF Y:00 P:26 SP:FF CYC:8528
C7A8  AD 02 20  LDA $2002 = 00                  A:00 X:FF Y:00 P:26 SP:FF CYC:8531
C7AB  29 80     AND #$80                        A:00 X:FF Y:00 P:26 SP:FF CYC:8535
C7AD  F0 F9     BEQ $C7A8                       A:00 X:FF Y:00 P:26 SP:FF CYC:8537
C7A8  AD 02 20  LDA $2002 = 00                  A:00 X:FF Y:00 P:26 SP:FF CYC:8540
C7AB  29 80     AND #$80                        A:00 X:FF Y:00 P:26 SP:FF CYC:8544
C7AD  F0 F9     BEQ $C7A8                       A:00 X:FF Y:00 P:26 SP:FF CYC:8546
C7A8  AD 02 20  LDA $2002 = 00                  A:00 X:FF Y:00 P:26 SP:FF CYC:8549
C7AB  29 80     AND #$80                        A:00 X:FF Y:00 P:26 SP:FF CYC:8553
C7AD  F0 F9     BEQ $C7A8                       A:00 X:FF Y:00 P:26 SP:FF CYC:8555
C7A8  AD 02 20  LDA $2002 = 00                  A:00 X:FF Y:00 P:26 SP:FF CYC:8558
C7AB  29 80     AND #$80                        A:00 X:FF Y:00 P:26 SP:FF CYC:8562
C7AD  F0 F9     BEQ $C7A8                       A:00 X:FF Y:00 P:26 SP:FF CYC:8564
C7A8  AD 02 20  LDA $2002 = 00                  A:00 X:FF Y:00 P:26 SP:FF CYC:8567
C7AB  29 80     AND #$80                        A:00 X:FF Y:00 P:26 SP:FF CYC:8571
C7AD  F0 F9     BEQ $C7A8                       A:00 X:FF Y:00 P:26 SP:FF CYC:8573
C7A8  AD 02 20  LDA $2002 = 00                  A:00 X:FF Y:00 P:26 SP:FF CYC:8576
C7AB  29 80     AND #$80                        A:00 X:FF Y:00 P:26 SP:FF CYC:8580
C7AD  F0 F9     BEQ $C7A8                       A:00 X:FF Y:00 P:26 SP:FF CYC:8582
C7A8  AD 02 20  LDA $2002 = 00                  A:00 X:FF Y:00 P:26 SP:FF CYC:8585
C7AB  29 80     AND #$80                        A:00 X:FF Y:00 P:26 SP:FF CYC:8589
C7AD  F0 F9     BEQ $C7A8                       A:00 X:FF Y:00 P:26 SP:FF CYC:8591
C7A8  AD 02 20  LDA $2002 = 00                  A:00 X:FF Y:00 P:26 SP:FF CYC:8594
C7AB  29 80     AND #$80                        A:00 X:FF Y:00 P:26 SP:FF CYC:8598
C7AD  F0 F9     BEQ $C7A8                       A:00 X:FF Y:00 P:26 SP:FF CYC:8600
C7A8  AD 02 20  LDA $2002 = 00                  A:00 X:FF Y:00 P:26 SP:FF CYC:8603
C7AB  29 80     AND #$80                        A:00 X:FF Y:00 P:26 SP:FF CYC:8607
C7AD  F0 F9     BEQ $C7A8                       A:00 X:FF Y:00 P:26 SP:FF CYC:8609
C7A8  AD 02 20  LDA $2002 = 00                  A:00 X:FF Y:00 P:26 SP:FF CYC:8612
C7AB  29 80     AND #$80                        A:00 X:FF Y:00 P:26 SP:FF CYC:8616
C7AD  F0 F9     BEQ $C7A8                       A:00 X:FF Y:00 P:26 SP:FF CYC:8618
C7A8  AD 02 20  LDA $2002 = 00                  A:00 X:FF Y:00 P:26 SP:FF CYC:8621
C7AB  29 80     AND #$80                        A:00 X:FF Y:00 P:26 SP:FF CYC:8625
C7AD  F0 F9     BEQ $C7A8                       A:00 X:FF Y:00 P:26 SP:FF CYC:8627
C7A8  AD 02 20  LDA $2002 = 00                  A:00 X:FF Y:00 P:26 SP:FF CYC:8630
C7AB  29 80     AND #$80                        A:00 X:FF Y:00 P:26 SP:FF CYC:8634
C7AD  F0 F9     BEQ $C7A8                       A:00 X:FF Y:00 P:26 SP:FF CYC:8636
C7A8  AD 02 20  LDA $2002 = 00                  A:00 X:FF Y:00 P:26 SP:FF CYC:8639
C7AB  29 80     AND #$80                        A:00 X:FF Y:00 P:26 SP:FF CYC:8643
C7AD  F0 F9     BEQ $C7A8                       A:00 X:FF Y:00 P:26 SP:FF CYC:8645
C7A8  AD 02 20  LDA $2002 = 00                  A:00 X:FF Y:00 P:26 SP:FF CYC:8648
C7AB  29 80     AND #$80                        A:00 X:FF Y:00 P:26 SP:FF CYC:8652
C7AD  F0 F9     BEQ $C7A8                       A:00 X:FF Y:00 P:26 SP:FF CYC:8654
C7A8  AD 02 20  LDA $2002 = 00                  A:00 X:FF Y:00 P:26 SP:FF CYC:8657
C7AB  29 80     AND #$80                        A:00 X:FF Y:00 P:26 SP:FF CYC:8661
C7AD  F0 F9     BEQ $C7A8                       A:00 X:FF Y:00 P:26 SP:FF CYC:8663
C7A8  AD 02 20  LDA $2002 = 00                  A:00 X:FF Y:00 P:26 SP:FF CYC:8666
C7AB  29 80     AND #$80                        A:00 X:FF Y:00 P:26 SP:FF CYC:8670
C7AD  F0 F9     BEQ $C7A8                       A:00 X:FF Y:00 P:26 SP:FF CYC:8672
C7A8  AD 02 20  LDA $2002 = 00                  A:00 X:FF Y:00 P:26 SP:FF CYC:8675
C7AB  29 80     AND #$80                        A:00 X:FF Y:00 P:26 SP:FF CYC:8679
C7AD  F0 F9     BEQ $C7A8                       A:00 X:FF Y:00 P:26 SP:FF CYC:8681
C7A8  AD 02 20  LDA $2002 = 00                  A:00 X:FF Y:00 P:26 SP:FF CYC:8684
C7AB  29 80     AND #$80                        A:00 X:FF Y:00 P:26 SP:FF CYC:8688
C7AD  F0 F9     BEQ $C7A8                       A:00 X:FF Y:00 P:26 SP:FF CYC:8690
C7A8  AD 02 20  LDA $2002 = 00                  A:00 X:FF Y:00 P:26 SP:FF CYC:8693
C7AB  29 80     AND #$80                        A:00 X:FF Y:00 P:26 SP:FF CYC:8697
C7AD  F0 F9     BEQ $C7A8                       A:00 X:FF Y:00 P:26 SP:FF CYC:8699
C7A8  AD 02 20  LDA $2002 = 00                  A:00 X:FF Y:00 P:26 SP:FF CYC:8702
C7AB  29 80     AND #$80                        A:00 X:FF Y:00 P:26 SP:FF CYC:8706
C7AD  F0 F9     BEQ $C7A8                       A:00 X:FF Y:00 P:26 SP:FF CYC:8708
C7A8  AD 02 20  LDA $2002 = 00                  A:00 X:FF Y:00 P:26 SP:FF CYC:8711
C7AB  29 80     AND #$80                        A:00 X:FF Y:00 P:26 SP:FF CYC:8715
C7AD  F0 F9     BEQ $C7A8                       A:00 X:FF Y:00 P:26 SP:FF CYC:8717
C7A8  AD 02 20  LDA $2002 = 00                  A:00 X:FF Y:00 P:26 SP:FF CYC:8720
C7AB  29 80     AND #$80                        A:00 X:FF Y:00 P:26 SP:FF CYC:8724
C7AD  F0 F9     BEQ $C7A8                       A:00 X:FF Y:00 P:26 SP:FF CYC:8726
C7A8  AD 02 20  LDA $2002 = 00                  A:00 X:FF Y:00 P:26 SP:FF CYC:8729
C7AB  29 80     AND #$80                        A:00 X:FF Y:00 P:26 SP:FF CYC:8733
C7AD  F0 F9     BEQ $C7A8                       A:00 X:FF Y:00 P:26 SP:FF CYC:8735
C7A8  AD 02 20  LDA $2002 = 00                  A:00 X:FF Y:00 P:26 SP:FF CYC:8738
C7AB  29 80     AND #$80                        A:00 X:FF Y:00 P:26 SP:FF CYC:8742
C7AD  F0 F9     BEQ $C7A8                       A:00 X:FF Y:00 P:26 SP:FF CYC:8744
C7A8  AD 02 20  LDA $2002 = 00                  A:00 X:FF Y:00 P:26 SP:FF CYC:8747
C7AB  29 80     AND #$80                        A:00 X:FF Y:00 P:26 SP:FF CYC:8751
C7AD  F0 F9     BEQ $C7A8                       A:00 X:FF Y:00 P:26 SP:FF CYC:8753
C7A8  AD 02 20  LDA $2002 = 00                  A:00 X:FF Y:00 P:26 SP:FF CYC:8756
C7AB  29 80     AND #$80                        A:00 X:FF Y:00 P:26 SP:FF CYC:8760
C7AD  F0 F9     BEQ $C7A8                       A:00 X:FF Y:00 P:26 SP:FF CYC:8762
C7A8  AD 02 20  LDA $2002 = 00                  A:00 X:FF Y:00 P:26 SP:FF CYC:8765
C7AB  29 80     AND #$80                        A:00 X:FF Y:00 P:26 SP:FF CYC:8769
C7AD  F0 F9     BEQ $C7A8                       A:00 X:FF Y:00 P:26 SP:FF CYC:8771
C7A8  AD 02 20  LDA $2002 = 00                  A:00 X:FF Y:00 P:26 SP:FF CYC:8774
C7AB  29 80     AND #$80                        A:00 X:FF Y:00 P:26 SP:FF CYC:8778
C7AD  F0 F9     BEQ $C7A8                       A:00 X:FF Y:00 P:26 SP:FF CYC:8780
C7A8  AD 02 20  LDA $2002 = 00                  A:00 X:FF Y:00 P:26 SP:FF CYC:8783
C7AB  29 80     AND #$80                        A:00 X:FF Y:00 P:26 SP:FF CYC:8787
C7AD  F0 F9     BEQ $C7A8                       A:00 X:FF Y:00 P:26 SP:FF CYC:8789
C7A8  AD 02 20  LDA $2002 = 00                  A:00 X:FF Y:00 P:26 SP:FF CYC:8792
C7AB  29 80     AND #$80                        A:00 X:FF Y:00 P:26 SP:FF CYC:8796
C7AD  F0 F9     BEQ $C7A8                       A:00 X:FF Y:00 P:26 SP:FF CYC:8798
C7A8  AD 02 20  LDA $2002 = 00                  A:00 X:FF Y:00 P:26 SP:FF CYC:8801
C7AB  29 80     AND #$80                        A:00 X:FF Y:00 P:26 SP:FF CYC:8805
C7AD  F0 F9     BEQ $C7A8                       A:00 X:FF Y:00 P:26 SP:FF CYC:8807
C7A8  AD 02 20  LDA $2002 = 00                  A:00 X:FF Y:00 P:26 SP:FF CYC:8810
C7AB  29 80     AND #$80                        A:00 X:FF Y:00 P:26 SP:FF CYC:8814
C7AD  F0 F9     BEQ $C7A8                       A:00 X:FF Y:00 P:26 SP:FF CYC:8816
C7A8  AD 02 20  LDA $2002 = 00                  A:00 X:FF Y:00 P:26 SP:FF CYC:8819
C7AB  29 80     AND #$80                        A:00 X:FF Y:00 P:26 SP:FF CYC:8823
C7AD  F0 F9     BEQ $C7A8                       A:00 X:FF Y:00 P:26 SP:FF CYC:8825
C7A8  AD 02 20  LDA $2002 = 00                  A:00 X:FF Y:00 P:26 SP:FF CYC:8828
C7AB  29 80     AND #$80                        A:00 X:FF Y:00 P:26 SP:FF CYC:8832
C7AD  F0 F9     BEQ $C7A8                       A:00 X:FF Y:00 P:26 SP:FF CYC:8834
C7A8  AD 02 20  LDA $2002 = 00                  A:00 X:FF Y:00 P:26 SP:FF CYC:8837
C7AB  29 80     AND #$80                        A:00 X:FF Y:00 P:26 SP:FF CYC:8841
C7AD  F0 F9     BEQ $C7A8                       A:00 X:FF Y:00 P:26 SP:FF CYC:8843
C7A8  AD 02 20  LDA $2002 = 00                  A:00 X:FF Y:00 P:26 SP:FF CYC:8846
C7AB  29 80     AND #$80                        A:00 X:FF Y:00 P:26 SP:FF CYC:8850
C7AD  F0 F9     BEQ $C7A8                       A:00 X:FF Y:00 P:26 SP:FF CYC:8852
C7A8  AD 02 20  LDA $2002 = 00                  A:00 X:FF Y:00 P:26 SP:FF CYC:8855
C7AB  29 80     AND #$80                        A:00 X:FF Y:00 P:26 SP:FF CYC:8859
C7AD  F0 F9     BEQ $C7A8                       A:00 X:FF Y:00 P:26 SP:FF CYC:8861
C7A8  AD 02 20  LDA $2002 = 00                  A:00 X:FF Y:00 P:26 SP:FF CYC:8864
C7AB  29 80     AND #$80                        A:00 X:FF Y:00 P:26 SP:FF CYC:8868
C7AD  F0 F9     BEQ $C7A8                       A:00 X:FF Y:00 P:26 SP:FF CYC:8870
C7A8  AD 02 20  LDA $2002 = 00                  A:00 X:FF Y:00 P:26 SP:FF CYC:8873
C7AB  29 80     AND #$80                        A:00 X:FF Y:00 P:26 SP:FF CYC:8877
C7AD  F0 F9     BEQ $C7A8                       A:00 X:FF Y:00 P:26 SP:FF CYC:8879
C7A8  AD 02 20  LDA $2002 = 00                  A:00 X:FF Y:00 P:26 SP:FF CYC:8882
C7AB  29 80     AND #$80                        A:00 X:FF Y:00 P:26 SP:FF CYC:8886
C7AD  F0 F9     BEQ $C7A8                       A:00 X:FF Y:00 P:26 SP:FF CYC:8888
C7A8  AD 02 20  LDA $2002 = 00                  A:00 X:FF Y:00 P:26 SP:FF CYC:8891
C7AB  29 80     AND #$80                        A:00 X:FF Y:00 P:26 SP:FF CYC:8895
C7AD  F0 F9     BEQ $C7A8                       A:00 X:FF Y:00 P:26 SP:FF CYC:8897
C7A8  AD 02 20  LDA $2002 = 00                  A:00 X:FF Y:00 P:26 SP:FF CYC:8900
C7AB  29 80     AND #$80                        A:00 X:FF Y:00 P:26 SP:FF CYC:8904
C7AD  F0 F9     BEQ $C7A8                       A:00 X:FF Y:00 P:26 SP:FF CYC:8906
C7A8  AD 02 20  LDA $2002 = 00                  A:00 X:FF Y:00 P:26 SP:FF CYC:8909
C7AB  29 80     AND #$80                        A:00 X:FF Y:00 P:26 SP:FF CYC:8913
C7AD  F0 F9     BEQ $C7A8                       A:00 X:FF Y:00 P:26 SP:FF CYC:8915
C7A8  AD 02 20  LDA $2002 = 00                  A:00 X:FF Y:00 P:26 SP:FF CYC:8918
C7AB  29 80     AND #$80                        A:00 X:FF Y:00 P:26 SP:FF CYC:8922
C7AD  F0 F9     BEQ $C7A8                       A:00 X:FF Y:00 P:26 SP:FF CYC:8924
C7A8  AD 02 20  LDA $2002 = 00                  A:00 X:FF Y:00 P:26 SP:FF CYC:8927
C7AB  29 80     AND #$80                        A:00 X:FF Y:00 P:26 SP:FF CYC:8931
C7AD  F0 F9     BEQ $C7A8                       A:00 X:FF Y:00 P:26 SP:FF CYC:8933
C7A8  AD 02 20  LDA $2002 = 00                  A:00 X:FF Y:00 P:26 SP:FF CYC:8936
C7AB  29 80     AND #$80                        A:00 X:FF Y:00 P:26 SP:FF CYC:8940
C7AD  F0 F9     BEQ $C7A8                       A:00 X:FF Y:00 P:26 SP:FF CYC:8942
C7A8  AD 02 20  LDA $2002 = 00                  A:00 X:FF Y:00 P:26 SP:FF CYC:8945
C7AB  29 80     AND #$80                        A:00 X:FF Y:00 P:26 SP:FF CYC:8949
C7AD  F0 F9     BEQ $C7A8                       A:00 X:FF Y:00 P:26 SP:FF CYC:8951
C7A8  AD 02 20  LDA $2002 = 00                  A:00 X:FF Y:00 P:26 SP:FF CYC:8954
C7AB  29 80     AND #$80                        A:00 X:FF Y:00 P:26 SP:FF CYC:8958
C7AD  F0 F9     BEQ $C7A8                       A:00 X:FF Y:00 P:26 SP:FF CYC:8960
C7A8  AD 02 20  LDA $2002 = 00                  A:00 X:FF Y:00 P:26 SP:FF CYC:8963
C7AB  29 80     AND #$80                        A:00 X:FF Y:00 P:26 SP:FF CYC:8967
C7AD  F0 F9     BEQ $C7A8                       A:00 X:FF Y:00 P:26 SP:FF CYC:8969
C7A8  AD 02 20  LDA $2002 = 00                  A:00 X:FF Y:00 P:26 SP:FF CYC:8972
C7AB  29 80     AND #$80                        A:00 X:FF Y:00 P:26 SP:FF CYC:8976
C7AD  F0 F9     BEQ $C7A8                       A:00 X:FF Y:00 P:26 SP:FF CYC:8978
C7A8  AD 02 20  LDA $2002 = 00                  A:00 X:FF Y:00 P:26 SP:FF CYC:8981
C7AB  29 80     AND #$80                        A:00 X:FF Y:00 P:26 SP:FF CYC:8985
C7AD  F0 F9     BEQ $C7A8                       A:00 X:FF Y:00 P:26 SP:FF CYC:8987
C7A8  AD 02 20  LDA $2002 = 00                  A:00 X:FF Y:00 P:26 SP:FF CYC:8990
C7AB  29 80     AND #$80                        A:00 X:FF Y:00 P:26 SP:FF CYC:8994
C7AD  F0 F9     BEQ $C7A8                       A:00 X:FF Y:00 P:26 SP:FF CYC:8996
C7A8  AD 02 20  LDA $2002 = 00                  A:00 X:FF Y:00 P:26 SP:FF CYC:8999
C7AB  29 80     AND #$80                        A:00 X:FF Y:00 P:26 SP:FF CYC:9003
C7AD  F0 F9     BEQ $C7A8                       A:00 X:FF Y:00 P:26 SP:FF CYC:9005
C7A8  AD 02 20  LDA $2002 = 00                  A:00 X:FF Y:00 P:26 SP:FF CYC:9008
C7AB  29 80     AND #$80                        A:00 X:FF Y:00 P:26 SP:FF CYC:9012
C7AD  F0 F9     BEQ $C7A8                       A:00 X:FF Y:00 P:26 SP:FF CYC:9014
C7A8  AD 02 20  LDA $2002 = 00                  A:00 X:FF Y:00 P:26 SP:FF CYC:9017
C7AB  29 80     AND #$80                        A:00 X:FF Y:00 P:26 SP:FF CYC:9021
C7AD  F0 F9     BEQ $C7A8                       A:00 X:FF Y:00 P:26 SP:FF CYC:9023
C7A8  AD 02 20  LDA $2002 = 00                  A:00 X:FF Y:00 P:26 SP:FF CYC:9026
C7AB  29 80     AND #$80                        A:00 X:FF Y:00 P:26 SP:FF CYC:9030
C7AD  F0 F9     BEQ $C7A8                       A:00 X:FF Y:00 P:26 SP:FF CYC:9032
C7A8  AD 02 20  LDA $2002 = 00                  A:00 X:FF Y:00 P:26 SP:FF CYC:9035
C7AB  29 80     AND #$80                        A:00 X:FF Y:00 P:26 SP:FF CYC:9039
C7AD  F0 F9     BEQ $C7A8                       A:00 X:FF Y:00 P:26 SP:FF CYC:9041
C7A8  AD 02 20  LDA $2002 = 00                  A:00 X:FF Y:00 P:26 SP:FF CYC:9044
C7AB  29 80     AND #$80                        A:00 X:FF Y:00 P:26 SP:FF CYC:9048
C7AD  F0 F9     BEQ $C7A8                       A:00 X:FF Y:00 P:26 SP:FF CYC:9050
C7A8  AD 02 20  LDA $2002 = 00                  A:00 X:FF Y:00 P:26 SP:FF CYC:9053
C7AB  29 80     AND #$80                        A:00 X:FF Y:00 P:26 SP:FF CYC:9057
C7AD  F0 F9     BEQ $C7A8                       A:00 X:FF Y:00 P:26 SP:FF CYC:9059
C7A8  AD 02 20  LDA $2002 = 00                  A:00 X:FF Y:00 P:26 SP:FF CYC:9062
C7AB  29 80     AND #$80                        A:00 X:FF Y:00 P:26 SP:FF CYC:9066
C7AD  F0 F9     BEQ $C7A8                       A:00 X:FF Y:00 P:26 SP:FF CYC:9068
C7A8  AD 02 20  LDA $2002 = 00                  A:00 X:FF Y:00 P:26 SP:FF CYC:9071
C7AB  29 80     AND #$80                        A:00 X:FF Y:00 P:26 SP:FF CYC:9075
C7AD  F0 F9     BEQ $C7A8                       A:00 X:FF Y:00 P:26 SP:FF CYC:9077
C7A8  AD 02 20  LDA $2002 = 00                  A:00 X:FF Y:00 P:26 SP:FF CYC:9080
C7AB  29 80     AND #$80                        A:00 X:FF Y:00 P:26 SP:FF CYC:9084
C7AD  F0 F9     BEQ $C7A8                       A:00 X:FF Y:00 P:26 SP:FF CYC:9086
C7A8  AD 02 20  LDA $2002 = 00                  A:00 X:FF Y:00 P:26 SP:FF CYC:9089
C7AB  29 80     AND #$80                        A:00 X:FF Y:00 P:26 SP:FF CYC:9093
C7AD  F0 F9     BEQ $C7A8                       A:00 X:FF Y:00 P:26 SP:FF CYC:9095
C7A8  AD 02 20  LDA $2002 = 00                  A:00 X:FF Y:00 P:26 SP:FF CYC:9098
C7AB  29 80     AND #$80                        A:00 X:FF Y:00 P:26 SP:FF CYC:9102
C7AD  F0 F9     BEQ $C7A8                       A:00 X:FF Y:00 P:26 SP:FF CYC:9104
C7A8  AD 02 20  LDA $2002 = 00                  A:00 X:FF Y:00 P:26 SP:FF CYC:9107
C7AB  29 80     AND #$80                        A:00 X:FF Y:00 P:26 SP:FF CYC:9111
C7AD  F0 F9     BEQ $C7A8                       A:00 X:FF Y:00 P:26 SP:FF CYC:9113
C7A8  AD 02 20  LDA $2002 = 00                  A:00 X:FF Y:00 P:26 SP:FF CYC:9116
C7AB  29 80     AND #$80                        A:00 X:FF Y:00 P:26 SP:FF CYC:9120
C7AD  F0 F9     BEQ $C7A8                       A:00 X:FF Y:00 P:26 SP:FF CYC:9122
C7A8  AD 02 20  LDA $2002 = 00                  A:00 X:FF Y:00 P:26 SP:FF CYC:9125
C7AB  29 80     AND #$80                        A:00 X:FF Y:00 P:26 SP:FF CYC:9129
C7AD  F0 F9     BEQ $C7A8                       A:00 X:FF Y:00 P:26 SP:FF CYC:9131
C7A8  AD 02 20  LDA $2002 = 00                  A:00 X:FF Y:00 P:26 SP:FF CYC:9134
C7AB  29 80     AND #$80                        A:00 X:FF Y:00 P:26 SP:FF CYC:9138
C7AD  F0 F9     BEQ $C7A8                       A:00 X:FF Y:00 P:26 SP:FF CYC:9140
C7A8  AD 02 20  LDA $2002 = 00                  A:00 X:FF Y:00 P:26 SP:FF CYC:9143
C7AB  29 80     AND #$80                        A:00 X:FF Y:00 P:26 SP:FF CYC:9147
C7AD  F0 F9     BEQ $C7A8                       A:00 X:FF Y:00 P:26 SP:FF CYC:9149
C7A8  AD 02 20  LDA $2002 = 00                  A:00 X:FF Y:00 P:26 SP:FF CYC:9152
C7AB  29 80     AND #$80                        A:00 X:FF Y:00 P:26 SP:FF CYC:9156
C7AD  F0 F9     BEQ $C7A8                       A:00 X:FF Y:00 P:26 SP:FF CYC:9158
C7A8  AD 02 20  LDA $2002 = 00                  A:00 X:FF Y:00 P:26 SP:FF CYC:9161
C7AB  29 80     AND #$80                        A:00 X:FF Y:00 P:26 SP:FF CYC:9165
C7AD  F0 F9     BEQ $C7A8                       A:00 X:FF Y:00 P:26 SP:FF CYC:9167
C7A8  AD 02 20  LDA $2002 = 00                  A:00 X:FF Y:00 P:26 SP:FF CYC:9170
C7AB  29 80     AND #$80                        A:00 X:FF Y:00 P:26 SP:FF CYC:9174
C7AD  F0 F9     BEQ $C7A8                       A:00 X:FF Y:00 P:26 SP:FF CYC:9176
C7A8  AD 02 20  LDA $2002 = 00                  A:00 X:FF Y:00 P:26 SP:FF CYC:9179
C7AB  29 80     AND #$80                        A:00 X:FF Y:00 P:26 SP:FF CYC:9183
C7AD  F0 F9     BEQ $C7A8                       A:00 X:FF Y:00 P:26 SP:FF CYC:9185
C7A8  AD 02 20  LDA $2002 = 00                  A:00 X:FF Y:00 P:26 SP:FF CYC:9188
C7AB  29 80     AND #$80                        A:00 X:FF Y:00 P:26 SP:FF CYC:9192
C7AD  F0 F9     BEQ $C7A8                       A:00 X:FF Y:00 P:26 SP:FF CYC:9194
C7A8  AD 02 20  LDA $2002 = 00                  A:00 X:FF Y:00 P:26 SP:FF CYC:9197
C7AB  29 80     AND #$80                        A:00 X:FF Y:00 P:26 SP:FF CYC:9201
C7AD  F0 F9     BEQ $C7A8                       A:00 X:FF Y:00 P:26 SP:FF CYC:9203
C7A8  AD 02 20  LDA $2002 = 00                  A:00 X:FF Y:00 P:26 SP:FF CYC:9206
C7AB  29 80     AND #$80                        A:00 X:FF Y:00 P:26 SP:FF CYC:9210
C7AD  F0 F9     BEQ $C7A8                       A:00 X:FF Y:00 P:26 SP:FF CYC:9212
C7A8  AD 02 20  LDA $2002 = 00                  A:00 X:FF Y:00 P:26 SP:FF CYC:9215
C7AB  29 80     AND #$80                        A:00 X:FF Y:00 P:26 SP:FF CYC:9219
C7AD  F0 F9     BEQ $C7A8                       A:00 X:FF Y:00 P:26 SP:FF CYC:9221
C7A8  AD 02 20  LDA $2002 = 00                  A:00 X:FF Y:00 P:26 SP:FF CYC:9224
C7AB  29 80     AND #$80                        A:00 X:FF Y:00 P:26 SP:FF CYC:9228
C7AD  F0 F9     BEQ $C7A8                       A:00 X:FF Y:00 P:26 SP:FF CYC:9230
C7A8  AD 02 20  LDA $2002 = 00                  A:00 X:FF Y:00 P:26 SP:FF CYC:9233
C7AB  29 80     AND #$80                        A:00 X:FF Y:00 P:26 SP:FF CYC:9237
C7AD  F0 F9     BEQ $C7A8                       A:00 X:FF Y:00 P:26 SP:FF CYC:9239
C7A8  AD 02 20  LDA $2002 = 00                  A:00 X:FF Y:00 P:26 SP:FF CYC:9242
C7AB  29 80     AND #$80                        A:00 X:FF Y:00 P:26 SP:FF CYC:9246
C7AD  F0 F9     BEQ $C7A8                       A:00 X:FF Y:00 P:26 SP:FF CYC:9248
C7A8  AD 02 20  LDA $2002 = 00                  A:00 X:FF Y:00 P:26 SP:FF CYC:9251
C7AB  29 80     AND #$80                        A:00 X:FF Y:00 P:26 SP:FF CYC:9255
C7AD  F0 F9     BEQ $C7A8                       A:00 X:FF Y:00 P:26 SP:FF CYC:9257
C7A8  AD 02 20  LDA $2002 = 00                  A:00 X:FF Y:00 P:26 SP:FF CYC:9260
C7AB  29 80     AND #$80                        A:00 X:FF Y:00 P:26 SP:FF CYC:9264
C7AD  F0 F9     BEQ $C7A8                       A:00 X:FF Y:00 P:26 SP:FF CYC:9266
C7A8  AD 02 20  LDA $2002 = 00                  A:00 X:FF Y:00 P:26 SP:FF CYC:9269
C7AB  29 80     AND #$80                        A:00 X:FF Y:00 P:26 SP:FF CYC:9273
C7AD  F0 F9     BEQ $C7A8                       A:00 X:FF Y:00 P:26 SP:FF CYC:9275
C7A8  AD 02 20  LDA $2002 = 00                  A:00 X:FF Y:00 P:26 SP:FF CYC:9278
C7AB  29 80     AND #$80                        A:00 X:FF Y:00 P:26 SP:FF CYC:9282
C7AD  F0 F9     BEQ $C7A8                       A:00 X:FF Y:00 P:26 SP:FF CYC:9284
C7A8  AD 02 20  LDA $2002 = 00                  A:00 X:FF Y:00 P:26 SP:FF CYC:9287
C7AB  29 80     AND #$80                        A:00 X:FF Y:00 P:26 SP:FF CYC:9291
C7AD  F0 F9     BEQ $C7A8                       A:00 X:FF Y:00 P:26 SP:FF CYC:9293
C7A8  AD 02 20  LDA $2002 = 00                  A:00 X:FF Y:00 P:26 SP:FF CYC:9296
C7AB  29 80     AND #$80                        A:00 X:FF Y:00 P:26 SP:FF CYC:9300
C7AD  F0 F9     BEQ $C7A8                       A:00 X:FF Y:00 P:26 SP:FF CYC:9302
C7A8  AD 02 20  LDA $2002 = 00                  A:00 X:FF Y:00 P:26 SP:FF CYC:9305
C7AB  29 80     AND #$80                        A:00 X:FF Y:00 P:26 SP:FF CYC:9309
C7AD  F0 F9     BEQ $C7A8                       A:00 X:FF Y:00 P:26 SP:FF CYC:9311
C7A8  AD 02 20  LDA $2002 = 00                  A:00 X:FF Y:00 P:26 SP:FF CYC:9314
C7AB  29 80     AND #$80                        A:00 X:FF Y:00 P:26 SP:FF CYC:9318
C7AD  F0 F9     BEQ $C7A8                       A:00 X:FF Y:00 P:26 SP:FF CYC:9320
C7A8  AD 02 20  LDA $2002 = 00                  A:00 X:FF Y:00 P:26 SP:FF CYC:9323
C7AB  29 80     AND #$80                        A:00 X:FF Y:00 P:26 SP:FF CYC:9327
C7AD  F0 F9     BEQ $C7A8                       A:00 X:FF Y:00 P:26 SP:FF CYC:9329
C7A8  AD 02 20  LDA $2002 = 00                  A:00 X:FF Y:00 P:26 SP:FF CYC:9332
C7AB  29 80     AND #$80                        A:00 X:FF Y:00 P:26 SP:FF CYC:9336
C7AD  F0 F9     BEQ $C7A8                       A:00 X:FF Y:00 P:26 SP:FF CYC:9338
C7A8  AD 02 20  LDA $2002 = 00                  A:00 X:FF Y:00 P:26 SP:FF CYC:9341
C7AB  29 80     AND #$80                        A:00 X:FF Y:00 P:26 SP:FF CYC:9345
C7AD  F0 F9     BEQ $C7A8                       A:00 X:FF Y:00 P:26 SP:FF CYC:9347
C7A8  AD 02 20  LDA $2002 = 00                  A:00 X:FF Y:00 P:26 SP:FF CYC:9350
C7AB  29 80     AND #$80                        A:00 X:FF Y:00 P:26 SP:FF CYC:9354
C7AD  F0 F9     BEQ $C7A8                       A:00 X:FF Y:00 P:26 SP:FF CYC:9356
C7A8  AD 02 20  LDA $2002 = 00                  A:00 X:FF Y:00 P:26 SP:FF CYC:9359
C7AB  29 80     AND #$80                        A:00 X:FF Y:00 P:26 SP:FF CYC:9363
C7AD  F0 F9     BEQ $C7A8                       A:00 X:FF Y:00 P:26 SP:FF CYC:9365
C7A8  AD 02 20  LDA $2002 = 00                  A:00 X:FF Y:00 P:26 SP:FF CYC:9368
C7AB  29 80     AND #$80                        A:00 X:FF Y:00 P:26 SP:FF CYC:9372
C7AD  F0 F9     BEQ $C7A8                       A:00 X:FF Y:00 P:26 SP:FF CYC:9374
C7A8  AD 02 20  LDA $2002 = 00                  A:00 X:FF Y:00 P:26 SP:FF CYC:9377
C7AB  29 80     AND #$80                        A:00 X:FF Y:00 P:26 SP:FF CYC:9381
C7AD  F0 F9     BEQ $C7A8                       A:00 X:FF Y:00 P:26 SP:FF CYC:9383
C7A8  AD 02 20  LDA $2002 = 00                  A:00 X:FF Y:00 P:26 SP:FF CYC:9386
C7AB  29 80     AND #$80                        A:00 X:FF Y:00 P:26 SP:FF CYC:9390
C7AD  F0 F9     BEQ $C7A8                       A:00 X:FF Y:00 P:26 SP:FF CYC:9392
C7A8  AD 02 20  LDA $2002 = 00                  A:00 X:FF Y:00 P:26 SP:FF CYC:9395
C7AB  29 80     AND #$80                        A:00 X:FF Y:00 P:26 SP:FF CYC:9399
C7AD  F0 F9     BEQ $C7A8                       A:00 X:FF Y:00 P:26 SP:FF CYC:9401
C7A8  AD 02 20  LDA $2002 = 00                  A:00 X:FF Y:00 P:26 SP:FF CYC:9404
C7AB  29 80     AND #$80                        A:00 X:FF Y:00 P:26 SP:FF CYC:9408
C7AD  F0 F9     BEQ $C7A8                       A:00 X:FF Y:00 P:26 SP:FF CYC:9410
C7A8  AD 02 20  LDA $2002 = 00                  A:00 X:FF Y:00 P:26 SP:FF CYC:9413
C7AB  29 80     AND #$80                        A:00 X:FF Y:00 P:26 SP:FF CYC:9417
C7AD  F0 F9     BEQ $C7A8                       A:00 X:FF Y:00 P:26 SP:FF CYC:9419
C7A8  AD 02 20  LDA $2002 = 00                  A:00 X:FF Y:00 P:26 SP:FF CYC:9422
C7AB  29 80     AND #$80                        A:00 X:FF Y:00 P:26 SP:FF CYC:9426
C7AD  F0 F9     BEQ $C7A8                       A:00 X:FF Y:00 P:26 SP:FF CYC:9428
C7A8  AD 02 20  LDA $2002 = 00                  A:00 X:FF Y:00 P:26 SP:FF CYC:9431
C7AB  29 80     AND #$80                        A:00 X:FF Y:00 P:26 SP:FF CYC:9435
C7AD  F0 F9     BEQ $C7A8                       A:00 X:FF Y:00 P:26 SP:FF CYC:9437
C7A8  AD 02 20  LDA $2002 = 00                  A:00 X:FF Y:00 P:26 SP:FF CYC:9440
C7AB  29 80     AND #$80                        A:00 X:FF Y:00 P:26 SP:FF CYC:9444
C7AD  F0 F9     BEQ $C7A8                       A:00 X:FF Y:00 P:26 SP:FF CYC:9446
C7A8  AD 02 20  LDA $2002 = 00                  A:00 X:FF Y:00 P:26 SP:FF CYC:9449
C7AB  29 80     AND #$80                        A:00 X:FF Y:00 P:26 SP:FF CYC:9453
C7AD  F0 F9     BEQ $C7A8                       A:00 X:FF Y:00 P:26 SP:FF CYC:9455
C7A8  AD 02 20  LDA $2002 = 00                  A:00 X:FF Y:00 P:26 SP:FF CYC:9458
C7AB  29 80     AND #$80                        A:00 X:FF Y:00 P:26 SP:FF CYC:9462
C7AD  F0 F9     BEQ $C7A8                       A:00 X:FF Y:00 P:26 SP:FF CYC:9464
C7A8  AD 02 20  LDA $2002 = 00                  A:00 X:FF Y:00 P:26 SP:FF CYC:9467
C7AB  29 80     AND #$80                        A:00 X:FF Y:00 P:26 SP:FF CYC:9471
C7AD  F0 F9     BEQ $C7A8                       A:00 X:FF Y:00 P:26 SP:FF CYC:9473
C7A8  AD 02 20  LDA $2002 = 00                  A:00 X:FF Y:00 P:26 SP:FF CYC:9476
C7AB  29 80     AND #$80                        A:00 X:FF Y:00 P:26 SP:FF CYC:9480
C7AD  F0 F9     BEQ $C7A8                       A:00 X:FF Y:00 P:26 SP:FF CYC:9482
C7A8  AD 02 20  LDA $2002 = 00                  A:00 X:FF Y:00 P:26 SP:FF CYC:9485
C7AB  29 80     AND #$80                        A:00 X:FF Y:00 P:26 SP:FF CYC:9489
C7AD  F0 F9     BEQ $C7A8                       A:00 X:FF Y:00 P:26 SP:FF CYC:9491
C7A8  AD 02 20  LDA $2002 = 00                  A:00 X:FF Y:00 P:26 SP:FF CYC:9494
C7AB  29 80     AND #$80                        A:00 X:FF Y:00 P:26 SP:FF CYC:9498
C7AD  F0 F9     BEQ $C7A8                       A:00 X:FF Y:00 P:26 SP:FF CYC:9500
C7A8  AD 02 20  LDA $2002 = 00                  A:00 X:FF Y:00 P:26 SP:FF CYC:9503
C7AB  29 80     AND #$80                        A:00 X:FF Y:00 P:26 SP:FF CYC:9507
C7AD  F0 F9     BEQ $C7A8                       A:00 X:FF Y:00 P:26 SP:FF CYC:9509
C7A8  AD 02 20  LDA $2002 = 00                  A:00 X:FF Y:00 P:26 SP:FF CYC:9512
C7AB  29 80     AND #$80                        A:00 X:FF Y:00 P:26 SP:FF CYC:9516
C7AD  F0 F9     BEQ $C7A8                       A:00 X:FF Y:00 P:26 SP:FF CYC:9518
C7A8  AD 02 20  LDA $2002 = 00                  A:00 X:FF Y:00 P:26 SP:FF CYC:9521
C7AB  29 80     AND #$80                        A:00 X:FF Y:00 P:26 SP:FF CYC:9525
C7AD  F0 F9     BEQ $C7A8                       A:00 X:FF Y:00 P:26 SP:FF CYC:9527
C7A8  AD 02 20  LDA $2002 = 00                  A:00 X:FF Y:00 P:26 SP:FF CYC:9530
C7AB  29 80     AND #$80                        A:00 X:FF Y:00 P:26 SP:FF CYC:9534
C7AD  F0 F9     BEQ $C7A8                       A:00 X:FF Y:00 P:26 SP:FF CYC:9536
C7A8  AD 02 20  LDA $2002 = 00                  A:00 X:FF Y:00 P:26 SP:FF CYC:9539
C7AB  29 80     AND #$80                        A:00 X:FF Y:00 P:26 SP:FF CYC:9543
C7AD  F0 F9     BEQ $C7A8                       A:00 X:FF Y:00 P:26 SP:FF CYC:9545
C7A8  AD 02 20  LDA $2002 = 00                  A:00 X:FF Y:00 P:26 SP:FF CYC:9548
C7AB  29 80     AND #$80                        A:00 X:FF Y:00 P:26 SP:FF CYC:9552
C7AD  F0 F9     BEQ $C7A8                       A:00 X:FF Y:00 P:26 SP:FF CYC:9554
C7A8  AD 02 20  LDA $2002 = 00                  A:00 X:FF Y:00 P:26 SP:FF CYC:9557
C7AB  29 80     AND #$80                        A:00 X:FF Y:00 P:26 SP:FF CYC:9561
C7AD  F0 F9     BEQ $C7A8                       A:00 X:FF Y:00 P:26 SP:FF CYC:9563
C7A8  AD 02 20  LDA $2002 = 00                  A:00 X:FF Y:00 P:26 SP:FF CYC:9566
C7AB  29 80     AND #$80                        A:00 X:FF Y:00 P:26 SP:FF CYC:9570
C7AD  F0 F9     BEQ $C7A8                       A:00 X:FF Y:00 P:26 SP:FF CYC:9572
C7A8  AD 02 20  LDA $2002 = 00                  A:00 X:FF Y:00 P:26 SP:FF CYC:9575
C7AB  29 80     AND #$80                        A:00 X:FF Y:00 P:26 SP:FF CYC:9579
C7AD  F0 F9     BEQ $C7A8                       A:00 X:FF Y:00 P:26 SP:FF CYC:9581
C7A8  AD 02 20  LDA $2002 = 00                  A:00 X:FF Y:00 P:26 SP:FF CYC:9584
C7AB  29 80     AND #$80                        A:00 X:FF Y:00 P:26 SP:FF CYC:9588
C7AD  F0 F9     BEQ $C7A8                       A:00 X:FF Y:00 P:26 SP:FF CYC:9590
C7A8  AD 02 20  LDA $2002 = 00                  A:00 X:FF Y:00 P:26 SP:FF CYC:9593
C7AB  29 80     AND #$80                        A:00 X:FF Y:00 P:26 SP:FF CYC:9597
C7AD  F0 F9     BEQ $C7A8                       A:00 X:FF Y:00 P:26 SP:FF CYC:9599
C7A8  AD 02 20  LDA $2002 = 00                  A:00 X:FF Y:00 P:26 SP:FF CYC:9602
C7AB  29 80     AND #$80                        A:00 X:FF Y:00 P:26 SP:FF CYC:9606
C7AD  F0 F9     BEQ $C7A8                       A:00 X:FF Y:00 P:26 SP:FF CYC:9608
C7A8  AD 02 20  LDA $2002 = 00                  A:00 X:FF Y:00 P:26 SP:FF CYC:9611
C7AB  29 80     AND #$80                        A:00 X:FF Y:00 P:26 SP:FF CYC:9615
C7AD  F0 F9     BEQ $C7A8                       A:00 X:FF Y:00 P:26 SP:FF CYC:9617
C7A8  AD 02 20  LDA $2002 = 00                  A:00 X:FF Y:00 P:26 SP:FF CYC:9620
C7AB  29 80     AND #$80                        A:00 X:FF Y:00 P:26 SP:FF CYC:9624
C7AD  F0 F9     BEQ $C7A8                       A:00 X:FF Y:00 P:26 SP:FF CYC:9626
C7A8  AD 02 20  LDA $2002 = 00                  A:00 X:FF Y:00 P:26 SP:FF CYC:9629
C7AB  29 80     AND #$80                        A:00 X:FF Y:00 P:26 SP:FF CYC:9633
C7AD  F0 F9     BEQ $C7A8                       A:00 X:FF Y:00 P:26 SP:FF CYC:9635
C7A8  AD 02 20  LDA $2002 = 00                  A:00 X:FF Y:00 P:26 SP:FF CYC:9638
C7AB  29 80     AND #$80                        A:00 X:FF Y:00 P:26 SP:FF CYC:9642
C7AD  F0 F9     BEQ $C7A8                       A:00 X:FF Y:00 P:26 SP:FF CYC:9644
C7A8  AD 02 20  LDA $2002 = 00                  A:00 X:FF Y:00 P:26 SP:FF CYC:9647
C7AB  29 80     AND #$80                        A:00 X:FF Y:00 P:26 SP:FF CYC:9651
C7AD  F0 F9     BEQ $C7A8                       A:00 X:FF Y:00 P:26 SP:FF CYC:9653
C7A8  AD 02 20  LDA $2002 = 00                  A:00 X:FF Y:00 P:26 SP:FF CYC:9656
C7AB  29 80     AND #$80                        A:00 X:FF Y:00 P:26 SP:FF CYC:9660
C7AD  F0 F9     BEQ $C7A8                       A:00 X:FF Y:00 P:26 SP:FF CYC:9662
C7A8  AD 02 20  LDA $2002 = 00                  A:00 X:FF Y:00 P:26 SP:FF CYC:9665
C7AB  29 80     AND #$80                        A:00 X:FF Y:00 P:26 SP:FF CYC:9669
C7AD  F0 F9     BEQ $C7A8                       A:00 X:FF Y:00 P:26 SP:FF CYC:9671
C7A8  AD 02 20  LDA $2002 = 00                  A:00 X:FF Y:00 P:26 SP:FF CYC:9674
C7AB  29 80     AND #$80                        A:00 X:FF Y:00 P:26 SP:FF CYC:9678
C7AD  F0 F9     BEQ $C7A8                       A:00 X:FF Y:00 P:26 SP:FF CYC:9680
C7A8  AD 02 20  LDA $2002 = 00                  A:00 X:FF Y:00 P:26 SP:FF CYC:9683
C7AB  29 80     AND #$80                        A:00 X:FF Y:00 P:26 SP:FF CYC:9687
C7AD  F0 F9     BEQ $C7A8                       A:00 X:FF Y:00 P:26 SP:FF CYC:9689
C7A8  AD 02 20  LDA $2002 = 00                  A:00 X:FF Y:00 P:26 SP:FF CYC:9692
C7AB  29 80     AND #$80                        A:00 X:FF Y:00 P:26 SP:FF CYC:9696
C7AD  F0 F9     BEQ $C7A8                       A:00 X:FF Y:00 P:26 SP:FF CYC:9698
C7A8  AD 02 20  LDA $2002 = 00                  A:00 X:FF Y:00 P:26 SP:FF CYC:9701
C7AB  29 80     AND #$80                        A:00 X:FF Y:00 P:26 SP:FF CYC:9705
C7AD  F0 F9     BEQ $C7A8                       A:00 X:FF Y:00 P:26 SP:FF CYC:9707
C7A8  AD 02 20  LDA $2002 = 00                  A:00 X:FF Y:00 P:26 SP:FF CYC:9710
C7AB  29 80     AND #$80                        A:00 X:FF Y:00 P:26 SP:FF CYC:9714
C7AD  F0 F9     BEQ $C7A8                       A:00 X:FF Y:00 P:26 SP:FF CYC:9716
C7A8  AD 02 20  LDA $2002 = 00                  A:00 X:FF Y:00 P:26 SP:FF CYC:9719
C7AB  29 80     AND #$80                        A:00 X:FF Y:00 P:26 SP:FF CYC:9723
C7AD  F0 F9     BEQ $C7A8                       A:00 X:FF Y:00 P:26 SP:FF CYC:9725
C7A8  AD 02 20  LDA $2002 = 00                  A:00 X:FF Y:00 P:26 SP:FF CYC:9728
C7AB  29 80     AND #$80                        A:00 X:FF Y:00 P:26 SP:FF CYC:9732
C7AD  F0 F9     BEQ $C7A8                       A:00 X:FF Y:00 P:26 SP:FF CYC:9734
C7A8  AD 02 20  LDA $2002 = 00                  A:00 X:FF Y:00 P:26 SP:FF CYC:9737
C7AB  29 80     AND #$80                        A:00 X:FF Y:00 P:26 SP:FF CYC:9741
C7AD  F0 F9     BEQ $C7A8                       A:00 X:FF Y:00 P:26 SP:FF CYC:9743
C7A8  AD 02 20  LDA $2002 = 00                  A:00 X:FF Y:00 P:26 SP:FF CYC:9746
C7AB  29 80     AND #$80                        A:00 X:FF Y:00 P:26 SP:FF CYC:9750
C7AD  F0 F9     BEQ $C7A8                       A:00 X:FF Y:00 P:26 SP:FF CYC:9752
C7A8  AD 02 20  LDA $2002 = 00                  A:00 X:FF Y:00 P:26 SP:FF CYC:9755
C7AB  29 80     AND #$80                        A:00 X:FF Y:00 P:26 SP:FF CYC:9759
C7AD  F0 F9     BEQ $C7A8                       A:00 X:FF Y:00 P:26 SP:FF CYC:9761
C7A8  AD 02 20  LDA $2002 = 00                  A:00 X:FF Y:00 P:26 SP:FF CYC:9764
C7AB  29 80     AND #$80                        A:00 X:FF Y:00 P:26 SP:FF CYC:9768
C7AD  F0 F9     BEQ $C7A8                       A:00 X:FF Y:00 P:26 SP:FF CYC:9770
C7A8  AD 02 20  LDA $2002 = 00                  A:00 X:FF Y:00 P:26 SP:FF CYC:9773
C7AB  29 80     AND #$80                        A:00 X:FF Y:00 P:26 SP:FF CYC:9777
C7AD  F0 F9     BEQ $C7A8                       A:00 X:FF Y:00 P:26 SP:FF CYC:9779
C7A8  AD 02 20  LDA $2002 = 00                  A:00 X:FF Y:00 P:26 SP:FF CYC:9782
C7AB  29 80     AND #$80                        A:00 X:FF Y:00 P:26 SP:FF CYC:9786
C7AD  F0 F9     BEQ $C7A8                       A:00 X:FF Y:00 P:26 SP:FF CYC:9788
C7A8  AD 02 20  LDA $2002 = 00                  A:00 X:FF Y:00 P:26 SP:FF CYC:9791
C7AB  29 80     AND #$80                        A:00 X:FF Y:00 P:26 SP:FF CYC:9795
C7AD  F0 F9     BEQ $C7A8                       A:00 X:FF Y:00 P:26 SP:FF CYC:9797
C7A8  AD 02 20  LDA $2002 = 00                  A:00 X:FF Y:00 P:26 SP:FF CYC:9800
C7AB  29 80     AND #$80                        A:00 X:FF Y:00 P:26 SP:FF CYC:9804
C7AD  F0 F9     BEQ $C7A8                       A:00 X:FF Y:00 P:26 SP:FF CYC:9806
C7A8  AD 02 20  LDA $2002 = 00                  A:00 X:FF Y:00 P:26 SP:FF CYC:9809
C7AB  29 80     AND #$80                        A:00 X:FF Y:00 P:26 SP:FF CYC:9813
C7AD  F0 F9     BEQ $C7A8                       A:00 X:FF Y:00 P:26 SP:FF CYC:9815
C7A8  AD 02 20  LDA $2002 = 00                  A:00 X:FF Y:00 P:26 SP:FF CYC:9818
C7AB  29 80     AND #$80                        A:00 X:FF Y:00 P:26 SP:FF CYC:9822
C7AD  F0 F9     BEQ $C7A8                       A:00 X:FF Y:00 P:26 SP:FF CYC:9824
C7A8  AD 02 20  LDA $2002 = 00                  A:00 X:FF Y:00 P:26 SP:FF CYC:9827
C7AB  29 80     AND #$80                        A:00 X:FF Y:00 P:26 SP:FF CYC:9831
C7AD  F0 F9     BEQ $C7A8                       A:00 X:FF Y:00 P:26 SP:FF CYC:9833
C7A8  AD 02 20  LDA $2002 = 00                  A:00 X:FF Y:00 P:26 SP:FF CYC:9836
C7AB  29 80     AND #$80                        A:00 X:FF Y:00 P:26 SP:FF CYC:9840
C7AD  F0 F9     BEQ $C7A8                       A:00 X:FF Y:00 P:26 SP:FF CYC:9842
C7A8  AD 02 20  LDA $2002 = 00                  A:00 X:FF Y:00 P:26 SP:FF CYC:9845
C7AB  29 80     AND #$80                        A:00 X:FF Y:00 P:26 SP:FF CYC:9849
C7AD  F0 F9     BEQ $C7A8                       A:00 X:FF Y:00 P:26 SP:FF CYC:9851
C7A8  AD 02 20  LDA $2002 = 00                  A:00 X:FF Y:00 P:26 SP:FF CYC:9854
C7AB  29 80     AND #$80                        A:00 X:FF Y:00 P:26 SP:FF CYC:9858
C7AD  F0 F9     BEQ $C7A8                       A:00 X:FF Y:00 P:26 SP:FF CYC:9860
C7A8  AD 02 20  LDA $2002 = 00                  A:00 X:FF Y:00 P:26 SP:FF CYC:9863
C7AB  29 80     AND #$80                        A:00 X:FF Y:00 P:26 SP:FF CYC:9867
C7AD  F0 F9     BEQ $C7A8                       A:00 X:FF Y:00 P:26 SP:FF CYC:9869
C7A8  AD 02 20  LDA $2002 = 00                  A:00 X:FF Y:00 P:26 SP:FF CYC:9872
C7AB  29 80     AND #$80                        A:00 X:FF Y:00 P:26 SP:FF CYC:9876
C7AD  F0 F9     BEQ $C7A8                       A:00 X:FF Y:00 P:26 SP:FF CYC:9878
C7A8  AD 02 20  LDA $2002 = 00                  A:00 X:FF Y:00 P:26 SP:FF CYC:9881
C7AB  29 80     AND #$80                        A:00 X:FF Y:00 P:26 SP:FF CYC:9885
C7AD  F0 F9     BEQ $C7A8                       A:00 X:FF Y:00 P:26 SP:FF CYC:9887
C7A8  AD 02 20  LDA $2002 = 00                  A:00 X:FF Y:00 P:26 SP:FF CYC:9890
C7AB  29 80     AND #$80                        A:00 X:FF Y:00 P:26 SP:FF CYC:9894
C7AD  F0 F9     BEQ $C7A8                       A:00 X:FF Y:00 P:26 SP:FF CYC:9896
C7A8  AD 02 20  LDA $2002 = 00                  A:00 X:FF Y:00 P:26 SP:FF CYC:9899
C7AB  29 80     AND #$80                        A:00 X:FF Y:00 P:26 SP:FF CYC:9903
C7AD  F0 F9     BEQ $C7A8                       A:00 X:FF Y:00 P:26 SP:FF CYC:9905
C7A8  AD 02 20  LDA $2002 = 00                  A:00 X:FF Y:00 P:26 SP:FF CYC:9908
C7AB  29 80     AND #$80                        A:00 X:FF Y:00 P:26 SP:FF CYC:9912
C7AD  F0 F9     BEQ $C7A8                       A:00 X:FF Y:00 P:26 SP:FF CYC:9914
C7A8  AD 02 20  LDA $2002 = 00                  A:00 X:FF Y:00 P:26 SP:FF CYC:9917
C7AB  29 80     AND #$80                        A:00 X:FF Y:00 P:26 SP:FF CYC:9921
C7AD  F0 F9     BEQ $C7A8                       A:00 X:FF Y:00 P:26 SP:FF CYC:9923
C7A8  AD 02 20  LDA $2002 = 00                  A:00 X:FF Y:00 P:26 SP:FF CYC:9926
C7AB  29 80     AND #$80                        A:00 X:FF Y:00 P:26 SP:FF CYC:9930
C7AD  F0 F9     BEQ $C7A8                       A:00 X:FF Y:00 P:26 SP:FF CYC:9932
C7A8  AD 02 20  LDA $2002 = 00                  A:00 X:FF Y:00 P:26 SP:FF CYC:9935
C7AB  29 80     AND #$80                        A:00 X:FF Y:00 P:26 SP:FF CYC:9939
C7AD  F0 F9     BEQ $C7A8                       A:00 X:FF Y:00 P:26 SP:FF CYC:9941
C7A8  AD 02 20  LDA $2002 = 00                  A:00 X:FF Y:00 P:26 SP:FF CYC:9944
C7AB  29 80     AND #$80                        A:00 X:FF Y:00 P:26 SP:FF CYC:9948
C7AD  F0 F9     BEQ $C7A8                       A:00 X:FF Y:00 P:26 SP:FF CYC:9950
C7A8  AD 02 20  LDA $2002 = 00                  A:00 X:FF Y:00 P:26 SP:FF CYC:9953
C7AB  29 80     AND #$80                        A:00 X:FF Y:00 P:26 SP:FF CYC:9957
C7AD  F0 F9     BEQ $C7A8                       A:00 X:FF Y:00 P:26 SP:FF CYC:9959
C7A8  AD 02 20  LDA $2002 = 00                  A:00 X:FF Y:00 P:26 SP:FF CYC:9962
C7AB  29 80     AND #$80                        A:00 X:FF Y:00 P:26 SP:FF CYC:9966
C7AD  F0 F9     BEQ $C7A8                       A:00 X:FF Y:00 P:26 SP:FF CYC:9968
C7A8  AD 02 20  LDA $2002 = 00                  A:00 X:FF Y:00 P:26 SP:FF CYC:9971
C7AB  29 80     AND #$80                        A:00 X:FF Y:00 P:26 SP:FF CYC:9975
C7AD  F0 F9     BEQ $C7A8                       A:00 X:FF Y:00 P:26 SP:FF CYC:9977
C7A8  AD 02 20  LDA $2002 = 00                  A:00 X:FF Y:00 P:26 SP:FF CYC:9980
C7AB  29 80     AND #$80                        A:00 X:FF Y:00 P:26 SP:FF CYC:9984
C7AD  F0 F9     BEQ $C7A8                       A:00 X:FF Y:00 P:26 SP:FF CYC:9986
C7A8  AD 02 20  LDA $2002 = 00                  A:00 X:FF Y:00 P:26 SP:FF CYC:9989
C7AB  29 80     AND #$80                        A:00 X:FF Y:00 P:26 SP:FF CYC:9993
C7AD  F0 F9     BEQ $C7A8                       A:00 X:FF Y:00 P:26 SP:FF CYC:9995
C7A8  AD 02 20  LDA $2002 = 00                  A:00 X:FF Y:00 P:26 SP:FF CYC:9998
C7AB  29 80     AND #$80                        A:00 X:FF Y:00 P:26 SP:FF CYC:10002
C7AD  F0 F9     BEQ $C7A8                       A:00 X:FF Y:00 P:26 SP:FF CYC:10004
C7A8  AD 02 20  LDA $2002 = 00                  A:00 X:FF Y:00 P:26 SP:FF CYC:10007
C7AB  29 80     AND #$80                        A:00 X:FF Y:00 P:26 SP:FF CYC:10011
C7AD  F0 F9     BEQ $C7A8                       A:00 X:FF Y:00 P:26 SP:FF CYC:10013
C7A8  AD 02 20  LDA $2002 = 00                  A:00 X:FF Y:00 P:26 SP:FF CYC:10016
C7AB  29 80     AND #$80                        A:00 X:FF Y:00 P:26 SP:FF CYC:10020
C7AD  F0 F9     BEQ $C7A8                       A:00 X:FF Y:00 P:26 SP:FF CYC:10022
C7A8  AD 02 20  LDA $2002 = 00                  A:00 X:FF Y:00 P:26 SP:FF CYC:10025
C7AB  29 80     AND #$80                        A:00 X:FF Y:00 P:26 SP:FF CYC:10029
C7AD  F0 F9     BEQ $C7A8                       A:00 X:FF Y:00 P:26 SP:FF CYC:10031
C7A8  AD 02 20  LDA $2002 = 00                  A:00 X:FF Y:00 P:26 SP:FF CYC:10034
C7AB  29 80     AND #$80                        A:00 X:FF Y:00 P:26 SP:FF CYC:10038
C7AD  F0 F9     BEQ $C7A8                       A:00 X:FF Y:00 P:26 SP:FF CYC:10040
C7A8  AD 02 20  LDA $2002 = 00                  A:00 X:FF Y:00 P:26 SP:FF CYC:10043
C7AB  29 80     AND #$80                        A:00 X:FF Y:00 P:26 SP:FF CYC:10047
C7AD  F0 F9     BEQ $C7A8                       A:00 X:FF Y:00 P:26 SP:FF CYC:10049
C7A8  AD 02 20  LDA $2002 = 00                  A:00 X:FF Y:00 P:26 SP:FF CYC:10052
C7AB  29 80     AND #$80                        A:00 X:FF Y:00 P:26 SP:FF CYC:10056
C7AD  F0 F9     BEQ $C7A8                       A:00 X:FF Y:00 P:26 SP:FF CYC:10058
C7A8  AD 02 20  LDA $2002 = 00                  A:00 X:FF Y:00 P:26 SP:FF CYC:10061
C7AB  29 80     AND #$80                        A:00 X:FF Y:00 P:26 SP:FF CYC:10065
C7AD  F0 F9     BEQ $C7A8                       A:00 X:FF Y:00 P:26 SP:FF CYC:10067
C7A8  AD 02 20  LDA $2002 = 00                  A:00 X:FF Y:00 P:26 SP:FF CYC:10070
C7AB  29 80     AND #$80                        A:00 X:FF Y:00 P:26 SP:FF CYC:10074
C7AD  F0 F9     BEQ $C7A8                       A:00 X:FF Y:00 P:26 SP:FF CYC:10076
C7A8  AD 02 20  LDA $2002 = 00                  A:00 X:FF Y:00 P:26 SP:FF CYC:10079
C7AB  29 80     AND #$80                        A:00 X:FF Y:00 P:26 SP:FF CYC:10083
C7AD  F0 F9     BEQ $C7A8                       A:00 X:FF Y:00 P:26 SP:FF CYC:10085
C7A8  AD 02 20  LDA $2002 = 00                  A:00 X:FF Y:00 P:26 SP:FF CYC:10088
C7AB  29 80     AND #$80                        A:00 X:FF Y:00 P:26 SP:FF CYC:10092
C7AD  F0 F9     BEQ $C7A8                       A:00 X:FF Y:00 P:26 SP:FF CYC:10094
C7A8  AD 02 20  LDA $2002 = 00                  A:00 X:FF Y:00 P:26 SP:FF CYC:10097
C7AB  29 80     AND #$80                        A:00 X:FF Y:00 P:26 SP:FF CYC:10101
C7AD  F0 F9     BEQ $C7A8                       A:00 X:FF Y:00 P:26 SP:FF CYC:10103
C7A8  AD 02 20  LDA $2002 = 00                  A:00 X:FF Y:00 P:26 SP:FF CYC:10106
C7AB  29 80     AND #$80                        A:00 X:FF Y:00 P:26 SP:FF CYC:10110
C7AD  F0 F9     BEQ $C7A8                       A:00 X:FF Y:00 P:26 SP:FF CYC:10112
C7A8  AD 02 20  LDA $2002 = 00                  A:00 X:FF Y:00 P:26 SP:FF CYC:10115
C7AB  29 80     AND #$80                        A:00 X:FF Y:00 P:26 SP:FF CYC:10119
C7AD  F0 F9     BEQ $C7A8                       A:00 X:FF Y:00 P:26 SP:FF CYC:10121
C7A8  AD 02 20  LDA $2002 = 00                  A:00 X:FF Y:00 P:26 SP:FF CYC:10124
C7AB  29 80     AND #$80                        A:00 X:FF Y:00 P:26 SP:FF CYC:10128
C7AD  F0 F9     BEQ $C7A8                       A:00 X:FF Y:00 P:26 SP:FF CYC:10130
C7A8  AD 02 20  LDA $2002 = 00                  A:00 X:FF Y:00 P:26 SP:FF CYC:10133
C7AB  29 80     AND #$80                        A:00 X:FF Y:00 P:26 SP:FF CYC:10137
C7AD  F0 F9     BEQ $C7A8                       A:00 X:FF Y:00 P:26 SP:FF CYC:10139
C7A8  AD 02 20  LDA $2002 = 00                  A:00 X:FF Y:00 P:26 SP:FF CYC:10142
C7AB  29 80     AND #$80                        A:00 X:FF Y:00 P:26 SP:FF CYC:10146
C7AD  F0 F9     BEQ $C7A8                       A:00 X:FF Y:00 P:26 SP:FF CYC:10148
C7A8  AD 02 20  LDA $2002 = 00                  A:00 X:FF Y:00 P:26 SP:FF CYC:10151
C7AB  29 80     AND #$80                        A:00 X:FF Y:00 P:26 SP:FF CYC:10155
C7AD  F0 F9     BEQ $C7A8                       A:00 X:FF Y:00 P:26 SP:FF CYC:10157
C7A8  AD 02 20  LDA $2002 = 00                  A:00 X:FF Y:00 P:26 SP:FF CYC:10160
C7AB  29 80     AND #$80                        A:00 X:FF Y:00 P:26 SP:FF CYC:10164
C7AD  F0 F9     BEQ $C7A8                       A:00 X:FF Y:00 P:26 SP:FF CYC:10166
C7A8  AD 02 20  LDA $2002 = 00                  A:00 X:FF Y:00 P:26 SP:FF CYC:10169
C7AB  29 80     AND #$80                        A:00 X:FF Y:00 P:26 SP:FF CYC:10173
C7AD  F0 F9     BEQ $C7A8                       A:00 X:FF Y:00 P:26 SP:FF CYC:10175
C7A8  AD 02 20  LDA $2002 = 00                  A:00 X:FF Y:00 P:26 SP:FF CYC:10178
C7AB  29 80     AND #$80                        A:00 X:FF Y:00 P:26 SP:FF CYC:10182
C7AD  F0 F9     BEQ $C7A8                       A:00 X:FF Y:00 P:26 SP:FF CYC:10184
C7A8  AD 02 20  LDA $2002 = 00                  A:00 X:FF Y:00 P:26 SP:FF CYC:10187
C7AB  29 80     AND #$80                        A:00 X:FF Y:00 P:26 SP:FF CYC:10191
C7AD  F0 F9     BEQ $C7A8                       A:00 X:FF Y:00 P:26 SP:FF CYC:10193
C7A8  AD 02 20  LDA $2002 = 00                  A:00 X:FF Y:00 P:26 SP:FF CYC:10196
C7AB  29 80     AND #$80                        A:00 X:FF Y:00 P:26 SP:FF CYC:10200
C7AD  F0 F9     BEQ $C7A8                       A:00 X:FF Y:00 P:26 SP:FF CYC:10202
C7A8  AD 02 20  LDA $2002 = 00                  A:00 X:FF Y:00 P:26 SP:FF CYC:10205
C7AB  29 80     AND #$80                        A:00 X:FF Y:00 P:26 SP:FF CYC:10209
C7AD  F0 F9     BEQ $C7A8                       A:00 X:FF Y:00 P:26 SP:FF CYC:10211
C7A8  AD 02 20  LDA $2002 = 00                  A:00 X:FF Y:00 P:26 SP:FF CYC:10214
C7AB  29 80     AND #$80                        A:00 X:FF Y:00 P:26 SP:FF CYC:10218
C7AD  F0 F9     BEQ $C7A8                       A:00 X:FF Y:00 P:26 SP:FF CYC:10220
C7A8  AD 02 20  LDA $2002 = 00                  A:00 X:FF Y:00 P:26 SP:FF CYC:10223
C7AB  29 80     AND #$80                        A:00 X:FF Y:00 P:26 SP:FF CYC:10227
C7AD  F0 F9     BEQ $C7A8                       A:00 X:FF Y:00 P:26 SP:FF CYC:10229
C7A8  AD 02 20  LDA $2002 = 00                  A:00 X:FF Y:00 P:26 SP:FF CYC:10232
C7AB  29 80     AND #$80                        A:00 X:FF Y:00 P:26 SP:FF CYC:10236
C7AD  F0 F9     BEQ $C7A8                       A:00 X:FF Y:00 P:26 SP:FF CYC:10238
C7A8  AD 02 20  LDA $2002 = 00                  A:00 X:FF Y:00 P:26 SP:FF CYC:10241
C7AB  29 80     AND #$80                        A:00 X:FF Y:00 P:26 SP:FF CYC:10245
C7AD  F0 F9     BEQ $C7A8                       A:00 X:FF Y:00 P:26 SP:FF CYC:10247
C7A8  AD 02 20  LDA $2002 = 00                  A:00 X:FF Y:00 P:26 SP:FF CYC:10250
C7AB  29 80     AND #$80                        A:00 X:FF Y:00 P:26 SP:FF CYC:10254
C7AD  F0 F9     BEQ $C7A8                       A:00 X:FF Y:00 P:26 SP:FF CYC:10256
C7A8  AD 02 20  LDA $2002 = 00                  A:00 X:FF Y:00 P:26 SP:FF CYC:10259
C7AB  29 80     AND #$80                        A:00 X:FF Y:00 P:26 SP:FF CYC:10263
C7AD  F0 F9     BEQ $C7A8                       A:00 X:FF Y:00 P:26 SP:FF CYC:10265
C7A8  AD 02 20  LDA $2002 = 00                  A:00 X:FF Y:00 P:26 SP:FF CYC:10268
C7AB  29 80     AND #$80                        A:00 X:FF Y:00 P:26 SP:FF CYC:10272
C7AD  F0 F9     BEQ $C7A8                       A:00 X:FF Y:00 P:26 SP:FF CYC:10274
C7A8  AD 02 20  LDA $2002 = 00                  A:00 X:FF Y:00 P:26 SP:FF CYC:10277
C7AB  29 80     AND #$80                        A:00 X:FF Y:00 P:26 SP:FF CYC:10281
C7AD  F0 F9     BEQ $C7A8                       A:00 X:FF Y:00 P:26 SP:FF CYC:10283
C7A8  AD 02 20  LDA $2002 = 00                  A:00 X:FF Y:00 P:26 SP:FF CYC:10286
C7AB  29 80     AND #$80                        A:00 X:FF Y:00 P:26 SP:FF CYC:10290
C7AD  F0 F9     BEQ $C7A8                       A:00 X:FF Y:00 P:26 SP:FF CYC:10292
C7A8  AD 02 20  LDA $2002 = 00                  A:00 X:FF Y:00 P:26 SP:FF CYC:10295
C7AB  29 80     AND #$80                        A:00 X:FF Y:00 P:26 SP:FF CYC:10299
C7AD  F0 F9     BEQ $C7A8                       A:00 X:FF Y:00 P:26 SP:FF CYC:10301
C7A8  AD 02 20  LDA $2002 = 00                  A:00 X:FF Y:00 P:26 SP:FF CYC:10304
C7AB  29 80     AND #$80                        A:00 X:FF Y:00 P:26 SP:FF CYC:10308
C7AD  F0 F9     BEQ $C7A8                       A:00 X:FF Y:00 P:26 SP:FF CYC:10310
C7A8  AD 02 20  LDA $2002 = 00                  A:00 X:FF Y:00 P:26 SP:FF CYC:10313
C7AB  29 80     AND #$80                        A:00 X:FF Y:00 P:26 SP:FF CYC:10317
C7AD  F0 F9     BEQ $C7A8                       A:00 X:FF Y:00 P:26 SP:FF CYC:10319
C7A8  AD 02 20  LDA $2002 = 00                  A:00 X:FF Y:00 P:26 SP:FF CYC:10322
C7AB  29 80     AND #$80                        A:00 X:FF Y:00 P:26 SP:FF CYC:10326
C7AD  F0 F9     BEQ $C7A8                       A:00 X:FF Y:00 P:26 SP:FF CYC:10328
C7A8  AD 02 20  LDA $2002 = 00                  A:00 X:FF Y:00 P:26 SP:FF CYC:10331
C7AB  29 80     AND #$80                        A:00 X:FF Y:00 P:26 SP:FF CYC:10335
C7AD  F0 F9     BEQ $C7A8                       A:00 X:FF Y:00 P:26 SP:FF CYC:10337
C7A8  AD 02 20  LDA $2002 = 00                  A:00 X:FF Y:00 P:26 SP:FF CYC:10340
C7AB  29 80     AND #$80                        A:00 X:FF Y:00 P:26 SP:FF CYC:10344
C7AD  F0 F9     BEQ $C7A8                       A:00 X:FF Y:00 P:26 SP:FF CYC:10346
C7A8  AD 02 20  LDA $2002 = 00                  A:00 X:FF Y:00 P:26 SP:FF CYC:10349
C7AB  29 80     AND #$80                        A:00 X:FF Y:00 P:26 SP:FF CYC:10353
C7AD  F0 F9     BEQ $C7A8                       A:00 X:FF Y:00 P:26 SP:FF CYC:10355
C7A8  AD 02 20  LDA $2002 = 00                  A:00 X:FF Y:00 P:26 SP:FF CYC:10358
C7AB  29 80     AND #$80                        A:00 X:FF Y:00 P:26 SP:FF CYC:10362
C7AD  F0 F9     BEQ $C7A8                       A:00 X:FF Y:00 P:26 SP:FF CYC:10364
C7A8  AD 02 20  LDA $2002 = 00                  A:00 X:FF Y:00 P:26 SP:FF CYC:10367
C7AB  29 80     AND #$80                        A:00 X:FF Y:00 P:26 SP:FF CYC:10371
C7AD  F0 F9     BEQ $C7A8                       A:00 X:FF Y:00 P:26 SP:FF CYC:10373
C7A8  AD 02 20  LDA $2002 = 00                  A:00 X:FF Y:00 P:26 SP:FF CYC:10376
C7AB  29 80     AND #$80                        A:00 X:FF Y:00 P:26 SP:FF CYC:10380
C7AD  F0 F9     BEQ $C7A8                       A:00 X:FF Y:00 P:26 SP:FF CYC:10382
C7A8  AD 02 20  LDA $2002 = 00                  A:00 X:FF Y:00 P:26 SP:FF CYC:10385
C7AB  29 80     AND #$80                        A:00 X:FF Y:00 P:26 SP:FF CYC:10389
C7AD  F0 F9     BEQ $C7A8                       A:00 X:FF Y:00 P:26 SP:FF CYC:10391
C7A8  AD 02 20  LDA $2002 = 00                  A:00 X:FF Y:00 P:26 SP:FF CYC:10394
C7AB  29 80     AND #$80                        A:00 X:FF Y:00 P:26 SP:FF CYC:10398
C7AD  F0 F9     BEQ $C7A8                       A:00 X:FF Y:00 P:26 SP:FF CYC:10400
C7A8  AD 02 20  LDA $2002 = 00                  A:00 X:FF Y:00 P:26 SP:FF CYC:10403
C7AB  29 80     AND #$80                        A:00 X:FF Y:00 P:26 SP:FF CYC:10407
C7AD  F0 F9     BEQ $C7A8                       A:00 X:FF Y:00 P:26 SP:FF CYC:10409
C7A8  AD 02 20  LDA $2002 = 00                  A:00 X:FF Y:00 P:26 SP:FF CYC:10412
C7AB  29 80     AND #$80                        A:00 X:FF Y:00 P:26 SP:FF CYC:10416
C7AD  F0 F9     BEQ $C7A8                       A:00 X:FF Y:00 P:26 SP:FF CYC:10418
C7A8  AD 02 20  LDA $2002 = 00                  A:00 X:FF Y:00 P:26 SP:FF CYC:10421
C7AB  29 80     AND #$80                        A:00 X:FF Y:00 P:26 SP:FF CYC:10425
C7AD  F0 F9     BEQ $C7A8                       A:00 X:FF Y:00 P:26 SP:FF CYC:10427
C7A8  AD 02 20  LDA $2002 = 00                  A:00 X:FF Y:00 P:26 SP:FF CYC:10430
C7AB  29 80     AND #$80                        A:00 X:FF Y:00 P:26 SP:FF CYC:10434
C7AD  F0 F9     BEQ $C7A8                       A:00 X:FF Y:00 P:26 SP:FF CYC:10436
C7A8  AD 02 20  LDA $2002 = 00                  A:00 X:FF Y:00 P:26 SP:FF CYC:10439
C7AB  29 80     AND #$80                        A:00 X:FF Y:00 P:26 SP:FF CYC:10443
C7AD  F0 F9     BEQ $C7A8                       A:00 X:FF Y:00 P:26 SP:FF CYC:10445
C7A8  AD 02 20  LDA $2002 = 00                  A:00 X:FF Y:00 P:26 SP:FF CYC:10448
C7AB  29 80     AND #$80                        A:00 X:FF Y:00 P:26 SP:FF CYC:10452
C7AD  F0 F9     BEQ $C7A8                       A:00 X:FF Y:00 P:26 SP:FF CYC:10454
C7A8  AD 02 20  LDA $2002 = 00                  A:00 X:FF Y:00 P:26 SP:FF CYC:10457
C7AB  29 80     AND #$80                        A:00 X:FF Y:00 P:26 SP:FF CYC:10461
C7AD  F0 F9     BEQ $C7A8                       A:00 X:FF Y:00 P:26 SP:FF CYC:10463
C7A8  AD 02 20  LDA $2002 = 00                  A:00 X:FF Y:00 P:26 SP:FF CYC:10466
C7AB  29 80     AND #$80                        A:00 X:FF Y:00 P:26 SP:FF CYC:10470
C7AD  F0 F9     BEQ $C7A8                       A:00 X:FF Y:00 P:26 SP:FF CYC:10472
C7A8  AD 02 20  LDA $2002 = 00                  A:00 X:FF Y:00 P:26 SP:FF CYC:10475
C7AB  29 80     AND #$80                        A:00 X:FF Y:00 P:26 SP:FF CYC:10479
C7AD  F0 F9     BEQ $C7A8                       A:00 X:FF Y:00 P:26 SP:FF CYC:10481
C7A8  AD 02 20  LDA $2002 = 00                  A:00 X:FF Y:00 P:26 SP:FF CYC:10484
C7AB  29 80     AND #$80                        A:00 X:FF Y:00 P:26 SP:FF CYC:10488
C7AD  F0 F9     BEQ $C7A8                       A:00 X:FF Y:00 P:26 SP:FF CYC:10490
C7A8  AD 02 20  LDA $2002 = 00                  A:00 X:FF Y:00 P:26 SP:FF CYC:10493
C7AB  29 80     AND #$80                        A:00 X:FF Y:00 P:26 SP:FF CYC:10497
C7AD  F0 F9     BEQ $C7A8                       A:00 X:FF Y:00 P:26 SP:FF CYC:10499
C7A8  AD 02 20  LDA $2002 = 00                  A:00 X:FF Y:00 P:26 SP:FF CYC:10502
C7AB  29 80     AND #$80                        A:00 X:FF Y:00 P:26 SP:FF CYC:10506
C7AD  F0 F9     BEQ $C7A8                       A:00 X:FF Y:00 P:26 SP:FF CYC:10508
C7A8  AD 02 20  LDA $2002 = 00                  A:00 X:FF Y:00 P:26 SP:FF CYC:10511
C7AB  29 80     AND #$80                        A:00 X:FF Y:00 P:26 SP:FF CYC:10515
C7AD  F0 F9     BEQ $C7A8                       A:00 X:FF Y:00 P:26 SP:FF CYC:10517
C7A8  AD 02 20  LDA $2002 = 00                  A:00 X:FF Y:00 P:26 SP:FF CYC:10520
C7AB  29 80     AND #$80                        A:00 X:FF Y:00 P:26 SP:FF CYC:10524
C7AD  F0 F9     BEQ $C7A8                       A:00 X:FF Y:00 P:26 SP:FF CYC:10526
C7A8  AD 02 20  LDA $2002 = 00                  A:00 X:FF Y:00 P:26 SP:FF CYC:10529
C7AB  29 80     AND #$80                        A:00 X:FF Y:00 P:26 SP:FF CYC:10533
C7AD  F0 F9     BEQ $C7A8                       A:00 X:FF Y:00 P:26 SP:FF CYC:10535
C7A8  AD 02 20  LDA $2002 = 00                  A:00 X:FF Y:00 P:26 SP:FF CYC:10538
C7AB  29 80     AND #$80                        A:00 X:FF Y:00 P:26 SP:FF CYC:10542
C7AD  F0 F9     BEQ $C7A8                       A:00 X:FF Y:00 P:26 SP:FF CYC:10544
C7A8  AD 02 20  LDA $2002 = 00                  A:00 X:FF Y:00 P:26 SP:FF CYC:10547
C7AB  29 80     AND #$80                        A:00 X:FF Y:00 P:26 SP:FF CYC:10551
C7AD  F0 F9     BEQ $C7A8                       A:00 X:FF Y:00 P:26 SP:FF CYC:10553
C7A8  AD 02 20  LDA $2002 = 00                  A:00 X:FF Y:00 P:26 SP:FF CYC:10556
C7AB  29 80     AND #$80                        A:00 X:FF Y:00 P:26 SP:FF CYC:10560
C7AD  F0 F9     BEQ $C7A8                       A:00 X:FF Y:00 P:26 SP:FF CYC:10562
C7A8  AD 02 20  LDA $2002 = 00                  A:00 X:FF Y:00 P:26 SP:FF CYC:10565
C7AB  29 80     AND #$80                        A:00 X:FF Y:00 P:26 SP:FF CYC:10569
C7AD  F0 F9     BEQ $C7A8                       A:00 X:FF Y:00 P:26 SP:FF CYC:10571
C7A8  AD 02 20  LDA $2002 = 00                  A:00 X:FF Y:00 P:26 SP:FF CYC:10574
C7AB  29 80     AND #$80                        A:00 X:FF Y:00 P:26 SP:FF CYC:10578
C7AD  F0 F9     BEQ $C7A8                       A:00 X:FF Y:00 P:26 SP:FF CYC:10580
C7A8  AD 02 20  LDA $2002 = 00                  A:00 X:FF Y:00 P:26 SP:FF CYC:10583
C7AB  29 80     AND #$80                        A:00 X:FF Y:00 P:26 SP:FF CYC:10587
C7AD  F0 F9     BEQ $C7A8                       A:00 X:FF Y:00 P:26 SP:FF CYC:10589
C7A8  AD 02 20  LDA $2002 = 00                  A:00 X:FF Y:00 P:26 SP:FF CYC:10592
C7AB  29 80     AND #$80                        A:00 X:FF Y:00 P:26 SP:FF CYC:10596
C7AD  F0 F9     BEQ $C7A8                       A:00 X:FF Y:00 P:26 SP:FF CYC:10598
C7A8  AD 02 20  LDA $2002 = 00                  A:00 X:FF Y:00 P:26 SP:FF CYC:10601
C7AB  29 80     AND #$80                        A:00 X:FF Y:00 P:26 SP:FF CYC:10605
C7AD  F0 F9     BEQ $C7A8                       A:00 X:FF Y:00 P:26 SP:FF CYC:10607
C7A8  AD 02 20  LDA $2002 = 00                  A:00 X:FF Y:00 P:26 SP:FF CYC:10610
C7AB  29 80     AND #$80                        A:00 X:FF Y:00 P:26 SP:FF CYC:10614
C7AD  F0 F9     BEQ $C7A8                       A:00 X:FF Y:00 P:26 SP:FF CYC:10616
C7A8  AD 02 20  LDA $2002 = 00                  A:00 X:FF Y:00 P:26 SP:FF CYC:10619
C7AB  29 80     AND #$80                        A:00 X:FF Y:00 P:26 SP:FF CYC:10623
C7AD  F0 F9     BEQ $C7A8                       A:00 X:FF Y:00 P:26 SP:FF CYC:10625
C7A8  AD 02 20  LDA $2002 = 00                  A:00 X:FF Y:00 P:26 SP:FF CYC:10628
C7AB  29 80     AND #$80                        A:00 X:FF Y:00 P:26 SP:FF CYC:10632
C7AD  F0 F9     BEQ $C7A8                       A:00 X:FF Y:00 P:26 SP:FF CYC:10634
C7A8  AD 02 20  LDA $2002 = 00                  A:00 X:FF Y:00 P:26 SP:FF CYC:10637
C7AB  29 80     AND #$80                        A:00 X:FF Y:00 P:26 SP:FF CYC:10641
C7AD  F0 F9     BEQ $C7A8                       A:00 X:FF Y:00 P:26 SP:FF CYC:10643
C7A8  AD 02 20  LDA $2002 = 00                  A:00 X:FF Y:00 P:26 SP:FF CYC:10646
C7AB  29 80     AND #$80                        A:00 X:FF Y:00 P:26 SP:FF CYC:10650
C7AD  F0 F9     BEQ $C7A8                       A:00 X:FF Y:00 P:26 SP:FF CYC:10652
C7A8  AD 02 20  LDA $2002 = 00                  A:00 X:FF Y:00 P:26 SP:FF CYC:10655
C7AB  29 80     AND #$80                        A:00 X:FF Y:00 P:26 SP:FF CYC:10659
C7AD  F0 F9     BEQ $C7A8                       A:00 X:FF Y:00 P:26 SP:FF CYC:10661
C7A8  AD 02 20  LDA $2002 = 00                  A:00 X:FF Y:00 P:26 SP:FF CYC:10664
C7AB  29 80     AND #$80                        A:00 X:FF Y:00 P:26 SP:FF CYC:10668
C7AD  F0 F9     BEQ $C7A8                       A:00 X:FF Y:00 P:26 SP:FF CYC:10670
C7A8  AD 02 20  LDA $2002 = 00                  A:00 X:FF Y:00 P:26 SP:FF CYC:10673
C7AB  29 80     AND #$80                        A:00 X:FF Y:00 P:26 SP:FF CYC:10677
C7AD  F0 F9     BEQ $C7A8                       A:00 X:FF Y:00 P:26 SP:FF CYC:10679
C7A8  AD 02 20  LDA $2002 = 00                  A:00 X:FF Y:00 P:26 SP:FF CYC:10682
C7AB  29 80     AND #$80                        A:00 X:FF Y:00 P:26 SP:FF CYC:10686
C7AD  F0 F9     BEQ $C7A8                       A:00 X:FF Y:00 P:26 SP:FF CYC:10688
C7A8  AD 02 20  LDA $2002 = 00                  A:00 X:FF Y:00 P:26 SP:FF CYC:10691
C7AB  29 80     AND #$80                        A:00 X:FF Y:00 P:26 SP:FF CYC:10695
C7AD  F0 F9     BEQ $C7A8                       A:00 X:FF Y:00 P:26 SP:FF CYC:10697
C7A8  AD 02 20  LDA $2002 = 00                  A:00 X:FF Y:00 P:26 SP:FF CYC:10700
C7AB  29 80     AND #$80                        A:00 X:FF Y:00 P:26 SP:FF CYC:10704
C7AD  F0 F9     BEQ $C7A8                       A:00 X:FF Y:00 P:26 SP:FF CYC:10706
C7A8  AD 02 20  LDA $2002 = 00                  A:00 X:FF Y:00 P:26 SP:FF CYC:10709
C7AB  29 80     AND #$80                        A:00 X:FF Y:00 P:26 SP:FF CYC:10713
C7AD  F0 F9     BEQ $C7A8                       A:00 X:FF Y:00 P:26 SP:FF CYC:10715
C7A8  AD 02 20  LDA $2002 = 00                  A:00 X:FF Y:00 P:26 SP:FF CYC:10718
C7AB  29 80     AND #$80                        A:00 X:FF Y:00 P:26 SP:FF CYC:10722
C7AD  F0 F9     BEQ $C7A8                       A:00 X:FF Y:00 P:26 SP:FF CYC:10724
C7A8  AD 02 20  LDA $2002 = 00                  A:00 X:FF Y:00 P:26 SP:FF CYC:10727
C7AB  29 80     AND #$80                        A:00 X:FF Y:00 P:26 SP:FF CYC:10731
C7AD  F0 F9     BEQ $C7A8                       A:00 X:FF Y:00 P:26 SP:FF CYC:10733
C7A8  AD 02 20  LDA $2002 = 00                  A:00 X:FF Y:00 P:26 SP:FF CYC:10736
C7AB  29 80     AND #$80                        A:00 X:FF Y:00 P:26 SP:FF CYC:10740
C7AD  F0 F9     BEQ $C7A8                       A:00 X:FF Y:00 P:26 SP:FF CYC:10742
C7A8  AD 02 20  LDA $2002 = 00                  A:00 X:FF Y:00 P:26 SP:FF CYC:10745
C7AB  29 80     AND #$80                        A:00 X:FF Y:00 P:26 SP:FF CYC:10749
C7AD  F0 F9     BEQ $C7A8                       A:00 X:FF Y:00 P:26 SP:FF CYC:10751
C7A8  AD 02 20  LDA $2002 = 00                  A:00 X:FF Y:00 P:26 SP:FF CYC:10754
C7AB  29 80     AND #$80                        A:00 X:FF Y:00 P:26 SP:FF CYC:10758
C7AD  F0 F9     BEQ $C7A8                       A:00 X:FF Y:00 P:26 SP:FF CYC:10760
C7A8  AD 02 20  LDA $2002 = 00                  A:00 X:FF Y:00 P:26 SP:FF CYC:10763
C7AB  29 80     AND #$80                        A:00 X:FF Y:00 P:26 SP:FF CYC:10767
C7AD  F0 F9     BEQ $C7A8                       A:00 X:FF Y:00 P:26 SP:FF CYC:10769
C7A8  AD 02 20  LDA $2002 = 00                  A:00 X:FF Y:00 P:26 SP:FF CYC:10772
C7AB  29 80     AND #$80                        A:00 X:FF Y:00 P:26 SP:FF CYC:10776
C7AD  F0 F9     BEQ $C7A8                       A:00 X:FF Y:00 P:26 SP:FF CYC:10778
C7A8  AD 02 20  LDA $2002 = 00                  A:00 X:FF Y:00 P:26 SP:FF CYC:10781
C7AB  29 80     AND #$80                        A:00 X:FF Y:00 P:26 SP:FF CYC:10785
C7AD  F0 F9     BEQ $C7A8                       A:00 X:FF Y:00 P:26 SP:FF CYC:10787
C7A8  AD 02 20  LDA $2002 = 00                  A:00 X:FF Y:00 P:26 SP:FF CYC:10790
C7AB  29 80     AND #$80                        A:00 X:FF Y:00 P:26 SP:FF CYC:10794
C7AD  F0 F9     BEQ $C7A8                       A:00 X:FF Y:00 P:26 SP:FF CYC:10796
C7A8  AD 02 20  LDA $2002 = 00                  A:00 X:FF Y:00 P:26 SP:FF CYC:10799
C7AB  29 80     AND #$80                        A:00 X:FF Y:00 P:26 SP:FF CYC:10803
C7AD  F0 F9     BEQ $C7A8                       A:00 X:FF Y:00 P:26 SP:FF CYC:10805
C7A8  AD 02 20  LDA $2002 = 00                  A:00 X:FF Y:00 P:26 SP:FF CYC:10808
C7AB  29 80     AND #$80                        A:00 X:FF Y:00 P:26 SP:FF CYC:10812
C7AD  F0 F9     BEQ $C7A8                       A:00 X:FF Y:00 P:26 SP:FF CYC:10814
C7A8  AD 02 20  LDA $2002 = 00                  A:00 X:FF Y:00 P:26 SP:FF CYC:10817
C7AB  29 80     AND #$80                        A:00 X:FF Y:00 P:26 SP:FF CYC:10821
C7AD  F0 F9     BEQ $C7A8                       A:00 X:FF Y:00 P:26 SP:FF CYC:10823
C7A8  AD 02 20  LDA $2002 = 00                  A:00 X:FF Y:00 P:26 SP:FF CYC:10826
C7AB  29 80     AND #$80                        A:00 X:FF Y:00 P:26 SP:FF CYC:10830
C7AD  F0 F9     BEQ $C7A8                       A:00 X:FF Y:00 P:26 SP:FF CYC:10832
C7A8  AD 02 20  LDA $2002 = 00                  A:00 X:FF Y:00 P:26 SP:FF CYC:10835
C7AB  29 80     AND #$80                        A:00 X:FF Y:00 P:26 SP:FF CYC:10839
C7AD  F0 F9     BEQ $C7A8                       A:00 X:FF Y:00 P:26 SP:FF CYC:10841
C7A8  AD 02 20  LDA $2002 = 00                  A:00 X:FF Y:00 P:26 SP:FF CYC:10844
C7AB  29 80     AND #$80                        A:00 X:FF Y:00 P:26 SP:FF CYC:10848
C7AD  F0 F9     BEQ $C7A8                       A:00 X:FF Y:00 P:26 SP:FF CYC:10850
C7A8  AD 02 20  LDA $2002 = 00                  A:00 X:FF Y:00 P:26 SP:FF CYC:10853
C7AB  29 80     AND #$80                        A:00 X:FF Y:00 P:26 SP:FF CYC:10857
C7AD  F0 F9     BEQ $C7A8                       A:00 X:FF Y:00 P:26 SP:FF CYC:10859
C7A8  AD 02 20  LDA $2002 = 00                  A:00 X:FF Y:00 P:26 SP:FF CYC:10862
C7AB  29 80     AND #$80                        A:00 X:FF Y:00 P:26 SP:FF CYC:10866
C7AD  F0 F9     BEQ $C7A8                       A:00 X:FF Y:00 P:26 SP:FF CYC:10868
C7A8  AD 02 20  LDA $2002 = 00                  A:00 X:FF Y:00 P:26 SP:FF CYC:10871
C7AB  29 80     AND #$80                        A:00 X:FF Y:00 P:26 SP:FF CYC:10875
C7AD  F0 F9     BEQ $C7A8                       A:00 X:FF Y:00 P:26 SP:FF CYC:10877
C7A8  AD 02 20  LDA $2002 = 00                  A:00 X:FF Y:00 P:26 SP:FF CYC:10880
C7AB  29 80     AND #$80                        A:00 X:FF Y:00 P:26 SP:FF CYC:10884
C7AD  F0 F9     BEQ $C7A8                       A:00 X:FF Y:00 P:26 SP:FF CYC:10886
C7A8  AD 02 20  LDA $2002 = 00                  A:00 X:FF Y:00 P:26 SP:FF CYC:10889
C7AB  29 80     AND #$80                        A:00 X:FF Y:00 P:26 SP:FF CYC:10893
C7AD  F0 F9     BEQ $C7A8                       A:00 X:FF Y:00 P:26 SP:FF CYC:10895
C7A8  AD 02 20  LDA $2002 = 00                  A:00 X:FF Y:00 P:26 SP:FF CYC:10898
C7AB  29 80     AND #$80                        A:00 X:FF Y:00 P:26 SP:FF CYC:10902
C7AD  F0 F9     BEQ $C7A8                       A:00 X:FF Y:00 P:26 SP:FF CYC:10904
C7A8  AD 02 20  LDA $2002 = 00                  A:00 X:FF Y:00 P:26 SP:FF CYC:10907
C7AB  29 80     AND #$80                        A:00 X:FF Y:00 P:26 SP:FF CYC:10911
C7AD  F0 F9     BEQ $C7A8                       A:00 X:FF Y:00 P:26 SP:FF CYC:10913
C7A8  AD 02 20  LDA $2002 = 00                  A:00 X:FF Y:00 P:26 SP:FF CYC:10916
C7AB  29 80     AND #$80                        A:00 X:FF Y:00 P:26 SP:FF CYC:10920
C7AD  F0 F9     BEQ $C7A8                       A:00 X:FF Y:00 P:26 SP:FF CYC:10922
C7A8  AD 02 20  LDA $2002 = 00                  A:00 X:FF Y:00 P:26 SP:FF CYC:10925
C7AB  29 80     AND #$80                        A:00 X:FF Y:00 P:26 SP:FF CYC:10929
C7AD  F0 F9     BEQ $C7A8                       A:00 X:FF Y:00 P:26 SP:FF CYC:10931
C7A8  AD 02 20  LDA $2002 = 00                  A:00 X:FF Y:00 P:26 SP:FF CYC:10934
C7AB  29 80     AND #$80                        A:00 X:FF Y:00 P:26 SP:FF CYC:10938
C7AD  F0 F9     BEQ $C7A8                       A:00 X:FF Y:00 P:26 SP:FF CYC:10940
C7A8  AD 02 20  LDA $2002 = 00                  A:00 X:FF Y:00 P:26 SP:FF CYC:10943
C7AB  29 80     AND #$80                        A:00 X:FF Y:00 P:26 SP:FF CYC:10947
C7AD  F0 F9     BEQ $C7A8                       A:00 X:FF Y:00 P:26 SP:FF CYC:10949
C7A8  AD 02 20  LDA $2002 = 00                  A:00 X:FF Y:00 P:26 SP:FF CYC:10952
C7AB  29 80     AND #$80                        A:00 X:FF Y:00 P:26 SP:FF CYC:10956
C7AD  F0 F9     BEQ $C7A8                       A:00 X:FF Y:00 P:26 SP:FF CYC:10958
C7A8  AD 02 20  LDA $2002 = 00                  A:00 X:FF Y:00 P:26 SP:FF CYC:10961
C7AB  29 80     AND #$80                        A:00 X:FF Y:00 P:26 SP:FF CYC:10965
C7AD  F0 F9     BEQ $C7A8                       A:00 X:FF Y:00 P:26 SP:FF CYC:10967
C7A8  AD 02 20  LDA $2002 = 00                  A:00 X:FF Y:00 P:26 SP:FF CYC:10970
C7AB  29 80     AND #$80                        A:00 X:FF Y:00 P:26 SP:FF CYC:10974
C7AD  F0 F9     BEQ $C7A8                       A:00 X:FF Y:00 P:26 SP:FF CYC:10976
C7A8  AD 02 20  LDA $2002 = 00                  A:00 X:FF Y:00 P:26 SP:FF CYC:10979
C7AB  29 80     AND #$80                        A:00 X:FF Y:00 P:26 SP:FF CYC:10983
C7AD  F0 F9     BEQ $C7A8                       A:00 X:FF Y:00 P:26 SP:FF CYC:10985
C7A8  AD 02 20  LDA $2002 = 00                  A:00 X:FF Y:00 P:26 SP:FF CYC:10988
C7AB  29 80     AND #$80                        A:00 X:FF Y:00 P:26 SP:FF CYC:10992
C7AD  F0 F9     BEQ $C7A8                       A:00 X:FF Y:00 P:26 SP:FF CYC:10994
C7A8  AD 02 20  LDA $2002 = 00                  A:00 X:FF Y:00 P:26 SP:FF CYC:10997
C7AB  29 80     AND #$80                        A:00 X:FF Y:00 P:26 SP:FF CYC:11001
C7AD  F0 F9     BEQ $C7A8                       A:00 X:FF Y:00 P:26 SP:FF CYC:11003
C7A8  AD 02 20  LDA $2002 = 00                  A:00 X:FF Y:00 P:26 SP:FF CYC:11006
C7AB  29 80     AND #$80                        A:00 X:FF Y:00 P:26 SP:FF CYC:11010
C7AD  F0 F9     BEQ $C7A8                       A:00 X:FF Y:00 P:26 SP:FF CYC:11012
C7A8  AD 02 20  LDA $2002 = 00                  A:00 X:FF Y:00 P:26 SP:FF CYC:11015
C7AB  29 80     AND #$80                        A:00 X:FF Y:00 P:26 SP:FF CYC:11019
C7AD  F0 F9     BEQ $C7A8                       A:00 X:FF Y:00 P:26 SP:FF CYC:11021
C7A8  AD 02 20  LDA $2002 = 00                  A:00 X:FF Y:00 P:26 SP:FF CYC:11024
C7AB  29 80     AND #$80                        A:00 X:FF Y:00 P:26 SP:FF CYC:11028
C7AD  F0 F9     BEQ $C7A8                       A:00 X:FF Y:00 P:26 SP:FF CYC:11030
C7A8  AD 02 20  LDA $2002 = 00                  A:00 X:FF Y:00 P:26 SP:FF CYC:11033
C7AB  29 80     AND #$80                        A:00 X:FF Y:00 P:26 SP:FF CYC:11037
C7AD  F0 F9     BEQ $C7A8                       A:00 X:FF Y:00 P:26 SP:FF CYC:11039
C7A8  AD 02 20  LDA $2002 = 00                  A:00 X:FF Y:00 P:26 SP:FF CYC:11042
C7AB  29 80     AND #$80                        A:00 X:FF Y:00 P:26 SP:FF CYC:11046
C7AD  F0 F9     BEQ $C7A8                       A:00 X:FF Y:00 P:26 SP:FF CYC:11048
C7A8  AD 02 20  LDA $2002 = 00                  A:00 X:FF Y:00 P:26 SP:FF CYC:11051
C7AB  29 80     AND #$80                        A:00 X:FF Y:00 P:26 SP:FF CYC:11055
C7AD  F0 F9     BEQ $C7A8                       A:00 X:FF Y:00 P:26 SP:FF CYC:11057
C7A8  AD 02 20  LDA $2002 = 00                  A:00 X:FF Y:00 P:26 SP:FF CYC:11060
C7AB  29 80     AND #$80                        A:00 X:FF Y:00 P:26 SP:FF CYC:11064
C7AD  F0 F9     BEQ $C7A8                       A:00 X:FF Y:00 P:26 SP:FF CYC:11066
C7A8  AD 02 20  LDA $2002 = 00                  A:00 X:FF Y:00 P:26 SP:FF CYC:11069
C7AB  29 80     AND #$80                        A:00 X:FF Y:00 P:26 SP:FF CYC:11073
C7AD  F0 F9     BEQ $C7A8                       A:00 X:FF Y:00 P:26 SP:FF CYC:11075
C7A8  AD 02 20  LDA $2002 = 00                  A:00 X:FF Y:00 P:26 SP:FF CYC:11078
C7AB  29 80     AND #$80                        A:00 X:FF Y:00 P:26 SP:FF CYC:11082
C7AD  F0 F9     BEQ $C7A8                       A:00 X:FF Y:00 P:26 SP:FF CYC:11084
C7A8  AD 02 20  LDA $2002 = 00                  A:00 X:FF Y:00 P:26 SP:FF CYC:11087
C7AB  29 80     AND #$80                        A:00 X:FF Y:00 P:26 SP:FF CYC:11091
C7AD  F0 F9     BEQ $C7A8                       A:00 X:FF Y:00 P:26 SP:FF CYC:11093
C7A8  AD 02 20  LDA $2002 = 00                  A:00 X:FF Y:00 P:26 SP:FF CYC:11096
C7AB  29 80     AND #$80                        A:00 X:FF Y:00 P:26 SP:FF CYC:11100
C7AD  F0 F9     BEQ $C7A8                       A:00 X:FF Y:00 P:26 SP:FF CYC:11102
C7A8  AD 02 20  LDA $2002 = 00                  A:00 X:FF Y:00 P:26 SP:FF CYC:11105
C7AB  29 80     AND #$80                        A:00 X:FF Y:00 P:26 SP:FF CYC:11109
C7AD  F0 F9     BEQ $C7A8                       A:00 X:FF Y:00 P:26 SP:FF CYC:11111
C7A8  AD 02 20  LDA $2002 = 00                  A:00 X:FF Y:00 P:26 SP:FF CYC:11114
C7AB  29 80     AND #$80                        A:00 X:FF Y:00 P:26 SP:FF CYC:11118
C7AD  F0 F9     BEQ $C7A8                       A:00 X:FF Y:00 P:26 SP:FF CYC:11120
C7A8  AD 02 20  LDA $2002 = 00                  A:00 X:FF Y:00 P:26 SP:FF CYC:11123
C7AB  29 80     AND #$80                        A:00 X:FF Y:00 P:26 SP:FF CYC:11127
C7AD  F0 F9     BEQ $C7A8                       A:00 X:FF Y:00 P:26 SP:FF CYC:11129
C7A8  AD 02 20  LDA $2002 = 00                  A:00 X:FF Y:00 P:26 SP:FF CYC:11132
C7AB  29 80     AND #$80                        A:00 X:FF Y:00 P:26 SP:FF CYC:11136
C7AD  F0 F9     BEQ $C7A8                       A:00 X:FF Y:00 P:26 SP:FF CYC:11138
C7A8  AD 02 20  LDA $2002 = 00                  A:00 X:FF Y:00 P:26 SP:FF CYC:11141
C7AB  29 80     AND #$80                        A:00 X:FF Y:00 P:26 SP:FF CYC:11145
C7AD  F0 F9     BEQ $C7A8                       A:00 X:FF Y:00 P:26 SP:FF CYC:11147
C7A8  AD 02 20  LDA $2002 = 00                  A:00 X:FF Y:00 P:26 SP:FF CYC:11150
C7AB  29 80     AND #$80                        A:00 X:FF Y:00 P:26 SP:FF CYC:11154
C7AD  F0 F9     BEQ $C7A8                       A:00 X:FF Y:00 P:26 SP:FF CYC:11156
C7A8  AD 02 20  LDA $2002 = 00                  A:00 X:FF Y:00 P:26 SP:FF CYC:11159
C7AB  29 80     AND #$80                        A:00 X:FF Y:00 P:26 SP:FF CYC:11163
C7AD  F0 F9     BEQ $C7A8                       A:00 X:FF Y:00 P:26 SP:FF CYC:11165
C7A8  AD 02 20  LDA $2002 = 00                  A:00 X:FF Y:00 P:26 SP:FF CYC:11168
C7AB  29 80     AND #$80                        A:00 X:FF Y:00 P:26 SP:FF CYC:11172
C7AD  F0 F9     BEQ $C7A8                       A:00 X:FF Y:00 P:26 SP:FF CYC:11174
C7A8  AD 02 20  LDA $2002 = 00                  A:00 X:FF Y:00 P:26 SP:FF CYC:11177
C7AB  29 80     AND #$80                        A:00 X:FF Y:00 P:26 SP:FF CYC:11181
C7AD  F0 F9     BEQ $C7A8                       A:00 X:FF Y:00 P:26 SP:FF CYC:11183
C7A8  AD 02 20  LDA $2002 = 00                  A:00 X:FF Y:00 P:26 SP:FF CYC:11186
C7AB  29 80     AND #$80                        A:00 X:FF Y:00 P:26 SP:FF CYC:11190
C7AD  F0 F9     BEQ $C7A8                       A:00 X:FF Y:00 P:26 SP:FF CYC:11192
C7A8  AD 02 20  LDA $2002 = 00                  A:00 X:FF Y:00 P:26 SP:FF CYC:11195
C7AB  29 80     AND #$80                        A:00 X:FF Y:00 P:26 SP:FF CYC:11199
C7AD  F0 F9     BEQ $C7A8                       A:00 X:FF Y:00 P:26 SP:FF CYC:11201
C7A8  AD 02 20  LDA $2002 = 00                  A:00 X:FF Y:00 P:26 SP:FF CYC:11204
C7AB  29 80     AND #$80                        A:00 X:FF Y:00 P:26 SP:FF CYC:11208
C7AD  F0 F9     BEQ $C7A8                       A:00 X:FF Y:00 P:26 SP:FF CYC:11210
C7A8  AD 02 20  LDA $2002 = 00                  A:00 X:FF Y:00 P:26 SP:FF CYC:11213
C7AB  29 80     AND #$80                        A:00 X:FF Y:00 P:26 SP:FF CYC:11217
C7AD  F0 F9     BEQ $C7A8                       A:00 X:FF Y:00 P:26 SP:FF CYC:11219
C7A8  AD 02 20  LDA $2002 = 00                  A:00 X:FF Y:00 P:26 SP:FF CYC:11222
C7AB  29 80     AND #$80                        A:00 X:FF Y:00 P:26 SP:FF CYC:11226
C7AD  F0 F9     BEQ $C7A8                       A:00 X:FF Y:00 P:26 SP:FF CYC:11228
C7A8  AD 02 20  LDA $2002 = 00                  A:00 X:FF Y:00 P:26 SP:FF CYC:11231
C7AB  29 80     AND #$80                        A:00 X:FF Y:00 P:26 SP:FF CYC:11235
C7AD  F0 F9     BEQ $C7A8                       A:00 X:FF Y:00 P:26 SP:FF CYC:11237
C7A8  AD 02 20  LDA $2002 = 00                  A:00 X:FF Y:00 P:26 SP:FF CYC:11240
C7AB  29 80     AND #$80                        A:00 X:FF Y:00 P:26 SP:FF CYC:11244
C7AD  F0 F9     BEQ $C7A8                       A:00 X:FF Y:00 P:26 SP:FF CYC:11246
C7A8  AD 02 20  LDA $2002 = 00                  A:00 X:FF Y:00 P:26 SP:FF CYC:11249
C7AB  29 80     AND #$80                        A:00 X:FF Y:00 P:26 SP:FF CYC:11253
C7AD  F0 F9     BEQ $C7A8                       A:00 X:FF Y:00 P:26 SP:FF CYC:11255
C7A8  AD 02 20  LDA $2002 = 00                  A:00 X:FF Y:00 P:26 SP:FF CYC:11258
C7AB  29 80     AND #$80                        A:00 X:FF Y:00 P:26 SP:FF CYC:11262
C7AD  F0 F9     BEQ $C7A8                       A:00 X:FF Y:00 P:26 SP:FF CYC:11264
C7A8  AD 02 20  LDA $2002 = 00                  A:00 X:FF Y:00 P:26 SP:FF CYC:11267
C7AB  29 80     AND #$80                        A:00 X:FF Y:00 P:26 SP:FF CYC:11271
C7AD  F0 F9     BEQ $C7A8                       A:00 X:FF Y:00 P:26 SP:FF CYC:11273
C7A8  AD 02 20  LDA $2002 = 00                  A:00 X:FF Y:00 P:26 SP:FF CYC:11276
C7AB  29 80     AND #$80                        A:00 X:FF Y:00 P:26 SP:FF CYC:11280
C7AD  F0 F9     BEQ $C7A8                       A:00 X:FF Y:00 P:26 SP:FF CYC:11282
C7A8  AD 02 20  LDA $2002 = 00                  A:00 X:FF Y:00 P:26 SP:FF CYC:11285
C7AB  29 80     AND #$80                        A:00 X:FF Y:00 P:26 SP:FF CYC:11289
C7AD  F0 F9     BEQ $C7A8                       A:00 X:FF Y:00 P:26 SP:FF CYC:11291
C7A8  AD 02 20  LDA $2002 = 00                  A:00 X:FF Y:00 P:26 SP:FF CYC:11294
C7AB  29 80     AND #$80                        A:00 X:FF Y:00 P:26 SP:FF CYC:11298
C7AD  F0 F9     BEQ $C7A8                       A:00 X:FF Y:00 P:26 SP:FF CYC:11300
C7A8  AD 02 20  LDA $2002 = 00                  A:00 X:FF Y:00 P:26 SP:FF CYC:11303
C7AB  29 80     AND #$80                        A:00 X:FF Y:00 P:26 SP:FF CYC:11307
C7AD  F0 F9     BEQ $C7A8                       A:00 X:FF Y:00 P:26 SP:FF CYC:11309
C7A8  AD 02 20  LDA $2002 = 00                  A:00 X:FF Y:00 P:26 SP:FF CYC:11312
C7AB  29 80     AND #$80                        A:00 X:FF Y:00 P:26 SP:FF CYC:11316
C7AD  F0 F9     BEQ $C7A8                       A:00 X:FF Y:00 P:26 SP:FF CYC:11318
C7A8  AD 02 20  LDA $2002 = 00                  A:00 X:FF Y:00 P:26 SP:FF CYC:11321
C7AB  29 80     AND #$80                        A:00 X:FF Y:00 P:26 SP:FF CYC:11325
C7AD  F0 F9     BEQ $C7A8                       A:00 X:FF Y:00 P:26 SP:FF CYC:11327
C7A8  AD 02 20  LDA $2002 = 00                  A:00 X:FF Y:00 P:26 SP:FF CYC:11330
C7AB  29 80     AND #$80                        A:00 X:FF Y:00 P:26 SP:FF CYC:11334
C7AD  F0 F9     BEQ $C7A8                       A:00 X:FF Y:00 P:26 SP:FF CYC:11336
C7A8  AD 02 20  LDA $2002 = 00                  A:00 X:FF Y:00 P:26 SP:FF CYC:11339
C7AB  29 80     AND #$80                        A:00 X:FF Y:00 P:26 SP:FF CYC:11343
C7AD  F0 F9     BEQ $C7A8                       A:00 X:FF Y:00 P:26 SP:FF CYC:11345
C7A8  AD 02 20  LDA $2002 = 00                  A:00 X:FF Y:00 P:26 SP:FF CYC:11348
C7AB  29 80     AND #$80                        A:00 X:FF Y:00 P:26 SP:FF CYC:11352
C7AD  F0 F9     BEQ $C7A8                       A:00 X:FF Y:00 P:26 SP:FF CYC:11354
C7A8  AD 02 20  LDA $2002 = 00                  A:00 X:FF Y:00 P:26 SP:FF CYC:11357
C7AB  29 80     AND #$80                        A:00 X:FF Y:00 P:26 SP:FF CYC:11361
C7AD  F0 F9     BEQ $C7A8                       A:00 X:FF Y:00 P:26 SP:FF CYC:11363
C7A8  AD 02 20  LDA $2002 = 00                  A:00 X:FF Y:00 P:26 SP:FF CYC:11366
C7AB  29 80     AND #$80                        A:00 X:FF Y:00 P:26 SP:FF CYC:11370
C7AD  F0 F9     BEQ $C7A8                       A:00 X:FF Y:00 P:26 SP:FF CYC:11372
C7A8  AD 02 20  LDA $2002 = 00                  A:00 X:FF Y:00 P:26 SP:FF CYC:11375
C7AB  29 80     AND #$80                        A:00 X:FF Y:00 P:26 SP:FF CYC:11379
C7AD  F0 F9     BEQ $C7A8                       A:00 X:FF Y:00 P:26 SP:FF CYC:11381
C7A8  AD 02 20  LDA $2002 = 00                  A:00 X:FF Y:00 P:26 SP:FF CYC:11384
C7AB  29 80     AND #$80                        A:00 X:FF Y:00 P:26 SP:FF CYC:11388
C7AD  F0 F9     BEQ $C7A8                       A:00 X:FF Y:00 P:26 SP:FF CYC:11390
C7A8  AD 02 20  LDA $2002 = 00                  A:00 X:FF Y:00 P:26 SP:FF CYC:11393
C7AB  29 80     AND #$80                        A:00 X:FF Y:00 P:26 SP:FF CYC:11397
C7AD  F0 F9     BEQ $C7A8                       A:00 X:FF Y:00 P:26 SP:FF CYC:11399
C7A8  AD 02 20  LDA $2002 = 00                  A:00 X:FF Y:00 P:26 SP:FF CYC:11402
C7AB  29 80     AND #$80                        A:00 X:FF Y:00 P:26 SP:FF CYC:11406
C7AD  F0 F9     BEQ $C7A8                       A:00 X:FF Y:00 P:26 SP:FF CYC:11408
C7A8  AD 02 20  LDA $2002 = 00                  A:00 X:FF Y:00 P:26 SP:FF CYC:11411
C7AB  29 80     AND #$80                        A:00 X:FF Y:00 P:26 SP:FF CYC:11415
C7AD  F0 F9     BEQ $C7A8                       A:00 X:FF Y:00 P:26 SP:FF CYC:11417
C7A8  AD 02 20  LDA $2002 = 00                  A:00 X:FF Y:00 P:26 SP:FF CYC:11420
C7AB  29 80     AND #$80                        A:00 X:FF Y:00 P:26 SP:FF CYC:11424
C7AD  F0 F9     BEQ $C7A8                       A:00 X:FF Y:00 P:26 SP:FF CYC:11426
C7A8  AD 02 20  LDA $2002 = 00                  A:00 X:FF Y:00 P:26 SP:FF CYC:11429
C7AB  29 80     AND #$80                        A:00 X:FF Y:00 P:26 SP:FF CYC:11433
C7AD  F0 F9     BEQ $C7A8                       A:00 X:FF Y:00 P:26 SP:FF CYC:11435
C7A8  AD 02 20  LDA $2002 = 00                  A:00 X:FF Y:00 P:26 SP:FF CYC:11438
C7AB  29 80     AND #$80                        A:00 X:FF Y:00 P:26 SP:FF CYC:11442
C7AD  F0 F9     BEQ $C7A8                       A:00 X:FF Y:00 P:26 SP:FF CYC:11444
C7A8  AD 02 20  LDA $2002 = 00                  A:00 X:FF Y:00 P:26 SP:FF CYC:11447
C7AB  29 80     AND #$80                        A:00 X:FF Y:00 P:26 SP:FF CYC:11451
C7AD  F0 F9     BEQ $C7A8                       A:00 X:FF Y:00 P:26 SP:FF CYC:11453
C7A8  AD 02 20  LDA $2002 = 00                  A:00 X:FF Y:00 P:26 SP:FF CYC:11456
C7AB  29 80     AND #$80                        A:00 X:FF Y:00 P:26 SP:FF CYC:11460
C7AD  F0 F9     BEQ $C7A8                       A:00 X:FF Y:00 P:26 SP:FF CYC:11462
C7A8  AD 02 20  LDA $2002 = 00                  A:00 X:FF Y:00 P:26 SP:FF CYC:11465
C7AB  29 80     AND #$80                        A:00 X:FF Y:00 P:26 SP:FF CYC:11469
C7AD  F0 F9     BEQ $C7A8                       A:00 X:FF Y:00 P:26 SP:FF CYC:11471
C7A8  AD 02 20  LDA $2002 = 00                  A:00 X:FF Y:00 P:26 SP:FF CYC:11474
C7AB  29 80     AND #$80                        A:00 X:FF Y:00 P:26 SP:FF CYC:11478
C7AD  F0 F9     BEQ $C7A8                       A:00 X:FF Y:00 P:26 SP:FF CYC:11480
C7A8  AD 02 20  LDA $2002 = 00                  A:00 X:FF Y:00 P:26 SP:FF CYC:11483
C7AB  29 80     AND #$80                        A:00 X:FF Y:00 P:26 SP:FF CYC:11487
C7AD  F0 F9     BEQ $C7A8                       A:00 X:FF Y:00 P:26 SP:FF CYC:11489
C7A8  AD 02 20  LDA $2002 = 00                  A:00 X:FF Y:00 P:26 SP:FF CYC:11492
C7AB  29 80     AND #$80                        A:00 X:FF Y:00 P:26 SP:FF CYC:11496
C7AD  F0 F9     BEQ $C7A8                       A:00 X:FF Y:00 P:26 SP:FF CYC:11498
C7A8  AD 02 20  LDA $2002 = 00                  A:00 X:FF Y:00 P:26 SP:FF CYC:11501
C7AB  29 80     AND #$80                        A:00 X:FF Y:00 P:26 SP:FF CYC:11505
C7AD  F0 F9     BEQ $C7A8                       A:00 X:FF Y:00 P:26 SP:FF CYC:11507
C7A8  AD 02 20  LDA $2002 = 00                  A:00 X:FF Y:00 P:26 SP:FF CYC:11510
C7AB  29 80     AND #$80                        A:00 X:FF Y:00 P:26 SP:FF CYC:11514
C7AD  F0 F9     BEQ $C7A8                       A:00 X:FF Y:00 P:26 SP:FF CYC:11516
C7A8  AD 02 20  LDA $2002 = 00                  A:00 X:FF Y:00 P:26 SP:FF CYC:11519
C7AB  29 80     AND #$80                        A:00 X:FF Y:00 P:26 SP:FF CYC:11523
C7AD  F0 F9     BEQ $C7A8                       A:00 X:FF Y:00 P:26 SP:FF CYC:11525
C7A8  AD 02 20  LDA $2002 = 00                  A:00 X:FF Y:00 P:26 SP:FF CYC:11528
C7AB  29 80     AND #$80                        A:00 X:FF Y:00 P:26 SP:FF CYC:11532
C7AD  F0 F9     BEQ $C7A8                       A:00 X:FF Y:00 P:26 SP:FF CYC:11534
C7A8  AD 02 20  LDA $2002 = 00                  A:00 X:FF Y:00 P:26 SP:FF CYC:11537
C7AB  29 80     AND #$80                        A:00 X:FF Y:00 P:26 SP:FF CYC:11541
C7AD  F0 F9     BEQ $C7A8                       A:00 X:FF Y:00 P:26 SP:FF CYC:11543
C7A8  AD 02 20  LDA $2002 = 00                  A:00 X:FF Y:00 P:26 SP:FF CYC:11546
C7AB  29 80     AND #$80                        A:00 X:FF Y:00 P:26 SP:FF CYC:11550
C7AD  F0 F9     BEQ $C7A8                       A:00 X:FF Y:00 P:26 SP:FF CYC:11552
C7A8  AD 02 20  LDA $2002 = 00                  A:00 X:FF Y:00 P:26 SP:FF CYC:11555
C7AB  29 80     AND #$80                        A:00 X:FF Y:00 P:26 SP:FF CYC:11559
C7AD  F0 F9     BEQ $C7A8                       A:00 X:FF Y:00 P:26 SP:FF CYC:11561
C7A8  AD 02 20  LDA $2002 = 00                  A:00 X:FF Y:00 P:26 SP:FF CYC:11564
C7AB  29 80     AND #$80                        A:00 X:FF Y:00 P:26 SP:FF CYC:11568
C7AD  F0 F9     BEQ $C7A8                       A:00 X:FF Y:00 P:26 SP:FF CYC:11570
C7A8  AD 02 20  LDA $2002 = 00                  A:00 X:FF Y:00 P:26 SP:FF CYC:11573
C7AB  29 80     AND #$80                        A:00 X:FF Y:00 P:26 SP:FF CYC:11577
C7AD  F0 F9     BEQ $C7A8                       A:00 X:FF Y:00 P:26 SP:FF CYC:11579
C7A8  AD 02 20  LDA $2002 = 00                  A:00 X:FF Y:00 P:26 SP:FF CYC:11582
C7AB  29 80     AND #$80                        A:00 X:FF Y:00 P:26 SP:FF CYC:11586
C7AD  F0 F9     BEQ $C7A8                       A:00 X:FF Y:00 P:26 SP:FF CYC:11588
C7A8  AD 02 20  LDA $2002 = 00                  A:00 X:FF Y:00 P:26 SP:FF CYC:11591
C7AB  29 80     AND #$80                        A:00 X:FF Y:00 P:26 SP:FF CYC:11595
C7AD  F0 F9     BEQ $C7A8                       A:00 X:FF Y:00 P:26 SP:FF CYC:11597
C7A8  AD 02 20  LDA $2002 = 00                  A:00 X:FF Y:00 P:26 SP:FF CYC:11600
C7AB  29 80     AND #$80                        A:00 X:FF Y:00 P:26 SP:FF CYC:11604
C7AD  F0 F9     BEQ $C7A8                       A:00 X:FF Y:00 P:26 SP:FF CYC:11606
C7A8  AD 02 20  LDA $2002 = 00                  A:00 X:FF Y:00 P:26 SP:FF CYC:11609
C7AB  29 80     AND #$80                        A:00 X:FF Y:00 P:26 SP:FF CYC:11613
C7AD  F0 F9     BEQ $C7A8                       A:00 X:FF Y:00 P:26 SP:FF CYC:11615
C7A8  AD 02 20  LDA $2002 = 00                  A:00 X:FF Y:00 P:26 SP:FF CYC:11618
C7AB  29 80     AND #$80                        A:00 X:FF Y:00 P:26 SP:FF CYC:11622
C7AD  F0 F9     BEQ $C7A8                       A:00 X:FF Y:00 P:26 SP:FF CYC:11624
C7A8  AD 02 20  LDA $2002 = 00                  A:00 X:FF Y:00 P:26 SP:FF CYC:11627
C7AB  29 80     AND #$80                        A:00 X:FF Y:00 P:26 SP:FF CYC:11631
C7AD  F0 F9     BEQ $C7A8                       A:00 X:FF Y:00 P:26 SP:FF CYC:11633
C7A8  AD 02 20  LDA $2002 = 00                  A:00 X:FF Y:00 P:26 SP:FF CYC:11636
C7AB  29 80     AND #$80                        A:00 X:FF Y:00 P:26 SP:FF CYC:11640
C7AD  F0 F9     BEQ $C7A8                       A:00 X:FF Y:00 P:26 SP:FF CYC:11642
C7A8  AD 02 20  LDA $2002 = 00                  A:00 X:FF Y:00 P:26 SP:FF CYC:11645
C7AB  29 80     AND #$80                        A:00 X:FF Y:00 P:26 SP:FF CYC:11649
C7AD  F0 F9     BEQ $C7A8                       A:00 X:FF Y:00 P:26 SP:FF CYC:11651
C7A8  AD 02 20  LDA $2002 = 00                  A:00 X:FF Y:00 P:26 SP:FF CYC:11654
C7AB  29 80     AND #$80                        A:00 X:FF Y:00 P:26 SP:FF CYC:11658
C7AD  F0 F9     BEQ $C7A8                       A:00 X:FF Y:00 P:26 SP:FF CYC:11660
C7A8  AD 02 20  LDA $2002 = 00                  A:00 X:FF Y:00 P:26 SP:FF CYC:11663
C7AB  29 80     AND #$80                        A:00 X:FF Y:00 P:26 SP:FF CYC:11667
C7AD  F0 F9     BEQ $C7A8                       A:00 X:FF Y:00 P:26 SP:FF CYC:11669
C7A8  AD 02 20  LDA $2002 = 00                  A:00 X:FF Y:00 P:26 SP:FF CYC:11672
C7AB  29 80     AND #$80                        A:00 X:FF Y:00 P:26 SP:FF CYC:11676
C7AD  F0 F9     BEQ $C7A8                       A:00 X:FF Y:00 P:26 SP:FF CYC:11678
C7A8  AD 02 20  LDA $2002 = 00                  A:00 X:FF Y:00 P:26 SP:FF CYC:11681
C7AB  29 80     AND #$80                        A:00 X:FF Y:00 P:26 SP:FF CYC:11685
C7AD  F0 F9     BEQ $C7A8                       A:00 X:FF Y:00 P:26 SP:FF CYC:11687
C7A8  AD 02 20  LDA $2002 = 00                  A:00 X:FF Y:00 P:26 SP:FF CYC:11690
C7AB  29 80     AND #$80                        A:00 X:FF Y:00 P:26 SP:FF CYC:11694
C7AD  F0 F9     BEQ $C7A8                       A:00 X:FF Y:00 P:26 SP:FF CYC:11696
C7A8  AD 02 20  LDA $2002 = 00                  A:00 X:FF Y:00 P:26 SP:FF CYC:11699
C7AB  29 80     AND #$80                        A:00 X:FF Y:00 P:26 SP:FF CYC:11703
C7AD  F0 F9     BEQ $C7A8                       A:00 X:FF Y:00 P:26 SP:FF CYC:11705
C7A8  AD 02 20  LDA $2002 = 00                  A:00 X:FF Y:00 P:26 SP:FF CYC:11708
C7AB  29 80     AND #$80                        A:00 X:FF Y:00 P:26 SP:FF CYC:11712
C7AD  F0 F9     BEQ $C7A8                       A:00 X:FF Y:00 P:26 SP:FF CYC:11714
C7A8  AD 02 20  LDA $2002 = 00                  A:00 X:FF Y:00 P:26 SP:FF CYC:11717
C7AB  29 80     AND #$80                        A:00 X:FF Y:00 P:26 SP:FF CYC:11721
C7AD  F0 F9     BEQ $C7A8                       A:00 X:FF Y:00 P:26 SP:FF CYC:11723
C7A8  AD 02 20  LDA $2002 = 00                  A:00 X:FF Y:00 P:26 SP:FF CYC:11726
C7AB  29 80     AND #$80                        A:00 X:FF Y:00 P:26 SP:FF CYC:11730
C7AD  F0 F9     BEQ $C7A8                       A:00 X:FF Y:00 P:26 SP:FF CYC:11732
C7A8  AD 02 20  LDA $2002 = 00                  A:00 X:FF Y:00 P:26 SP:FF CYC:11735
C7AB  29 80     AND #$80                        A:00 X:FF Y:00 P:26 SP:FF CYC:11739
C7AD  F0 F9     BEQ $C7A8                       A:00 X:FF Y:00 P:26 SP:FF CYC:11741
C7A8  AD 02 20  LDA $2002 = 00                  A:00 X:FF Y:00 P:26 SP:FF CYC:11744
C7AB  29 80     AND #$80                        A:00 X:FF Y:00 P:26 SP:FF CYC:11748
C7AD  F0 F9     BEQ $C7A8                       A:00 X:FF Y:00 P:26 SP:FF CYC:11750
C7A8  AD 02 20  LDA $2002 = 00                  A:00 X:FF Y:00 P:26 SP:FF CYC:11753
C7AB  29 80     AND #$80                        A:00 X:FF Y:00 P:26 SP:FF CYC:11757
C7AD  F0 F9     BEQ $C7A8                       A:00 X:FF Y:00 P:26 SP:FF CYC:11759
C7A8  AD 02 20  LDA $2002 = 00                  A:00 X:FF Y:00 P:26 SP:FF CYC:11762
C7AB  29 80     AND #$80                        A:00 X:FF Y:00 P:26 SP:FF CYC:11766
C7AD  F0 F9     BEQ $C7A8                       A:00 X:FF Y:00 P:26 SP:FF CYC:11768
C7A8  AD 02 20  LDA $2002 = 00                  A:00 X:FF Y:00 P:26 SP:FF CYC:11771
C7AB  29 80     AND #$80                        A:00 X:FF Y:00 P:26 SP:FF CYC:11775
C7AD  F0 F9     BEQ $C7A8                       A:00 X:FF Y:00 P:26 SP:FF CYC:11777
C7A8  AD 02 20  LDA $2002 = 00                  A:00 X:FF Y:00 P:26 SP:FF CYC:11780
C7AB  29 80     AND #$80                        A:00 X:FF Y:00 P:26 SP:FF CYC:11784
C7AD  F0 F9     BEQ $C7A8                       A:00 X:FF Y:00 P:26 SP:FF CYC:11786
C7A8  AD 02 20  LDA $2002 = 00                  A:00 X:FF Y:00 P:26 SP:FF CYC:11789
C7AB  29 80     AND #$80                        A:00 X:FF Y:00 P:26 SP:FF CYC:11793
C7AD  F0 F9     BEQ $C7A8                       A:00 X:FF Y:00 P:26 SP:FF CYC:11795
C7A8  AD 02 20  LDA $2002 = 00                  A:00 X:FF Y:00 P:26 SP:FF CYC:11798
C7AB  29 80     AND #$80                        A:00 X:FF Y:00 P:26 SP:FF CYC:11802
C7AD  F0 F9     BEQ $C7A8                       A:00 X:FF Y:00 P:26 SP:FF CYC:11804
C7A8  AD 02 20  LDA $2002 = 00                  A:00 X:FF Y:00 P:26 SP:FF CYC:11807
C7AB  29 80     AND #$80                        A:00 X:FF Y:00 P:26 SP:FF CYC:11811
C7AD  F0 F9     BEQ $C7A8                       A:00 X:FF Y:00 P:26 SP:FF CYC:11813
C7A8  AD 02 20  LDA $2002 = 00                  A:00 X:FF Y:00 P:26 SP:FF CYC:11816
C7AB  29 80     AND #$80                        A:00 X:FF Y:00 P:26 SP:FF CYC:11820
C7AD  F0 F9     BEQ $C7A8                       A:00 X:FF Y:00 P:26 SP:FF CYC:11822
C7A8  AD 02 20  LDA $2002 = 00                  A:00 X:FF Y:00 P:26 SP:FF CYC:11825
C7AB  29 80     AND #$80                        A:00 X:FF Y:00 P:26 SP:FF CYC:11829
C7AD  F0 F9     BEQ $C7A8                       A:00 X:FF Y:00 P:26 SP:FF CYC:11831
C7A8  AD 02 20  LDA $2002 = 00                  A:00 X:FF Y:00 P:26 SP:FF CYC:11834
C7AB  29 80     AND #$80                        A:00 X:FF Y:00 P:26 SP:FF CYC:11838
C7AD  F0 F9     BEQ $C7A8                       A:00 X:FF Y:00 P:26 SP:FF CYC:11840
C7A8  AD 02 20  LDA $2002 = 00                  A:00 X:FF Y:00 P:26 SP:FF CYC:11843
C7AB  29 80     AND #$80                        A:00 X:FF Y:00 P:26 SP:FF CYC:11847
C7AD  F0 F9     BEQ $C7A8                       A:00 X:FF Y:00 P:26 SP:FF CYC:11849
C7A8  AD 02 20  LDA $2002 = 00                  A:00 X:FF Y:00 P:26 SP:FF CYC:11852
C7AB  29 80     AND #$80                        A:00 X:FF Y:00 P:26 SP:FF CYC:11856
C7AD  F0 F9     BEQ $C7A8                       A:00 X:FF Y:00 P:26 SP:FF CYC:11858
C7A8  AD 02 20  LDA $2002 = 00                  A:00 X:FF Y:00 P:26 SP:FF CYC:11861
C7AB  29 80     AND #$80                        A:00 X:FF Y:00 P:26 SP:FF CYC:11865
C7AD  F0 F9     BEQ $C7A8                       A:00 X:FF Y:00 P:26 SP:FF CYC:11867
C7A8  AD 02 20  LDA $2002 = 00                  A:00 X:FF Y:00 P:26 SP:FF CYC:11870
C7AB  29 80     AND #$80                        A:00 X:FF Y:00 P:26 SP:FF CYC:11874
C7AD  F0 F9     BEQ $C7A8                       A:00 X:FF Y:00 P:26 SP:FF CYC:11876
C7A8  AD 02 20  LDA $2002 = 00                  A:00 X:FF Y:00 P:26 SP:FF CYC:11879
C7AB  29 80     AND #$80                        A:00 X:FF Y:00 P:26 SP:FF CYC:11883
C7AD  F0 F9     BEQ $C7A8                       A:00 X:FF Y:00 P:26 SP:FF CYC:11885
C7A8  AD 02 20  LDA $2002 = 00                  A:00 X:FF Y:00 P:26 SP:FF CYC:11888
C7AB  29 80     AND #$80                        A:00 X:FF Y:00 P:26 SP:FF CYC:11892
C7AD  F0 F9     BEQ $C7A8                       A:00 X:FF Y:00 P:26 SP:FF CYC:11894
C7A8  AD 02 20  LDA $2002 = 00                  A:00 X:FF Y:00 P:26 SP:FF CYC:11897
C7AB  29 80     AND #$80                        A:00 X:FF Y:00 P:26 SP:FF CYC:11901
C7AD  F0 F9     BEQ $C7A8                       A:00 X:FF Y:00 P:26 SP:FF CYC:11903
C7A8  AD 02 20  LDA $2002 = 00                  A:00 X:FF Y:00 P:26 SP:FF CYC:11906
C7AB  29 80     AND #$80                        A:00 X:FF Y:00 P:26 SP:FF CYC:11910
C7AD  F0 F9     BEQ $C7A8                       A:00 X:FF Y:00 P:26 SP:FF CYC:11912
C7A8  AD 02 20  LDA $2002 = 00                  A:00 X:FF Y:00 P:26 SP:FF CYC:11915
C7AB  29 80     AND #$80                        A:00 X:FF Y:00 P:26 SP:FF CYC:11919
C7AD  F0 F9     BEQ $C7A8                       A:00 X:FF Y:00 P:26 SP:FF CYC:11921
C7A8  AD 02 20  LDA $2002 = 00                  A:00 X:FF Y:00 P:26 SP:FF CYC:11924
C7AB  29 80     AND #$80                        A:00 X:FF Y:00 P:26 SP:FF CYC:11928
C7AD  F0 F9     BEQ $C7A8                       A:00 X:FF Y:00 P:26 SP:FF CYC:11930
C7A8  AD 02 20  LDA $2002 = 00                  A:00 X:FF Y:00 P:26 SP:FF CYC:11933
C7AB  29 80     AND #$80                        A:00 X:FF Y:00 P:26 SP:FF CYC:11937
C7AD  F0 F9     BEQ $C7A8                       A:00 X:FF Y:00 P:26 SP:FF CYC:11939
C7A8  AD 02 20  LDA $2002 = 00                  A:00 X:FF Y:00 P:26 SP:FF CYC:11942
C7AB  29 80     AND #$80                        A:00 X:FF Y:00 P:26 SP:FF CYC:11946
C7AD  F0 F9     BEQ $C7A8                       A:00 X:FF Y:00 P:26 SP:FF CYC:11948
C7A8  AD 02 20  LDA $2002 = 00                  A:00 X:FF Y:00 P:26 SP:FF CYC:11951
C7AB  29 80     AND #$80                        A:00 X:FF Y:00 P:26 SP:FF CYC:11955
C7AD  F0 F9     BEQ $C7A8                       A:00 X:FF Y:00 P:26 SP:FF CYC:11957
C7A8  AD 02 20  LDA $2002 = 00                  A:00 X:FF Y:00 P:26 SP:FF CYC:11960
C7AB  29 80     AND #$80                        A:00 X:FF Y:00 P:26 SP:FF CYC:11964
C7AD  F0 F9     BEQ $C7A8                       A:00 X:FF Y:00 P:26 SP:FF CYC:11966
C7A8  AD 02 20  LDA $2002 = 00                  A:00 X:FF Y:00 P:26 SP:FF CYC:11969
C7AB  29 80     AND #$80                        A:00 X:FF Y:00 P:26 SP:FF CYC:11973
C7AD  F0 F9     BEQ $C7A8                       A:00 X:FF Y:00 P:26 SP:FF CYC:11975
C7A8  AD 02 20  LDA $2002 = 00                  A:00 X:FF Y:00 P:26 SP:FF CYC:11978
C7AB  29 80     AND #$80                        A:00 X:FF Y:00 P:26 SP:FF CYC:11982
C7AD  F0 F9     BEQ $C7A8                       A:00 X:FF Y:00 P:26 SP:FF CYC:11984
C7A8  AD 02 20  LDA $2002 = 00                  A:00 X:FF Y:00 P:26 SP:FF CYC:11987
C7AB  29 80     AND #$80                        A:00 X:FF Y:00 P:26 SP:FF CYC:11991
C7AD  F0 F9     BEQ $C7A8                       A:00 X:FF Y:00 P:26 SP:FF CYC:11993
C7A8  AD 02 20  LDA $2002 = 00                  A:00 X:FF Y:00 P:26 SP:FF CYC:11996
C7AB  29 80     AND #$80                        A:00 X:FF Y:00 P:26 SP:FF CYC:12000
C7AD  F0 F9     BEQ $C7A8                       A:00 X:FF Y:00 P:26 SP:FF CYC:12002
C7A8  AD 02 20  LDA $2002 = 00                  A:00 X:FF Y:00 P:26 SP:FF CYC:12005
C7AB  29 80     AND #$80                        A:00 X:FF Y:00 P:26 SP:FF CYC:12009
C7AD  F0 F9     BEQ $C7A8                       A:00 X:FF Y:00 P:26 SP:FF CYC:12011
C7A8  AD 02 20  LDA $2002 = 00                  A:00 X:FF Y:00 P:26 SP:FF CYC:12014
C7AB  29 80     AND #$80                        A:00 X:FF Y:00 P:26 SP:FF CYC:12018
C7AD  F0 F9     BEQ $C7A8                       A:00 X:FF Y:00 P:26 SP:FF CYC:12020
C7A8  AD 02 20  LDA $2002 = 00                  A:00 X:FF Y:00 P:26 SP:FF CYC:12023
C7AB  29 80     AND #$80                        A:00 X:FF Y:00 P:26 SP:FF CYC:12027
C7AD  F0 F9     BEQ $C7A8                       A:00 X:FF Y:00 P:26 SP:FF CYC:12029
C7A8  AD 02 20  LDA $2002 = 00                  A:00 X:FF Y:00 P:26 SP:FF CYC:12032
C7AB  29 80     AND #$80                        A:00 X:FF Y:00 P:26 SP:FF CYC:12036
C7AD  F0 F9     BEQ $C7A8                       A:00 X:FF Y:00 P:26 SP:FF CYC:12038
C7A8  AD 02 20  LDA $2002 = 00                  A:00 X:FF Y:00 P:26 SP:FF CYC:12041
C7AB  29 80     AND #$80                        A:00 X:FF Y:00 P:26 SP:FF CYC:12045
C7AD  F0 F9     BEQ $C7A8                       A:00 X:FF Y:00 P:26 SP:FF CYC:12047
C7A8  AD 02 20  LDA $2002 = 00                  A:00 X:FF Y:00 P:26 SP:FF CYC:12050
C7AB  29 80     AND #$80                        A:00 X:FF Y:00 P:26 SP:FF CYC:12054
C7AD  F0 F9     BEQ $C7A8                       A:00 X:FF Y:00 P:26 SP:FF CYC:12056
C7A8  AD 02 20  LDA $2002 = 00                  A:00 X:FF Y:00 P:26 SP:FF CYC:12059
C7AB  29 80     AND #$80                        A:00 X:FF Y:00 P:26 SP:FF CYC:12063
C7AD  F0 F9     BEQ $C7A8                       A:00 X:FF Y:00 P:26 SP:FF CYC:12065
C7A8  AD 02 20  LDA $2002 = 00                  A:00 X:FF Y:00 P:26 SP:FF CYC:12068
C7AB  29 80     AND #$80                        A:00 X:FF Y:00 P:26 SP:FF CYC:12072
C7AD  F0 F9     BEQ $C7A8                       A:00 X:FF Y:00 P:26 SP:FF CYC:12074
C7A8  AD 02 20  LDA $2002 = 00                  A:00 X:FF Y:00 P:26 SP:FF CYC:12077
C7AB  29 80     AND #$80                        A:00 X:FF Y:00 P:26 SP:FF CYC:12081
C7AD  F0 F9     BEQ $C7A8                       A:00 X:FF Y:00 P:26 SP:FF CYC:12083
C7A8  AD 02 20  LDA $2002 = 00                  A:00 X:FF Y:00 P:26 SP:FF CYC:12086
C7AB  29 80     AND #$80                        A:00 X:FF Y:00 P:26 SP:FF CYC:12090
C7AD  F0 F9     BEQ $C7A8                       A:00 X:FF Y:00 P:26 SP:FF CYC:12092
C7A8  AD 02 20  LDA $2002 = 00                  A:00 X:FF Y:00 P:26 SP:FF CYC:12095
C7AB  29 80     AND #$80                        A:00 X:FF Y:00 P:26 SP:FF CYC:12099
C7AD  F0 F9     BEQ $C7A8                       A:00 X:FF Y:00 P:26 SP:FF CYC:12101
C7A8  AD 02 20  LDA $2002 = 00                  A:00 X:FF Y:00 P:26 SP:FF CYC:12104
C7AB  29 80     AND #$80                        A:00 X:FF Y:00 P:26 SP:FF CYC:12108
C7AD  F0 F9     BEQ $C7A8                       A:00 X:FF Y:00 P:26 SP:FF CYC:12110
C7A8  AD 02 20  LDA $2002 = 00                  A:00 X:FF Y:00 P:26 SP:FF CYC:12113
C7AB  29 80     AND #$80                        A:00 X:FF Y:00 P:26 SP:FF CYC:12117
C7AD  F0 F9     BEQ $C7A8                       A:00 X:FF Y:00 P:26 SP:FF CYC:12119
C7A8  AD 02 20  LDA $2002 = 00                  A:00 X:FF Y:00 P:26 SP:FF CYC:12122
C7AB  29 80     AND #$80                        A:00 X:FF Y:00 P:26 SP:FF CYC:12126
C7AD  F0 F9     BEQ $C7A8                       A:00 X:FF Y:00 P:26 SP:FF CYC:12128
C7A8  AD 02 20  LDA $2002 = 00                  A:00 X:FF Y:00 P:26 SP:FF CYC:12131
C7AB  29 80     AND #$80                        A:00 X:FF Y:00 P:26 SP:FF CYC:12135
C7AD  F0 F9     BEQ $C7A8                       A:00 X:FF Y:00 P:26 SP:FF CYC:12137
C7A8  AD 02 20  LDA $2002 = 00                  A:00 X:FF Y:00 P:26 SP:FF CYC:12140
C7AB  29 80     AND #$80                        A:00 X:FF Y:00 P:26 SP:FF CYC:12144
C7AD  F0 F9     BEQ $C7A8                       A:00 X:FF Y:00 P:26 SP:FF CYC:12146
C7A8  AD 02 20  LDA $2002 = 00                  A:00 X:FF Y:00 P:26 SP:FF CYC:12149
C7AB  29 80     AND #$80                        A:00 X:FF Y:00 P:26 SP:FF CYC:12153
C7AD  F0 F9     BEQ $C7A8                       A:00 X:FF Y:00 P:26 SP:FF CYC:12155
C7A8  AD 02 20  LDA $2002 = 00                  A:00 X:FF Y:00 P:26 SP:FF CYC:12158
C7AB  29 80     AND #$80                        A:00 X:FF Y:00 P:26 SP:FF CYC:12162
C7AD  F0 F9     BEQ $C7A8                       A:00 X:FF Y:00 P:26 SP:FF CYC:12164
C7A8  AD 02 20  LDA $2002 = 00                  A:00 X:FF Y:00 P:26 SP:FF CYC:12167
C7AB  29 80     AND #$80                        A:00 X:FF Y:00 P:26 SP:FF CYC:12171
C7AD  F0 F9     BEQ $C7A8                       A:00 X:FF Y:00 P:26 SP:FF CYC:12173
C7A8  AD 02 20  LDA $2002 = 00                  A:00 X:FF Y:00 P:26 SP:FF CYC:12176
C7AB  29 80     AND #$80                        A:00 X:FF Y:00 P:26 SP:FF CYC:12180
C7AD  F0 F9     BEQ $C7A8                       A:00 X:FF Y:00 P:26 SP:FF CYC:12182
C7A8  AD 02 20  LDA $2002 = 00                  A:00 X:FF Y:00 P:26 SP:FF CYC:12185
C7AB  29 80     AND #$80                        A:00 X:FF Y:00 P:26 SP:FF CYC:12189
C7AD  F0 F9     BEQ $C7A8                       A:00 X:FF Y:00 P:26 SP:FF CYC:12191
C7A8  AD 02 20  LDA $2002 = 00                  A:00 X:FF Y:00 P:26 SP:FF CYC:12194
C7AB  29 80     AND #$80                        A:00 X:FF Y:00 P:26 SP:FF CYC:12198
C7AD  F0 F9     BEQ $C7A8                       A:00 X:FF Y:00 P:26 SP:FF CYC:12200
C7A8  AD 02 20  LDA $2002 = 00                  A:00 X:FF Y:00 P:26 SP:FF CYC:12203
C7AB  29 80     AND #$80                        A:00 X:FF Y:00 P:26 SP:FF CYC:12207
C7AD  F0 F9     BEQ $C7A8                       A:00 X:FF Y:00 P:26 SP:FF CYC:12209
C7A8  AD 02 20  LDA $2002 = 00                  A:00 X:FF Y:00 P:26 SP:FF CYC:12212
C7AB  29 80     AND #$80                        A:00 X:FF Y:00 P:26 SP:FF CYC:12216
C7AD  F0 F9     BEQ $C7A8                       A:00 X:FF Y:00 P:26 SP:FF CYC:12218
C7A8  AD 02 20  LDA $2002 = 00                  A:00 X:FF Y:00 P:26 SP:FF CYC:12221
C7AB  29 80     AND #$80                        A:00 X:FF Y:00 P:26 SP:FF CYC:12225
C7AD  F0 F9     BEQ $C7A8                       A:00 X:FF Y:00 P:26 SP:FF CYC:12227
C7A8  AD 02 20  LDA $2002 = 00                  A:00 X:FF Y:00 P:26 SP:FF CYC:12230
C7AB  29 80     AND #$80                        A:00 X:FF Y:00 P:26 SP:FF CYC:12234
C7AD  F0 F9     BEQ $C7A8                       A:00 X:FF Y:00 P:26 SP:FF CYC:12236
C7A8  AD 02 20  LDA $2002 = 00                  A:00 X:FF Y:00 P:26 SP:FF CYC:12239
C7AB  29 80     AND #$80                        A:00 X:FF Y:00 P:26 SP:FF CYC:12243
C7AD  F0 F9     BEQ $C7A8                       A:00 X:FF Y:00 P:26 SP:FF CYC:12245
C7A8  AD 02 20  LDA $2002 = 00                  A:00 X:FF Y:00 P:26 SP:FF CYC:12248
C7AB  29 80     AND #$80                        A:00 X:FF Y:00 P:26 SP:FF CYC:12252
C7AD  F0 F9     BEQ $C7A8                       A:00 X:FF Y:00 P:26 SP:FF CYC:12254
C7A8  AD 02 20  LDA $2002 = 00                  A:00 X:FF Y:00 P:26 SP:FF CYC:12257
C7AB  29 80     AND #$80                        A:00 X:FF Y:00 P:26 SP:FF CYC:12261
C7AD  F0 F9     BEQ $C7A8                       A:00 X:FF Y:00 P:26 SP:FF CYC:12263
C7A8  AD 02 20  LDA $2002 = 00                  A:00 X:FF Y:00 P:26 SP:FF CYC:12266
C7AB  29 80     AND #$80                        A:00 X:FF Y:00 P:26 SP:FF CYC:12270
C7AD  F0 F9     BEQ $C7A8                       A:00 X:FF Y:00 P:26 SP:FF CYC:12272
C7A8  AD 02 20  LDA $2002 = 00                  A:00 X:FF Y:00 P:26 SP:FF CYC:12275
C7AB  29 80     AND #$80                        A:00 X:FF Y:00 P:26 SP:FF CYC:12279
C7AD  F0 F9     BEQ $C7A8                       A:00 X:FF Y:00 P:26 SP:FF CYC:12281
C7A8  AD 02 20  LDA $2002 = 00                  A:00 X:FF Y:00 P:26 SP:FF CYC:12284
C7AB  29 80     AND #$80                        A:00 X:FF Y:00 P:26 SP:FF CYC:12288
C7AD  F0 F9     BEQ $C7A8                       A:00 X:FF Y:00 P:26 SP:FF CYC:12290
C7A8  AD 02 20  LDA $2002 = 00                  A:00 X:FF Y:00 P:26 SP:FF CYC:12293
C7AB  29 80     AND #$80                        A:00 X:FF Y:00 P:26 SP:FF CYC:12297
C7AD  F0 F9     BEQ $C7A8                       A:00 X:FF Y:00 P:26 SP:FF CYC:12299
C7A8  AD 02 20  LDA $2002 = 00                  A:00 X:FF Y:00 P:26 SP:FF CYC:12302
C7AB  29 80     AND #$80                        A:00 X:FF Y:00 P:26 SP:FF CYC:12306
C7AD  F0 F9     BEQ $C7A8                       A:00 X:FF Y:00 P:26 SP:FF CYC:12308
C7A8  AD 02 20  LDA $2002 = 00                  A:00 X:FF Y:00 P:26 SP:FF CYC:12311
C7AB  29 80     AND #$80                        A:00 X:FF Y:00 P:26 SP:FF CYC:12315
C7AD  F0 F9     BEQ $C7A8                       A:00 X:FF Y:00 P:26 SP:FF CYC:12317
C7A8  AD 02 20  LDA $2002 = 00                  A:00 X:FF Y:00 P:26 SP:FF CYC:12320
C7AB  29 80     AND #$80                        A:00 X:FF Y:00 P:26 SP:FF CYC:12324
C7AD  F0 F9     BEQ $C7A8                       A:00 X:FF Y:00 P:26 SP:FF CYC:12326
C7A8  AD 02 20  LDA $2002 = 00                  A:00 X:FF Y:00 P:26 SP:FF CYC:12329
C7AB  29 80     AND #$80                        A:00 X:FF Y:00 P:26 SP:FF CYC:12333
C7AD  F0 F9     BEQ $C7A8                       A:00 X:FF Y:00 P:26 SP:FF CYC:12335
C7A8  AD 02 20  LDA $2002 = 00                  A:00 X:FF Y:00 P:26 SP:FF CYC:12338
C7AB  29 80     AND #$80                        A:00 X:FF Y:00 P:26 SP:FF CYC:12342
C7AD  F0 F9     BEQ $C7A8                       A:00 X:FF Y:00 P:26 SP:FF CYC:12344
C7A8  AD 02 20  LDA $2002 = 00                  A:00 X:FF Y:00 P:26 SP:FF CYC:12347
C7AB  29 80     AND #$80                        A:00 X:FF Y:00 P:26 SP:FF CYC:12351
C7AD  F0 F9     BEQ $C7A8                       A:00 X:FF Y:00 P:26 SP:FF CYC:12353
C7A8  AD 02 20  LDA $2002 = 00                  A:00 X:FF Y:00 P:26 SP:FF CYC:12356
C7AB  29 80     AND #$80                        A:00 X:FF Y:00 P:26 SP:FF CYC:12360
C7AD  F0 F9     BEQ $C7A8                       A:00 X:FF Y:00 P:26 SP:FF CYC:12362
C7A8  AD 02 20  LDA $2002 = 00                  A:00 X:FF Y:00 P:26 SP:FF CYC:12365
C7AB  29 80     AND #$80                        A:00 X:FF Y:00 P:26 SP:FF CYC:12369
C7AD  F0 F9     BEQ $C7A8                       A:00 X:FF Y:00 P:26 SP:FF CYC:12371
C7A8  AD 02 20  LDA $2002 = 00                  A:00 X:FF Y:00 P:26 SP:FF CYC:12374
C7AB  29 80     AND #$80                        A:00 X:FF Y:00 P:26 SP:FF CYC:12378
C7AD  F0 F9     BEQ $C7A8                       A:00 X:FF Y:00 P:26 SP:FF CYC:12380
C7A8  AD 02 20  LDA $2002 = 00                  A:00 X:FF Y:00 P:26 SP:FF CYC:12383
C7AB  29 80     AND #$80                        A:00 X:FF Y:00 P:26 SP:FF CYC:12387
C7AD  F0 F9     BEQ $C7A8                       A:00 X:FF Y:00 P:26 SP:FF CYC:12389
C7A8  AD 02 20  LDA $2002 = 00                  A:00 X:FF Y:00 P:26 SP:FF CYC:12392
C7AB  29 80     AND #$80                        A:00 X:FF Y:00 P:26 SP:FF CYC:12396
C7AD  F0 F9     BEQ $C7A8                       A:00 X:FF Y:00 P:26 SP:FF CYC:12398
C7A8  AD 02 20  LDA $2002 = 00                  A:00 X:FF Y:00 P:26 SP:FF CYC:12401
C7AB  29 80     AND #$80                        A:00 X:FF Y:00 P:26 SP:FF CYC:12405
C7AD  F0 F9     BEQ $C7A8                       A:00 X:FF Y:00 P:26 SP:FF CYC:12407
C7A8  AD 02 20  LDA $2002 = 00                  A:00 X:FF Y:00 P:26 SP:FF CYC:12410
C7AB  29 80     AND #$80                        A:00 X:FF Y:00 P:26 SP:FF CYC:12414
C7AD  F0 F9     BEQ $C7A8                       A:00 X:FF Y:00 P:26 SP:FF CYC:12416
C7A8  AD 02 20  LDA $2002 = 00                  A:00 X:FF Y:00 P:26 SP:FF CYC:12419
C7AB  29 80     AND #$80                        A:00 X:FF Y:00 P:26 SP:FF CYC:12423
C7AD  F0 F9     BEQ $C7A8                       A:00 X:FF Y:00 P:26 SP:FF CYC:12425
C7A8  AD 02 20  LDA $2002 = 00                  A:00 X:FF Y:00 P:26 SP:FF CYC:12428
C7AB  29 80     AND #$80                        A:00 X:FF Y:00 P:26 SP:FF CYC:12432
C7AD  F0 F9     BEQ $C7A8                       A:00 X:FF Y:00 P:26 SP:FF CYC:12434
C7A8  AD 02 20  LDA $2002 = 00                  A:00 X:FF Y:00 P:26 SP:FF CYC:12437
C7AB  29 80     AND #$80                        A:00 X:FF Y:00 P:26 SP:FF CYC:12441
C7AD  F0 F9     BEQ $C7A8                       A:00 X:FF Y:00 P:26 SP:FF CYC:12443
C7A8  AD 02 20  LDA $2002 = 00                  A:00 X:FF Y:00 P:26 SP:FF CYC:12446
C7AB  29 80     AND #$80                        A:00 X:FF Y:00 P:26 SP:FF CYC:12450
C7AD  F0 F9     BEQ $C7A8                       A:00 X:FF Y:00 P:26 SP:FF CYC:12452
C7A8  AD 02 20  LDA $2002 = 00                  A:00 X:FF Y:00 P:26 SP:FF CYC:12455
C7AB  29 80     AND #$80                        A:00 X:FF Y:00 P:26 SP:FF CYC:12459
C7AD  F0 F9     BEQ $C7A8                       A:00 X:FF Y:00 P:26 SP:FF CYC:12461
C7A8  AD 02 20  LDA $2002 = 00                  A:00 X:FF Y:00 P:26 SP:FF CYC:12464
C7AB  29 80     AND #$80                        A:00 X:FF Y:00 P:26 SP:FF CYC:12468
C7AD  F0 F9     BEQ $C7A8                       A:00 X:FF Y:00 P:26 SP:FF CYC:12470
C7A8  AD 02 20  LDA $2002 = 00                  A:00 X:FF Y:00 P:26 SP:FF CYC:12473
C7AB  29 80     AND #$80                        A:00 X:FF Y:00 P:26 SP:FF CYC:12477
C7AD  F0 F9     BEQ $C7A8                       A:00 X:FF Y:00 P:26 SP:FF CYC:12479
C7A8  AD 02 20  LDA $2002 = 00                  A:00 X:FF Y:00 P:26 SP:FF CYC:12482
C7AB  29 80     AND #$80                        A:00 X:FF Y:00 P:26 SP:FF CYC:12486
C7AD  F0 F9     BEQ $C7A8                       A:00 X:FF Y:00 P:26 SP:FF CYC:12488
C7A8  AD 02 20  LDA $2002 = 00                  A:00 X:FF Y:00 P:26 SP:FF CYC:12491
C7AB  29 80     AND #$80                        A:00 X:FF Y:00 P:26 SP:FF CYC:12495
C7AD  F0 F9     BEQ $C7A8                       A:00 X:FF Y:00 P:26 SP:FF CYC:12497
C7A8  AD 02 20  LDA $2002 = 00                  A:00 X:FF Y:00 P:26 SP:FF CYC:12500
C7AB  29 80     AND #$80                        A:00 X:FF Y:00 P:26 SP:FF CYC:12504
C7AD  F0 F9     BEQ $C7A8                       A:00 X:FF Y:00 P:26 SP:FF CYC:12506
C7A8  AD 02 20  LDA $2002 = 00                  A:00 X:FF Y:00 P:26 SP:FF CYC:12509
C7AB  29 80     AND #$80                        A:00 X:FF Y:00 P:26 SP:FF CYC:12513
C7AD  F0 F9     BEQ $C7A8                       A:00 X:FF Y:00 P:26 SP:FF CYC:12515
C7A8  AD 02 20  LDA $2002 = 00                  A:00 X:FF Y:00 P:26 SP:FF CYC:12518
C7AB  29 80     AND #$80                        A:00 X:FF Y:00 P:26 SP:FF CYC:12522
C7AD  F0 F9     BEQ $C7A8                       A:00 X:FF Y:00 P:26 SP:FF CYC:12524
C7A8  AD 02 20  LDA $2002 = 00                  A:00 X:FF Y:00 P:26 SP:FF CYC:12527
C7AB  29 80     AND #$80                        A:00 X:FF Y:00 P:26 SP:FF CYC:12531
C7AD  F0 F9     BEQ $C7A8                       A:00 X:FF Y:00 P:26 SP:FF CYC:12533
C7A8  AD 02 20  LDA $2002 = 00                  A:00 X:FF Y:00 P:26 SP:FF CYC:12536
C7AB  29 80     AND #$80                        A:00 X:FF Y:00 P:26 SP:FF CYC:12540
C7AD  F0 F9     BEQ $C7A8                       A:00 X:FF Y:00 P:26 SP:FF CYC:12542
C7A8  AD 02 20  LDA $2002 = 00                  A:00 X:FF Y:00 P:26 SP:FF CYC:12545
C7AB  29 80     AND #$80                        A:00 X:FF Y:00 P:26 SP:FF CYC:12549
C7AD  F0 F9     BEQ $C7A8                       A:00 X:FF Y:00 P:26 SP:FF CYC:12551
C7A8  AD 02 20  LDA $2002 = 00                  A:00 X:FF Y:00 P:26 SP:FF CYC:12554
C7AB  29 80     AND #$80                        A:00 X:FF Y:00 P:26 SP:FF CYC:12558
C7AD  F0 F9     BEQ $C7A8                       A:00 X:FF Y:00 P:26 SP:FF CYC:12560
C7A8  AD 02 20  LDA $2002 = 00                  A:00 X:FF Y:00 P:26 SP:FF CYC:12563
C7AB  29 80     AND #$80                        A:00 X:FF Y:00 P:26 SP:FF CYC:12567
C7AD  F0 F9     BEQ $C7A8                       A:00 X:FF Y:00 P:26 SP:FF CYC:12569
C7A8  AD 02 20  LDA $2002 = 00                  A:00 X:FF Y:00 P:26 SP:FF CYC:12572
C7AB  29 80     AND #$80                        A:00 X:FF Y:00 P:26 SP:FF CYC:12576
C7AD  F0 F9     BEQ $C7A8                       A:00 X:FF Y:00 P:26 SP:FF CYC:12578
C7A8  AD 02 20  LDA $2002 = 00                  A:00 X:FF Y:00 P:26 SP:FF CYC:12581
C7AB  29 80     AND #$80                        A:00 X:FF Y:00 P:26 SP:FF CYC:12585
C7AD  F0 F9     BEQ $C7A8                       A:00 X:FF Y:00 P:26 SP:FF CYC:12587
C7A8  AD 02 20  LDA $2002 = 00                  A:00 X:FF Y:00 P:26 SP:FF CYC:12590
C7AB  29 80     AND #$80                        A:00 X:FF Y:00 P:26 SP:FF CYC:12594
C7AD  F0 F9     BEQ $C7A8                       A:00 X:FF Y:00 P:26 SP:FF CYC:12596
C7A8  AD 02 20  LDA $2002 = 00                  A:00 X:FF Y:00 P:26 SP:FF CYC:12599
C7AB  29 80     AND #$80                        A:00 X:FF Y:00 P:26 SP:FF CYC:12603
C7AD  F0 F9     BEQ $C7A8                       A:00 X:FF Y:00 P:26 SP:FF CYC:12605
C7A8  AD 02 20  LDA $2002 = 00                  A:00 X:FF Y:00 P:26 SP:FF CYC:12608
C7AB  29 80     AND #$80                        A:00 X:FF Y:00 P:26 SP:FF CYC:12612
C7AD  F0 F9     BEQ $C7A8                       A:00 X:FF Y:00 P:26 SP:FF CYC:12614
C7A8  AD 02 20  LDA $2002 = 00                  A:00 X:FF Y:00 P:26 SP:FF CYC:12617
C7AB  29 80     AND #$80                        A:00 X:FF Y:00 P:26 SP:FF CYC:12621
C7AD  F0 F9     BEQ $C7A8                       A:00 X:FF Y:00 P:26 SP:FF CYC:12623
C7A8  AD 02 20  LDA $2002 = 00                  A:00 X:FF Y:00 P:26 SP:FF CYC:12626
C7AB  29 80     AND #$80                        A:00 X:FF Y:00 P:26 SP:FF CYC:12630
C7AD  F0 F9     BEQ $C7A8                       A:00 X:FF Y:00 P:26 SP:FF CYC:12632
C7A8  AD 02 20  LDA $2002 = 00                  A:00 X:FF Y:00 P:26 SP:FF CYC:12635
C7AB  29 80     AND #$80                        A:00 X:FF Y:00 P:26 SP:FF CYC:12639
C7AD  F0 F9     BEQ $C7A8                       A:00 X:FF Y:00 P:26 SP:FF CYC:12641
C7A8  AD 02 20  LDA $2002 = 00                  A:00 X:FF Y:00 P:26 SP:FF CYC:12644
C7AB  29 80     AND #$80                        A:00 X:FF Y:00 P:26 SP:FF CYC:12648
C7AD  F0 F9     BEQ $C7A8                       A:00 X:FF Y:00 P:26 SP:FF CYC:12650
C7A8  AD 02 20  LDA $2002 = 00                  A:00 X:FF Y:00 P:26 SP:FF CYC:12653
C7AB  29 80     AND #$80                        A:00 X:FF Y:00 P:26 SP:FF CYC:12657
C7AD  F0 F9     BEQ $C7A8                       A:00 X:FF Y:00 P:26 SP:FF CYC:12659
C7A8  AD 02 20  LDA $2002 = 00                  A:00 X:FF Y:00 P:26 SP:FF CYC:12662
C7AB  29 80     AND #$80                        A:00 X:FF Y:00 P:26 SP:FF CYC:12666
C7AD  F0 F9     BEQ $C7A8                       A:00 X:FF Y:00 P:26 SP:FF CYC:12668
C7A8  AD 02 20  LDA $2002 = 00                  A:00 X:FF Y:00 P:26 SP:FF CYC:12671
C7AB  29 80     AND #$80                        A:00 X:FF Y:00 P:26 SP:FF CYC:12675
C7AD  F0 F9     BEQ $C7A8                       A:00 X:FF Y:00 P:26 SP:FF CYC:12677
C7A8  AD 02 20  LDA $2002 = 00                  A:00 X:FF Y:00 P:26 SP:FF CYC:12680
C7AB  29 80     AND #$80                        A:00 X:FF Y:00 P:26 SP:FF CYC:12684
C7AD  F0 F9     BEQ $C7A8                       A:00 X:FF Y:00 P:26 SP:FF CYC:12686
C7A8  AD 02 20  LDA $2002 = 00                  A:00 X:FF Y:00 P:26 SP:FF CYC:12689
C7AB  29 80     AND #$80                        A:00 X:FF Y:00 P:26 SP:FF CYC:12693
C7AD  F0 F9     BEQ $C7A8                       A:00 X:FF Y:00 P:26 SP:FF CYC:12695
C7A8  AD 02 20  LDA $2002 = 00                  A:00 X:FF Y:00 P:26 SP:FF CYC:12698
C7AB  29 80     AND #$80                        A:00 X:FF Y:00 P:26 SP:FF CYC:12702
C7AD  F0 F9     BEQ $C7A8                       A:00 X:FF Y:00 P:26 SP:FF CYC:12704
C7A8  AD 02 20  LDA $2002 = 00                  A:00 X:FF Y:00 P:26 SP:FF CYC:12707
C7AB  29 80     AND #$80                        A:00 X:FF Y:00 P:26 SP:FF CYC:12711
C7AD  F0 F9     BEQ $C7A8                       A:00 X:FF Y:00 P:26 SP:FF CYC:12713
C7A8  AD 02 20  LDA $2002 = 00                  A:00 X:FF Y:00 P:26 SP:FF CYC:12716
C7AB  29 80     AND #$80                        A:00 X:FF Y:00 P:26 SP:FF CYC:12720
C7AD  F0 F9     BEQ $C7A8                       A:00 X:FF Y:00 P:26 SP:FF CYC:12722
C7A8  AD 02 20  LDA $2002 = 00                  A:00 X:FF Y:00 P:26 SP:FF CYC:12725
C7AB  29 80     AND #$80                        A:00 X:FF Y:00 P:26 SP:FF CYC:12729
C7AD  F0 F9     BEQ $C7A8                       A:00 X:FF Y:00 P:26 SP:FF CYC:12731
C7A8  AD 02 20  LDA $2002 = 00                  A:00 X:FF Y:00 P:26 SP:FF CYC:12734
C7AB  29 80     AND #$80                        A:00 X:FF Y:00 P:26 SP:FF CYC:12738
C7AD  F0 F9     BEQ $C7A8                       A:00 X:FF Y:00 P:26 SP:FF CYC:12740
C7A8  AD 02 20  LDA $2002 = 00                  A:00 X:FF Y:00 P:26 SP:FF CYC:12743
C7AB  29 80     AND #$80                        A:00 X:FF Y:00 P:26 SP:FF CYC:12747
C7AD  F0 F9     BEQ $C7A8                       A:00 X:FF Y:00 P:26 SP:FF CYC:12749
C7A8  AD 02 20  LDA $2002 = 00                  A:00 X:FF Y:00 P:26 SP:FF CYC:12752
C7AB  29 80     AND #$80                        A:00 X:FF Y:00 P:26 SP:FF CYC:12756
C7AD  F0 F9     BEQ $C7A8                       A:00 X:FF Y:00 P:26 SP:FF CYC:12758
C7A8  AD 02 20  LDA $2002 = 00                  A:00 X:FF Y:00 P:26 SP:FF CYC:12761
C7AB  29 80     AND #$80                        A:00 X:FF Y:00 P:26 SP:FF CYC:12765
C7AD  F0 F9     BEQ $C7A8                       A:00 X:FF Y:00 P:26 SP:FF CYC:12767
C7A8  AD 02 20  LDA $2002 = 00                  A:00 X:FF Y:00 P:26 SP:FF CYC:12770
C7AB  29 80     AND #$80                        A:00 X:FF Y:00 P:26 SP:FF CYC:12774
C7AD  F0 F9     BEQ $C7A8                       A:00 X:FF Y:00 P:26 SP:FF CYC:12776
C7A8  AD 02 20  LDA $2002 = 00                  A:00 X:FF Y:00 P:26 SP:FF CYC:12779
C7AB  29 80     AND #$80                        A:00 X:FF Y:00 P:26 SP:FF CYC:12783
C7AD  F0 F9     BEQ $C7A8                       A:00 X:FF Y:00 P:26 SP:FF CYC:12785
C7A8  AD 02 20  LDA $2002 = 00                  A:00 X:FF Y:00 P:26 SP:FF CYC:12788
C7AB  29 80     AND #$80                        A:00 X:FF Y:00 P:26 SP:FF CYC:12792
C7AD  F0 F9     BEQ $C7A8                       A:00 X:FF Y:00 P:26 SP:FF CYC:12794
C7A8  AD 02 20  LDA $2002 = 00                  A:00 X:FF Y:00 P:26 SP:FF CYC:12797
C7AB  29 80     AND #$80                        A:00 X:FF Y:00 P:26 SP:FF CYC:12801
C7AD  F0 F9     BEQ $C7A8                       A:00 X:FF Y:00 P:26 SP:FF CYC:12803
C7A8  AD 02 20  LDA $2002 = 00                  A:00 X:FF Y:00 P:26 SP:FF CYC:12806
C7AB  29 80     AND #$80                        A:00 X:FF Y:00 P:26 SP:FF CYC:12810
C7AD  F0 F9     BEQ $C7A8                       A:00 X:FF Y:00 P:26 SP:FF CYC:12812
C7A8  AD 02 20  LDA $2002 = 00                  A:00 X:FF Y:00 P:26 SP:FF CYC:12815
C7AB  29 80     AND #$80                        A:00 X:FF Y:00 P:26 SP:FF CYC:12819
C7AD  F0 F9     BEQ $C7A8                       A:00 X:FF Y:00 P:26 SP:FF CYC:12821
C7A8  AD 02 20  LDA $2002 = 00                  A:00 X:FF Y:00 P:26 SP:FF CYC:12824
C7AB  29 80     AND #$80                        A:00 X:FF Y:00 P:26 SP:FF CYC:12828
C7AD  F0 F9     BEQ $C7A8                       A:00 X:FF Y:00 P:26 SP:FF CYC:12830
C7A8  AD 02 20  LDA $2002 = 00                  A:00 X:FF Y:00 P:26 SP:FF CYC:12833
C7AB  29 80     AND #$80                        A:00 X:FF Y:00 P:26 SP:FF CYC:12837
C7AD  F0 F9     BEQ $C7A8                       A:00 X:FF Y:00 P:26 SP:FF CYC:12839
C7A8  AD 02 20  LDA $2002 = 00                  A:00 X:FF Y:00 P:26 SP:FF CYC:12842
C7AB  29 80     AND #$80                        A:00 X:FF Y:00 P:26 SP:FF CYC:12846
C7AD  F0 F9     BEQ $C7A8                       A:00 X:FF Y:00 P:26 SP:FF CYC:12848
C7A8  AD 02 20  LDA $2002 = 00                  A:00 X:FF Y:00 P:26 SP:FF CYC:12851
C7AB  29 80     AND #$80                        A:00 X:FF Y:00 P:26 SP:FF CYC:12855
C7AD  F0 F9     BEQ $C7A8                       A:00 X:FF Y:00 P:26 SP:FF CYC:12857
C7A8  AD 02 20  LDA $2002 = 00                  A:00 X:FF Y:00 P:26 SP:FF CYC:12860
C7AB  29 80     AND #$80                        A:00 X:FF Y:00 P:26 SP:FF CYC:12864
C7AD  F0 F9     BEQ $C7A8                       A:00 X:FF Y:00 P:26 SP:FF CYC:12866
C7A8  AD 02 20  LDA $2002 = 00                  A:00 X:FF Y:00 P:26 SP:FF CYC:12869
C7AB  29 80     AND #$80                        A:00 X:FF Y:00 P:26 SP:FF CYC:12873
C7AD  F0 F9     BEQ $C7A8                       A:00 X:FF Y:00 P:26 SP:FF CYC:12875
C7A8  AD 02 20  LDA $2002 = 00                  A:00 X:FF Y:00 P:26 SP:FF CYC:12878
C7AB  29 80     AND #$80                        A:00 X:FF Y:00 P:26 SP:FF CYC:12882
C7AD  F0 F9     BEQ $C7A8                       A:00 X:FF Y:00 P:26 SP:FF CYC:12884
C7A8  AD 02 20  LDA $2002 = 00                  A:00 X:FF Y:00 P:26 SP:FF CYC:12887
C7AB  29 80     AND #$80                        A:00 X:FF Y:00 P:26 SP:FF CYC:12891
C7AD  F0 F9     BEQ $C7A8                       A:00 X:FF Y:00 P:26 SP:FF CYC:12893
C7A8  AD 02 20  LDA $2002 = 00                  A:00 X:FF Y:00 P:26 SP:FF CYC:12896
C7AB  29 80     AND #$80                        A:00 X:FF Y:00 P:26 SP:FF CYC:12900
C7AD  F0 F9     BEQ $C7A8                       A:00 X:FF Y:00 P:26 SP:FF CYC:12902
C7A8  AD 02 20  LDA $2002 = 00                  A:00 X:FF Y:00 P:26 SP:FF CYC:12905
C7AB  29 80     AND #$80                        A:00 X:FF Y:00 P:26 SP:FF CYC:12909
C7AD  F0 F9     BEQ $C7A8                       A:00 X:FF Y:00 P:26 SP:FF CYC:12911
C7A8  AD 02 20  LDA $2002 = 00                  A:00 X:FF Y:00 P:26 SP:FF CYC:12914
C7AB  29 80     AND #$80                        A:00 X:FF Y:00 P:26 SP:FF CYC:12918
C7AD  F0 F9     BEQ $C7A8                       A:00 X:FF Y:00 P:26 SP:FF CYC:12920
C7A8  AD 02 20  LDA $2002 = 00                  A:00 X:FF Y:00 P:26 SP:FF CYC:12923
C7AB  29 80     AND #$80                        A:00 X:FF Y:00 P:26 SP:FF CYC:12927
C7AD  F0 F9     BEQ $C7A8                       A:00 X:FF Y:00 P:26 SP:FF CYC:12929
C7A8  AD 02 20  LDA $2002 = 00                  A:00 X:FF Y:00 P:26 SP:FF CYC:12932
C7AB  29 80     AND #$80                        A:00 X:FF Y:00 P:26 SP:FF CYC:12936
C7AD  F0 F9     BEQ $C7A8                       A:00 X:FF Y:00 P:26 SP:FF CYC:12938
C7A8  AD 02 20  LDA $2002 = 00                  A:00 X:FF Y:00 P:26 SP:FF CYC:12941
C7AB  29 80     AND #$80                        A:00 X:FF Y:00 P:26 SP:FF CYC:12945
C7AD  F0 F9     BEQ $C7A8                       A:00 X:FF Y:00 P:26 SP:FF CYC:12947
C7A8  AD 02 20  LDA $2002 = 00                  A:00 X:FF Y:00 P:26 SP:FF CYC:12950
C7AB  29 80     AND #$80                        A:00 X:FF Y:00 P:26 SP:FF CYC:12954
C7AD  F0 F9     BEQ $C7A8                       A:00 X:FF Y:00 P:26 SP:FF CYC:12956
C7A8  AD 02 20  LDA $2002 = 00                  A:00 X:FF Y:00 P:26 SP:FF CYC:12959
C7AB  29 80     AND #$80                        A:00 X:FF Y:00 P:26 SP:FF CYC:12963
C7AD  F0 F9     BEQ $C7A8                       A:00 X:FF Y:00 P:26 SP:FF CYC:12965
C7A8  AD 02 20  LDA $2002 = 00                  A:00 X:FF Y:00 P:26 SP:FF CYC:12968
C7AB  29 80     AND #$80                        A:00 X:FF Y:00 P:26 SP:FF CYC:12972
C7AD  F0 F9     BEQ $C7A8                       A:00 X:FF Y:00 P:26 SP:FF CYC:12974
C7A8  AD 02 20  LDA $2002 = 00                  A:00 X:FF Y:00 P:26 SP:FF CYC:12977
C7AB  29 80     AND #$80                        A:00 X:FF Y:00 P:26 SP:FF CYC:12981
C7AD  F0 F9     BEQ $C7A8                       A:00 X:FF Y:00 P:26 SP:FF CYC:12983
C7A8  AD 02 20  LDA $2002 = 00                  A:00 X:FF Y:00 P:26 SP:FF CYC:12986
C7AB  29 80     AND #$80                        A:00 X:FF Y:00 P:26 SP:FF CYC:12990
C7AD  F0 F9     BEQ $C7A8                       A:00 X:FF Y:00 P:26 SP:FF CYC:12992
C7A8  AD 02 20  LDA $2002 = 00                  A:00 X:FF Y:00 P:26 SP:FF CYC:12995
C7AB  29 80     AND #$80                        A:00 X:FF Y:00 P:26 SP:FF CYC:12999
C7AD  F0 F9     BEQ $C7A8                       A:00 X:FF Y:00 P:26 SP:FF CYC:13001
C7A8  AD 02 20  LDA $2002 = 00                  A:00 X:FF Y:00 P:26 SP:FF CYC:13004
C7AB  29 80     AND #$80                        A:00 X:FF Y:00 P:26 SP:FF CYC:13008
C7AD  F0 F9     BEQ $C7A8                       A:00 X:FF Y:00 P:26 SP:FF CYC:13010
C7A8  AD 02 20  LDA $2002 = 00                  A:00 X:FF Y:00 P:26 SP:FF CYC:13013
C7AB  29 80     AND #$80                        A:00 X:FF Y:00 P:26 SP:FF CYC:13017
C7AD  F0 F9     BEQ $C7A8                       A:00 X:FF Y:00 P:26 SP:FF CYC:13019
C7A8  AD 02 20  LDA $2002 = 00                  A:00 X:FF Y:00 P:26 SP:FF CYC:13022
C7AB  29 80     AND #$80                        A:00 X:FF Y:00 P:26 SP:FF CYC:13026
C7AD  F0 F9     BEQ $C7A8                       A:00 X:FF Y:00 P:26 SP:FF CYC:13028
C7A8  AD 02 20  LDA $2002 = 00                  A:00 X:FF Y:00 P:26 SP:FF CYC:13031
C7AB  29 80     AND #$80                        A:00 X:FF Y:00 P:26 SP:FF CYC:13035
C7AD  F0 F9     BEQ $C7A8                       A:00 X:FF Y:00 P:26 SP:FF CYC:13037
C7A8  AD 02 20  LDA $2002 = 00                  A:00 X:FF Y:00 P:26 SP:FF CYC:13040
C7AB  29 80     AND #$80                        A:00 X:FF Y:00 P:26 SP:FF CYC:13044
C7AD  F0 F9     BEQ $C7A8                       A:00 X:FF Y:00 P:26 SP:FF CYC:13046
C7A8  AD 02 20  LDA $2002 = 00                  A:00 X:FF Y:00 P:26 SP:FF CYC:13049
C7AB  29 80     AND #$80                        A:00 X:FF Y:00 P:26 SP:FF CYC:13053
C7AD  F0 F9     BEQ $C7A8                       A:00 X:FF Y:00 P:26 SP:FF CYC:13055
C7A8  AD 02 20  LDA $2002 = 00                  A:00 X:FF Y:00 P:26 SP:FF CYC:13058
C7AB  29 80     AND #$80                        A:00 X:FF Y:00 P:26 SP:FF CYC:13062
C7AD  F0 F9     BEQ $C7A8                       A:00 X:FF Y:00 P:26 SP:FF CYC:13064
C7A8  AD 02 20  LDA $2002 = 00                  A:00 X:FF Y:00 P:26 SP:FF CYC:13067
C7AB  29 80     AND #$80                        A:00 X:FF Y:00 P:26 SP:FF CYC:13071
C7AD  F0 F9     BEQ $C7A8                       A:00 X:FF Y:00 P:26 SP:FF CYC:13073
C7A8  AD 02 20  LDA $2002 = 00                  A:00 X:FF Y:00 P:26 SP:FF CYC:13076
C7AB  29 80     AND #$80                        A:00 X:FF Y:00 P:26 SP:FF CYC:13080
C7AD  F0 F9     BEQ $C7A8                       A:00 X:FF Y:00 P:26 SP:FF CYC:13082
C7A8  AD 02 20  LDA $2002 = 00                  A:00 X:FF Y:00 P:26 SP:FF CYC:13085
C7AB  29 80     AND #$80                        A:00 X:FF Y:00 P:26 SP:FF CYC:13089
C7AD  F0 F9     BEQ $C7A8                       A:00 X:FF Y:00 P:26 SP:FF CYC:13091
C7A8  AD 02 20  LDA $2002 = 00                  A:00 X:FF Y:00 P:26 SP:FF CYC:13094
C7AB  29 80     AND #$80                        A:00 X:FF Y:00 P:26 SP:FF CYC:13098
C7AD  F0 F9     BEQ $C7A8                       A:00 X:FF Y:00 P:26 SP:FF CYC:13100
C7A8  AD 02 20  LDA $2002 = 00                  A:00 X:FF Y:00 P:26 SP:FF CYC:13103
C7AB  29 80     AND #$80                        A:00 X:FF Y:00 P:26 SP:FF CYC:13107
C7AD  F0 F9     BEQ $C7A8                       A:00 X:FF Y:00 P:26 SP:FF CYC:13109
C7A8  AD 02 20  LDA $2002 = 00                  A:00 X:FF Y:00 P:26 SP:FF CYC:13112
C7AB  29 80     AND #$80                        A:00 X:FF Y:00 P:26 SP:FF CYC:13116
C7AD  F0 F9     BEQ $C7A8                       A:00 X:FF Y:00 P:26 SP:FF CYC:13118
C7A8  AD 02 20  LDA $2002 = 00                  A:00 X:FF Y:00 P:26 SP:FF CYC:13121
C7AB  29 80     AND #$80                        A:00 X:FF Y:00 P:26 SP:FF CYC:13125
C7AD  F0 F9     BEQ $C7A8                       A:00 X:FF Y:00 P:26 SP:FF CYC:13127
C7A8  AD 02 20  LDA $2002 = 00                  A:00 X:FF Y:00 P:26 SP:FF CYC:13130
C7AB  29 80     AND #$80                        A:00 X:FF Y:00 P:26 SP:FF CYC:13134
C7AD  F0 F9     BEQ $C7A8                       A:00 X:FF Y:00 P:26 SP:FF CYC:13136
C7A8  AD 02 20  LDA $2002 = 00                  A:00 X:FF Y:00 P:26 SP:FF CYC:13139
C7AB  29 80     AND #$80                        A:00 X:FF Y:00 P:26 SP:FF CYC:13143
C7AD  F0 F9     BEQ $C7A8                       A:00 X:FF Y:00 P:26 SP:FF CYC:13145
C7A8  AD 02 20  LDA $2002 = 00                  A:00 X:FF Y:00 P:26 SP:FF CYC:13148
C7AB  29 80     AND #$80                        A:00 X:FF Y:00 P:26 SP:FF CYC:13152
C7AD  F0 F9     BEQ $C7A8                       A:00 X:FF Y:00 P:26 SP:FF CYC:13154
C7A8  AD 02 20  LDA $2002 = 00                  A:00 X:FF Y:00 P:26 SP:FF CYC:13157
C7AB  29 80     AND #$80                        A:00 X:FF Y:00 P:26 SP:FF CYC:13161
C7AD  F0 F9     BEQ $C7A8                       A:00 X:FF Y:00 P:26 SP:FF CYC:13163
C7A8  AD 02 20  LDA $2002 = 00                  A:00 X:FF Y:00 P:26 SP:FF CYC:13166
C7AB  29 80     AND #$80                        A:00 X:FF Y:00 P:26 SP:FF CYC:13170
C7AD  F0 F9     BEQ $C7A8                       A:00 X:FF Y:00 P:26 SP:FF CYC:13172
C7A8  AD 02 20  LDA $2002 = 00                  A:00 X:FF Y:00 P:26 SP:FF CYC:13175
C7AB  29 80     AND #$80                        A:00 X:FF Y:00 P:26 SP:FF CYC:13179
C7AD  F0 F9     BEQ $C7A8                       A:00 X:FF Y:00 P:26 SP:FF CYC:13181
C7A8  AD 02 20  LDA $2002 = 00                  A:00 X:FF Y:00 P:26 SP:FF CYC:13184
C7AB  29 80     AND #$80                        A:00 X:FF Y:00 P:26 SP:FF CYC:13188
C7AD  F0 F9     BEQ $C7A8                       A:00 X:FF Y:00 P:26 SP:FF CYC:13190
C7A8  AD 02 20  LDA $2002 = 00                  A:00 X:FF Y:00 P:26 SP:FF CYC:13193
C7AB  29 80     AND #$80                        A:00 X:FF Y:00 P:26 SP:FF CYC:13197
C7AD  F0 F9     BEQ $C7A8                       A:00 X:FF Y:00 P:26 SP:FF CYC:13199
C7A8  AD 02 20  LDA $2002 = 00                  A:00 X:FF Y:00 P:26 SP:FF CYC:13202
C7AB  29 80     AND #$80                        A:00 X:FF Y:00 P:26 SP:FF CYC:13206
C7AD  F0 F9     BEQ $C7A8                       A:00 X:FF Y:00 P:26 SP:FF CYC:13208
C7A8  AD 02 20  LDA $2002 = 00                  A:00 X:FF Y:00 P:26 SP:FF CYC:13211
C7AB  29 80     AND #$80                        A:00 X:FF Y:00 P:26 SP:FF CYC:13215
C7AD  F0 F9     BEQ $C7A8                       A:00 X:FF Y:00 P:26 SP:FF CYC:13217
C7A8  AD 02 20  LDA $2002 = 00                  A:00 X:FF Y:00 P:26 SP:FF CYC:13220
C7AB  29 80     AND #$80                        A:00 X:FF Y:00 P:26 SP:FF CYC:13224
C7AD  F0 F9     BEQ $C7A8                       A:00 X:FF Y:00 P:26 SP:FF CYC:13226
C7A8  AD 02 20  LDA $2002 = 00                  A:00 X:FF Y:00 P:26 SP:FF CYC:13229
C7AB  29 80     AND #$80                        A:00 X:FF Y:00 P:26 SP:FF CYC:13233
C7AD  F0 F9     BEQ $C7A8                       A:00 X:FF Y:00 P:26 SP:FF CYC:13235
C7A8  AD 02 20  LDA $2002 = 00                  A:00 X:FF Y:00 P:26 SP:FF CYC:13238
C7AB  29 80     AND #$80                        A:00 X:FF Y:00 P:26 SP:FF CYC:13242
C7AD  F0 F9     BEQ $C7A8                       A:00 X:FF Y:00 P:26 SP:FF CYC:13244
C7A8  AD 02 20  LDA $2002 = 00                  A:00 X:FF Y:00 P:26 SP:FF CYC:13247
C7AB  29 80     AND #$80                        A:00 X:FF Y:00 P:26 SP:FF CYC:13251
C7AD  F0 F9     BEQ $C7A8                       A:00 X:FF Y:00 P:26 SP:FF CYC:13253
C7A8  AD 02 20  LDA $2002 = 00                  A:00 X:FF Y:00 P:26 SP:FF CYC:13256
C7AB  29 80     AND #$80                        A:00 X:FF Y:00 P:26 SP:FF CYC:13260
C7AD  F0 F9     BEQ $C7A8                       A:00 X:FF Y:00 P:26 SP:FF CYC:13262
C7A8  AD 02 20  LDA $2002 = 00                  A:00 X:FF Y:00 P:26 SP:FF CYC:13265
C7AB  29 80     AND #$80                        A:00 X:FF Y:00 P:26 SP:FF CYC:13269
C7AD  F0 F9     BEQ $C7A8                       A:00 X:FF Y:00 P:26 SP:FF CYC:13271
C7A8  AD 02 20  LDA $2002 = 00                  A:00 X:FF Y:00 P:26 SP:FF CYC:13274
C7AB  29 80     AND #$80                        A:00 X:FF Y:00 P:26 SP:FF CYC:13278
C7AD  F0 F9     BEQ $C7A8                       A:00 X:FF Y:00 P:26 SP:FF CYC:13280
C7A8  AD 02 20  LDA $2002 = 00                  A:00 X:FF Y:00 P:26 SP:FF CYC:13283
C7AB  29 80     AND #$80                        A:00 X:FF Y:00 P:26 SP:FF CYC:13287
C7AD  F0 F9     BEQ $C7A8                       A:00 X:FF Y:00 P:26 SP:FF CYC:13289
C7A8  AD 02 20  LDA $2002 = 00                  A:00 X:FF Y:00 P:26 SP:FF CYC:13292
C7AB  29 80     AND #$80                        A:00 X:FF Y:00 P:26 SP:FF CYC:13296
C7AD  F0 F9     BEQ $C7A8                       A:00 X:FF Y:00 P:26 SP:FF CYC:13298
C7A8  AD 02 20  LDA $2002 = 00                  A:00 X:FF Y:00 P:26 SP:FF CYC:13301
C7AB  29 80     AND #$80                        A:00 X:FF Y:00 P:26 SP:FF CYC:13305
C7AD  F0 F9     BEQ $C7A8                       A:00 X:FF Y:00 P:26 SP:FF CYC:13307
C7A8  AD 02 20  LDA $2002 = 00                  A:00 X:FF Y:00 P:26 SP:FF CYC:13310
C7AB  29 80     AND #$80                        A:00 X:FF Y:00 P:26 SP:FF CYC:13314
C7AD  F0 F9     BEQ $C7A8                       A:00 X:FF Y:00 P:26 SP:FF CYC:13316
C7A8  AD 02 20  LDA $2002 = 00                  A:00 X:FF Y:00 P:26 SP:FF CYC:13319
C7AB  29 80     AND #$80                        A:00 X:FF Y:00 P:26 SP:FF CYC:13323
C7AD  F0 F9     BEQ $C7A8                       A:00 X:FF Y:00 P:26 SP:FF CYC:13325
C7A8  AD 02 20  LDA $2002 = 00                  A:00 X:FF Y:00 P:26 SP:FF CYC:13328
C7AB  29 80     AND #$80                        A:00 X:FF Y:00 P:26 SP:FF CYC:13332
C7AD  F0 F9     BEQ $C7A8                       A:00 X:FF Y:00 P:26 SP:FF CYC:13334
C7A8  AD 02 20  LDA $2002 = 00                  A:00 X:FF Y:00 P:26 SP:FF CYC:13337
C7AB  29 80     AND #$80                        A:00 X:FF Y:00 P:26 SP:FF CYC:13341
C7AD  F0 F9     BEQ $C7A8                       A:00 X:FF Y:00 P:26 SP:FF CYC:13343
C7A8  AD 02 20  LDA $2002 = 00                  A:00 X:FF Y:00 P:26 SP:FF CYC:13346
C7AB  29 80     AND #$80                        A:00 X:FF Y:00 P:26 SP:FF CYC:13350
C7AD  F0 F9     BEQ $C7A8                       A:00 X:FF Y:00 P:26 SP:FF CYC:13352
C7A8  AD 02 20  LDA $2002 = 00                  A:00 X:FF Y:00 P:26 SP:FF CYC:13355
C7AB  29 80     AND #$80                        A:00 X:FF Y:00 P:26 SP:FF CYC:13359
C7AD  F0 F9     BEQ $C7A8                       A:00 X:FF Y:00 P:26 SP:FF CYC:13361
C7A8  AD 02 20  LDA $2002 = 00                  A:00 X:FF Y:00 P:26 SP:FF CYC:13364
C7AB  29 80     AND #$80                        A:00 X:FF Y:00 P:26 SP:FF CYC:13368
C7AD  F0 F9     BEQ $C7A8                       A:00 X:FF Y:00 P:26 SP:FF CYC:13370
C7A8  AD 02 20  LDA $2002 = 00                  A:00 X:FF Y:00 P:26 SP:FF CYC:13373
C7AB  29 80     AND #$80                        A:00 X:FF Y:00 P:26 SP:FF CYC:13377
C7AD  F0 F9     BEQ $C7A8                       A:00 X:FF Y:00 P:26 SP:FF CYC:13379
C7A8  AD 02 20  LDA $2002 = 00                  A:00 X:FF Y:00 P:26 SP:FF CYC:13382
C7AB  29 80     AND #$80                        A:00 X:FF Y:00 P:26 SP:FF CYC:13386
C7AD  F0 F9     BEQ $C7A8                       A:00 X:FF Y:00 P:26 SP:FF CYC:13388
C7A8  AD 02 20  LDA $2002 = 00                  A:00 X:FF Y:00 P:26 SP:FF CYC:13391
C7AB  29 80     AND #$80                        A:00 X:FF Y:00 P:26 SP:FF CYC:13395
C7AD  F0 F9     BEQ $C7A8                       A:00 X:FF Y:00 P:26 SP:FF CYC:13397
C7A8  AD 02 20  LDA $2002 = 00                  A:00 X:FF Y:00 P:26 SP:FF CYC:13400
C7AB  29 80     AND #$80                        A:00 X:FF Y:00 P:26 SP:FF CYC:13404
C7AD  F0 F9     BEQ $C7A8                       A:00 X:FF Y:00 P:26 SP:FF CYC:13406
C7A8  AD 02 20  LDA $2002 = 00                  A:00 X:FF Y:00 P:26 SP:FF CYC:13409
C7AB  29 80     AND #$80                        A:00 X:FF Y:00 P:26 SP:FF CYC:13413
C7AD  F0 F9     BEQ $C7A8                       A:00 X:FF Y:00 P:26 SP:FF CYC:13415
C7A8  AD 02 20  LDA $2002 = 00                  A:00 X:FF Y:00 P:26 SP:FF CYC:13418
C7AB  29 80     AND #$80                        A:00 X:FF Y:00 P:26 SP:FF CYC:13422
C7AD  F0 F9     BEQ $C7A8                       A:00 X:FF Y:00 P:26 SP:FF CYC:13424
C7A8  AD 02 20  LDA $2002 = 00                  A:00 X:FF Y:00 P:26 SP:FF CYC:13427
C7AB  29 80     AND #$80                        A:00 X:FF Y:00 P:26 SP:FF CYC:13431
C7AD  F0 F9     BEQ $C7A8                       A:00 X:FF Y:00 P:26 SP:FF CYC:13433
C7A8  AD 02 20  LDA $2002 = 00                  A:00 X:FF Y:00 P:26 SP:FF CYC:13436
C7AB  29 80     AND #$80                        A:00 X:FF Y:00 P:26 SP:FF CYC:13440
C7AD  F0 F9     BEQ $C7A8                       A:00 X:FF Y:00 P:26 SP:FF CYC:13442
C7A8  AD 02 20  LDA $2002 = 00                  A:00 X:FF Y:00 P:26 SP:FF CYC:13445
C7AB  29 80     AND #$80                        A:00 X:FF Y:00 P:26 SP:FF CYC:13449
C7AD  F0 F9     BEQ $C7A8                       A:00 X:FF Y:00 P:26 SP:FF CYC:13451
C7A8  AD 02 20  LDA $2002 = 00                  A:00 X:FF Y:00 P:26 SP:FF CYC:13454
C7AB  29 80     AND #$80                        A:00 X:FF Y:00 P:26 SP:FF CYC:13458
C7AD  F0 F9     BEQ $C7A8                       A:00 X:FF Y:00 P:26 SP:FF CYC:13460
C7A8  AD 02 20  LDA $2002 = 00                  A:00 X:FF Y:00 P:26 SP:FF CYC:13463
C7AB  29 80     AND #$80                        A:00 X:FF Y:00 P:26 SP:FF CYC:13467
C7AD  F0 F9     BEQ $C7A8                       A:00 X:FF Y:00 P:26 SP:FF CYC:13469
C7A8  AD 02 20  LDA $2002 = 00                  A:00 X:FF Y:00 P:26 SP:FF CYC:13472
C7AB  29 80     AND #$80                        A:00 X:FF Y:00 P:26 SP:FF CYC:13476
C7AD  F0 F9     BEQ $C7A8                       A:00 X:FF Y:00 P:26 SP:FF CYC:13478
C7A8  AD 02 20  LDA $2002 = 00                  A:00 X:FF Y:00 P:26 SP:FF CYC:13481
C7AB  29 80     AND #$80                        A:00 X:FF Y:00 P:26 SP:FF CYC:13485
C7AD  F0 F9     BEQ $C7A8                       A:00 X:FF Y:00 P:26 SP:FF CYC:13487
C7A8  AD 02 20  LDA $2002 = 00                  A:00 X:FF Y:00 P:26 SP:FF CYC:13490
C7AB  29 80     AND #$80                        A:00 X:FF Y:00 P:26 SP:FF CYC:13494
C7AD  F0 F9     BEQ $C7A8                       A:00 X:FF Y:00 P:26 SP:FF CYC:13496
C7A8  AD 02 20  LDA $2002 = 00                  A:00 X:FF Y:00 P:26 SP:FF CYC:13499
C7AB  29 80     AND #$80                        A:00 X:FF Y:00 P:26 SP:FF CYC:13503
C7AD  F0 F9     BEQ $C7A8                       A:00 X:FF Y:00 P:26 SP:FF CYC:13505
C7A8  AD 02 20  LDA $2002 = 00                  A:00 X:FF Y:00 P:26 SP:FF CYC:13508
C7AB  29 80     AND #$80                        A:00 X:FF Y:00 P:26 SP:FF CYC:13512
C7AD  F0 F9     BEQ $C7A8                       A:00 X:FF Y:00 P:26 SP:FF CYC:13514
C7A8  AD 02 20  LDA $2002 = 00                  A:00 X:FF Y:00 P:26 SP:FF CYC:13517
C7AB  29 80     AND #$80                        A:00 X:FF Y:00 P:26 SP:FF CYC:13521
C7AD  F0 F9     BEQ $C7A8                       A:00 X:FF Y:00 P:26 SP:FF CYC:13523
C7A8  AD 02 20  LDA $2002 = 00                  A:00 X:FF Y:00 P:26 SP:FF CYC:13526
C7AB  29 80     AND #$80                        A:00 X:FF Y:00 P:26 SP:FF CYC:13530
C7AD  F0 F9     BEQ $C7A8                       A:00 X:FF Y:00 P:26 SP:FF CYC:13532
C7A8  AD 02 20  LDA $2002 = 00                  A:00 X:FF Y:00 P:26 SP:FF CYC:13535
C7AB  29 80     AND #$80                        A:00 X:FF Y:00 P:26 SP:FF CYC:13539
C7AD  F0 F9     BEQ $C7A8                       A:00 X:FF Y:00 P:26 SP:FF CYC:13541
C7A8  AD 02 20  LDA $2002 = 00                  A:00 X:FF Y:00 P:26 SP:FF CYC:13544
C7AB  29 80     AND #$80                        A:00 X:FF Y:00 P:26 SP:FF CYC:13548
C7AD  F0 F9     BEQ $C7A8                       A:00 X:FF Y:00 P:26 SP:FF CYC:13550
C7A8  AD 02 20  LDA $2002 = 00                  A:00 X:FF Y:00 P:26 SP:FF CYC:13553
C7AB  29 80     AND #$80                        A:00 X:FF Y:00 P:26 SP:FF CYC:13557
C7AD  F0 F9     BEQ $C7A8                       A:00 X:FF Y:00 P:26 SP:FF CYC:13559
C7A8  AD 02 20  LDA $2002 = 00                  A:00 X:FF Y:00 P:26 SP:FF CYC:13562
C7AB  29 80     AND #$80                        A:00 X:FF Y:00 P:26 SP:FF CYC:13566
C7AD  F0 F9     BEQ $C7A8                       A:00 X:FF Y:00 P:26 SP:FF CYC:13568
C7A8  AD 02 20  LDA $2002 = 00                  A:00 X:FF Y:00 P:26 SP:FF CYC:13571
C7AB  29 80     AND #$80                        A:00 X:FF Y:00 P:26 SP:FF CYC:13575
C7AD  F0 F9     BEQ $C7A8                       A:00 X:FF Y:00 P:26 SP:FF CYC:13577
C7A8  AD 02 20  LDA $2002 = 00                  A:00 X:FF Y:00 P:26 SP:FF CYC:13580
C7AB  29 80     AND #$80                        A:00 X:FF Y:00 P:26 SP:FF CYC:13584
C7AD  F0 F9     BEQ $C7A8                       A:00 X:FF Y:00 P:26 SP:FF CYC:13586
C7A8  AD 02 20  LDA $2002 = 00                  A:00 X:FF Y:00 P:26 SP:FF CYC:13589
C7AB  29 80     AND #$80                        A:00 X:FF Y:00 P:26 SP:FF CYC:13593
C7AD  F0 F9     BEQ $C7A8                       A:00 X:FF Y:00 P:26 SP:FF CYC:13595
C7A8  AD 02 20  LDA $2002 = 00                  A:00 X:FF Y:00 P:26 SP:FF CYC:13598
C7AB  29 80     AND #$80                        A:00 X:FF Y:00 P:26 SP:FF CYC:13602
C7AD  F0 F9     BEQ $C7A8                       A:00 X:FF Y:00 P:26 SP:FF CYC:13604
C7A8  AD 02 20  LDA $2002 = 00                  A:00 X:FF Y:00 P:26 SP:FF CYC:13607
C7AB  29 80     AND #$80                        A:00 X:FF Y:00 P:26 SP:FF CYC:13611
C7AD  F0 F9     BEQ $C7A8                       A:00 X:FF Y:00 P:26 SP:FF CYC:13613
C7A8  AD 02 20  LDA $2002 = 00                  A:00 X:FF Y:00 P:26 SP:FF CYC:13616
C7AB  29 80     AND #$80                        A:00 X:FF Y:00 P:26 SP:FF CYC:13620
C7AD  F0 F9     BEQ $C7A8                       A:00 X:FF Y:00 P:26 SP:FF CYC:13622
C7A8  AD 02 20  LDA $2002 = 00                  A:00 X:FF Y:00 P:26 SP:FF CYC:13625
C7AB  29 80     AND #$80                        A:00 X:FF Y:00 P:26 SP:FF CYC:13629
C7AD  F0 F9     BEQ $C7A8                       A:00 X:FF Y:00 P:26 SP:FF CYC:13631
C7A8  AD 02 20  LDA $2002 = 00                  A:00 X:FF Y:00 P:26 SP:FF CYC:13634
C7AB  29 80     AND #$80                        A:00 X:FF Y:00 P:26 SP:FF CYC:13638
C7AD  F0 F9     BEQ $C7A8                       A:00 X:FF Y:00 P:26 SP:FF CYC:13640
C7A8  AD 02 20  LDA $2002 = 00                  A:00 X:FF Y:00 P:26 SP:FF CYC:13643
C7AB  29 80     AND #$80                        A:00 X:FF Y:00 P:26 SP:FF CYC:13647
C7AD  F0 F9     BEQ $C7A8                       A:00 X:FF Y:00 P:26 SP:FF CYC:13649
C7A8  AD 02 20  LDA $2002 = 00                  A:00 X:FF Y:00 P:26 SP:FF CYC:13652
C7AB  29 80     AND #$80                        A:00 X:FF Y:00 P:26 SP:FF CYC:13656
C7AD  F0 F9     BEQ $C7A8                       A:00 X:FF Y:00 P:26 SP:FF CYC:13658
C7A8  AD 02 20  LDA $2002 = 00                  A:00 X:FF Y:00 P:26 SP:FF CYC:13661
C7AB  29 80     AND #$80                        A:00 X:FF Y:00 P:26 SP:FF CYC:13665
C7AD  F0 F9     BEQ $C7A8                       A:00 X:FF Y:00 P:26 SP:FF CYC:13667
C7A8  AD 02 20  LDA $2002 = 00                  A:00 X:FF Y:00 P:26 SP:FF CYC:13670
C7AB  29 80     AND #$80                        A:00 X:FF Y:00 P:26 SP:FF CYC:13674
C7AD  F0 F9     BEQ $C7A8                       A:00 X:FF Y:00 P:26 SP:FF CYC:13676
C7A8  AD 02 20  LDA $2002 = 00                  A:00 X:FF Y:00 P:26 SP:FF CYC:13679
C7AB  29 80     AND #$80                        A:00 X:FF Y:00 P:26 SP:FF CYC:13683
C7AD  F0 F9     BEQ $C7A8                       A:00 X:FF Y:00 P:26 SP:FF CYC:13685
C7A8  AD 02 20  LDA $2002 = 00                  A:00 X:FF Y:00 P:26 SP:FF CYC:13688
C7AB  29 80     AND #$80                        A:00 X:FF Y:00 P:26 SP:FF CYC:13692
C7AD  F0 F9     BEQ $C7A8                       A:00 X:FF Y:00 P:26 SP:FF CYC:13694
C7A8  AD 02 20  LDA $2002 = 00                  A:00 X:FF Y:00 P:26 SP:FF CYC:13697
C7AB  29 80     AND #$80                        A:00 X:FF Y:00 P:26 SP:FF CYC:13701
C7AD  F0 F9     BEQ $C7A8                       A:00 X:FF Y:00 P:26 SP:FF CYC:13703
C7A8  AD 02 20  LDA $2002 = 00                  A:00 X:FF Y:00 P:26 SP:FF CYC:13706
C7AB  29 80     AND #$80                        A:00 X:FF Y:00 P:26 SP:FF CYC:13710
C7AD  F0 F9     BEQ $C7A8                       A:00 X:FF Y:00 P:26 SP:FF CYC:13712
C7A8  AD 02 20  LDA $2002 = 00                  A:00 X:FF Y:00 P:26 SP:FF CYC:13715
C7AB  29 80     AND #$80                        A:00 X:FF Y:00 P:26 SP:FF CYC:13719
C7AD  F0 F9     BEQ $C7A8                       A:00 X:FF Y:00 P:26 SP:FF CYC:13721
C7A8  AD 02 20  LDA $2002 = 00                  A:00 X:FF Y:00 P:26 SP:FF CYC:13724
C7AB  29 80     AND #$80                        A:00 X:FF Y:00 P:26 SP:FF CYC:13728
C7AD  F0 F9     BEQ $C7A8                       A:00 X:FF Y:00 P:26 SP:FF CYC:13730
C7A8  AD 02 20  LDA $2002 = 00                  A:00 X:FF Y:00 P:26 SP:FF CYC:13733
C7AB  29 80     AND #$80                        A:00 X:FF Y:00 P:26 SP:FF CYC:13737
C7AD  F0 F9     BEQ $C7A8                       A:00 X:FF Y:00 P:26 SP:FF CYC:13739
C7A8  AD 02 20  LDA $2002 = 00                  A:00 X:FF Y:00 P:26 SP:FF CYC:13742
C7AB  29 80     AND #$80                        A:00 X:FF Y:00 P:26 SP:FF CYC:13746
C7AD  F0 F9     BEQ $C7A8                       A:00 X:FF Y:00 P:26 SP:FF CYC:13748
C7A8  AD 02 20  LDA $2002 = 00                  A:00 X:FF Y:00 P:26 SP:FF CYC:13751
C7AB  29 80     AND #$80                        A:00 X:FF Y:00 P:26 SP:FF CYC:13755
C7AD  F0 F9     BEQ $C7A8                       A:00 X:FF Y:00 P:26 SP:FF CYC:13757
C7A8  AD 02 20  LDA $2002 = 00                  A:00 X:FF Y:00 P:26 SP:FF CYC:13760
C7AB  29 80     AND #$80                        A:00 X:FF Y:00 P:26 SP:FF CYC:13764
C7AD  F0 F9     BEQ $C7A8                       A:00 X:FF Y:00 P:26 SP:FF CYC:13766
C7A8  AD 02 20  LDA $2002 = 00                  A:00 X:FF Y:00 P:26 SP:FF CYC:13769
C7AB  29 80     AND #$80                        A:00 X:FF Y:00 P:26 SP:FF CYC:13773
C7AD  F0 F9     BEQ $C7A8                       A:00 X:FF Y:00 P:26 SP:FF CYC:13775
C7A8  AD 02 20  LDA $2002 = 00                  A:00 X:FF Y:00 P:26 SP:FF CYC:13778
C7AB  29 80     AND #$80                        A:00 X:FF Y:00 P:26 SP:FF CYC:13782
C7AD  F0 F9     BEQ $C7A8                       A:00 X:FF Y:00 P:26 SP:FF CYC:13784
C7A8  AD 02 20  LDA $2002 = 00                  A:00 X:FF Y:00 P:26 SP:FF CYC:13787
C7AB  29 80     AND #$80                        A:00 X:FF Y:00 P:26 SP:FF CYC:13791
C7AD  F0 F9     BEQ $C7A8                       A:00 X:FF Y:00 P:26 SP:FF CYC:13793
C7A8  AD 02 20  LDA $2002 = 00                  A:00 X:FF Y:00 P:26 SP:FF CYC:13796
C7AB  29 80     AND #$80                        A:00 X:FF Y:00 P:26 SP:FF CYC:13800
C7AD  F0 F9     BEQ $C7A8                       A:00 X:FF Y:00 P:26 SP:FF CYC:13802
C7A8  AD 02 20  LDA $2002 = 00                  A:00 X:FF Y:00 P:26 SP:FF CYC:13805
C7AB  29 80     AND #$80                        A:00 X:FF Y:00 P:26 SP:FF CYC:13809
C7AD  F0 F9     BEQ $C7A8                       A:00 X:FF Y:00 P:26 SP:FF CYC:13811
C7A8  AD 02 20  LDA $2002 = 00                  A:00 X:FF Y:00 P:26 SP:FF CYC:13814
C7AB  29 80     AND #$80                        A:00 X:FF Y:00 P:26 SP:FF CYC:13818
C7AD  F0 F9     BEQ $C7A8                       A:00 X:FF Y:00 P:26 SP:FF CYC:13820
C7A8  AD 02 20  LDA $2002 = 00                  A:00 X:FF Y:00 P:26 SP:FF CYC:13823
C7AB  29 80     AND #$80                        A:00 X:FF Y:00 P:26 SP:FF CYC:13827
C7AD  F0 F9     BEQ $C7A8                       A:00 X:FF Y:00 P:26 SP:FF CYC:13829
C7A8  AD 02 20  LDA $2002 = 00                  A:00 X:FF Y:00 P:26 SP:FF CYC:13832
C7AB  29 80     AND #$80                        A:00 X:FF Y:00 P:26 SP:FF CYC:13836
C7AD  F0 F9     BEQ $C7A8                       A:00 X:FF Y:00 P:26 SP:FF CYC:13838
C7A8  AD 02 20  LDA $2002 = 00                  A:00 X:FF Y:00 P:26 SP:FF CYC:13841
C7AB  29 80     AND #$80                        A:00 X:FF Y:00 P:26 SP:FF CYC:13845
C7AD  F0 F9     BEQ $C7A8                       A:00 X:FF Y:00 P:26 SP:FF CYC:13847
C7A8  AD 02 20  LDA $2002 = 00                  A:00 X:FF Y:00 P:26 SP:FF CYC:13850
C7AB  29 80     AND #$80                        A:00 X:FF Y:00 P:26 SP:FF CYC:13854
C7AD  F0 F9     BEQ $C7A8                       A:00 X:FF Y:00 P:26 SP:FF CYC:13856
C7A8  AD 02 20  LDA $2002 = 00                  A:00 X:FF Y:00 P:26 SP:FF CYC:13859
C7AB  29 80     AND #$80                        A:00 X:FF Y:00 P:26 SP:FF CYC:13863
C7AD  F0 F9     BEQ $C7A8                       A:00 X:FF Y:00 P:26 SP:FF CYC:13865
C7A8  AD 02 20  LDA $2002 = 00                  A:00 X:FF Y:00 P:26 SP:FF CYC:13868
C7AB  29 80     AND #$80                        A:00 X:FF Y:00 P:26 SP:FF CYC:13872
C7AD  F0 F9     BEQ $C7A8                       A:00 X:FF Y:00 P:26 SP:FF CYC:13874
C7A8  AD 02 20  LDA $2002 = 00                  A:00 X:FF Y:00 P:26 SP:FF CYC:13877
C7AB  29 80     AND #$80                        A:00 X:FF Y:00 P:26 SP:FF CYC:13881
C7AD  F0 F9     BEQ $C7A8                       A:00 X:FF Y:00 P:26 SP:FF CYC:13883
C7A8  AD 02 20  LDA $2002 = 00                  A:00 X:FF Y:00 P:26 SP:FF CYC:13886
C7AB  29 80     AND #$80                        A:00 X:FF Y:00 P:26 SP:FF CYC:13890
C7AD  F0 F9     BEQ $C7A8                       A:00 X:FF Y:00 P:26 SP:FF CYC:13892
C7A8  AD 02 20  LDA $2002 = 00                  A:00 X:FF Y:00 P:26 SP:FF CYC:13895
C7AB  29 80     AND #$80                        A:00 X:FF Y:00 P:26 SP:FF CYC:13899
C7AD  F0 F9     BEQ $C7A8                       A:00 X:FF Y:00 P:26 SP:FF CYC:13901
C7A8  AD 02 20  LDA $2002 = 00                  A:00 X:FF Y:00 P:26 SP:FF CYC:13904
C7AB  29 80     AND #$80                        A:00 X:FF Y:00 P:26 SP:FF CYC:13908
C7AD  F0 F9     BEQ $C7A8                       A:00 X:FF Y:00 P:26 SP:FF CYC:13910
C7A8  AD 02 20  LDA $2002 = 00                  A:00 X:FF Y:00 P:26 SP:FF CYC:13913
C7AB  29 80     AND #$80                        A:00 X:FF Y:00 P:26 SP:FF CYC:13917
C7AD  F0 F9     BEQ $C7A8                       A:00 X:FF Y:00 P:26 SP:FF CYC:13919
C7A8  AD 02 20  LDA $2002 = 00                  A:00 X:FF Y:00 P:26 SP:FF CYC:13922
C7AB  29 80     AND #$80                        A:00 X:FF Y:00 P:26 SP:FF CYC:13926
C7AD  F0 F9     BEQ $C7A8                       A:00 X:FF Y:00 P:26 SP:FF CYC:13928
C7A8  AD 02 20  LDA $2002 = 00                  A:00 X:FF Y:00 P:26 SP:FF CYC:13931
C7AB  29 80     AND #$80                        A:00 X:FF Y:00 P:26 SP:FF CYC:13935
C7AD  F0 F9     BEQ $C7A8                       A:00 X:FF Y:00 P:26 SP:FF CYC:13937
C7A8  AD 02 20  LDA $2002 = 00                  A:00 X:FF Y:00 P:26 SP:FF CYC:13940
C7AB  29 80     AND #$80                        A:00 X:FF Y:00 P:26 SP:FF CYC:13944
C7AD  F0 F9     BEQ $C7A8                       A:00 X:FF Y:00 P:26 SP:FF CYC:13946
C7A8  AD 02 20  LDA $2002 = 00                  A:00 X:FF Y:00 P:26 SP:FF CYC:13949
C7AB  29 80     AND #$80                        A:00 X:FF Y:00 P:26 SP:FF CYC:13953
C7AD  F0 F9     BEQ $C7A8                       A:00 X:FF Y:00 P:26 SP:FF CYC:13955
C7A8  AD 02 20  LDA $2002 = 00                  A:00 X:FF Y:00 P:26 SP:FF CYC:13958
C7AB  29 80     AND #$80                        A:00 X:FF Y:00 P:26 SP:FF CYC:13962
C7AD  F0 F9     BEQ $C7A8                       A:00 X:FF Y:00 P:26 SP:FF CYC:13964
C7A8  AD 02 20  LDA $2002 = 00                  A:00 X:FF Y:00 P:26 SP:FF CYC:13967
C7AB  29 80     AND #$80                        A:00 X:FF Y:00 P:26 SP:FF CYC:13971
C7AD  F0 F9     BEQ $C7A8                       A:00 X:FF Y:00 P:26 SP:FF CYC:13973
C7A8  AD 02 20  LDA $2002 = 00                  A:00 X:FF Y:00 P:26 SP:FF CYC:13976
C7AB  29 80     AND #$80                        A:00 X:FF Y:00 P:26 SP:FF CYC:13980
C7AD  F0 F9     BEQ $C7A8                       A:00 X:FF Y:00 P:26 SP:FF CYC:13982
C7A8  AD 02 20  LDA $2002 = 00                  A:00 X:FF Y:00 P:26 SP:FF CYC:13985
C7AB  29 80     AND #$80                        A:00 X:FF Y:00 P:26 SP:FF CYC:13989
C7AD  F0 F9     BEQ $C7A8                       A:00 X:FF Y:00 P:26 SP:FF CYC:13991
C7A8  AD 02 20  LDA $2002 = 00                  A:00 X:FF Y:00 P:26 SP:FF CYC:13994
C7AB  29 80     AND #$80                        A:00 X:FF Y:00 P:26 SP:FF CYC:13998
C7AD  F0 F9     BEQ $C7A8                       A:00 X:FF Y:00 P:26 SP:FF CYC:14000
C7A8  AD 02 20  LDA $2002 = 00                  A:00 X:FF Y:00 P:26 SP:FF CYC:14003
C7AB  29 80     AND #$80                        A:00 X:FF Y:00 P:26 SP:FF CYC:14007
C7AD  F0 F9     BEQ $C7A8                       A:00 X:FF Y:00 P:26 SP:FF CYC:14009
C7A8  AD 02 20  LDA $2002 = 00                  A:00 X:FF Y:00 P:26 SP:FF CYC:14012
C7AB  29 80     AND #$80                        A:00 X:FF Y:00 P:26 SP:FF CYC:14016
C7AD  F0 F9     BEQ $C7A8                       A:00 X:FF Y:00 P:26 SP:FF CYC:14018
C7A8  AD 02 20  LDA $2002 = 00                  A:00 X:FF Y:00 P:26 SP:FF CYC:14021
C7AB  29 80     AND #$80                        A:00 X:FF Y:00 P:26 SP:FF CYC:14025
C7AD  F0 F9     BEQ $C7A8                       A:00 X:FF Y:00 P:26 SP:FF CYC:14027
C7A8  AD 02 20  LDA $2002 = 00                  A:00 X:FF Y:00 P:26 SP:FF CYC:14030
C7AB  29 80     AND #$80                        A:00 X:FF Y:00 P:26 SP:FF CYC:14034
C7AD  F0 F9     BEQ $C7A8                       A:00 X:FF Y:00 P:26 SP:FF CYC:14036
C7A8  AD 02 20  LDA $2002 = 00                  A:00 X:FF Y:00 P:26 SP:FF CYC:14039
C7AB  29 80     AND #$80                        A:00 X:FF Y:00 P:26 SP:FF CYC:14043
C7AD  F0 F9     BEQ $C7A8                       A:00 X:FF Y:00 P:26 SP:FF CYC:14045
C7A8  AD 02 20  LDA $2002 = 00                  A:00 X:FF Y:00 P:26 SP:FF CYC:14048
C7AB  29 80     AND #$80                        A:00 X:FF Y:00 P:26 SP:FF CYC:14052
C7AD  F0 F9     BEQ $C7A8                       A:00 X:FF Y:00 P:26 SP:FF CYC:14054
C7A8  AD 02 20  LDA $2002 = 00                  A:00 X:FF Y:00 P:26 SP:FF CYC:14057
C7AB  29 80     AND #$80                        A:00 X:FF Y:00 P:26 SP:FF CYC:14061
C7AD  F0 F9     BEQ $C7A8                       A:00 X:FF Y:00 P:26 SP:FF CYC:14063
C7A8  AD 02 20  LDA $2002 = 00                  A:00 X:FF Y:00 P:26 SP:FF CYC:14066
C7AB  29 80     AND #$80                        A:00 X:FF Y:00 P:26 SP:FF CYC:14070
C7AD  F0 F9     BEQ $C7A8                       A:00 X:FF Y:00 P:26 SP:FF CYC:14072
C7A8  AD 02 20  LDA $2002 = 00                  A:00 X:FF Y:00 P:26 SP:FF CYC:14075
C7AB  29 80     AND #$80                        A:00 X:FF Y:00 P:26 SP:FF CYC:14079
C7AD  F0 F9     BEQ $C7A8                       A:00 X:FF Y:00 P:26 SP:FF CYC:14081
C7A8  AD 02 20  LDA $2002 = 00                  A:00 X:FF Y:00 P:26 SP:FF CYC:14084
C7AB  29 80     AND #$80                        A:00 X:FF Y:00 P:26 SP:FF CYC:14088
C7AD  F0 F9     BEQ $C7A8                       A:00 X:FF Y:00 P:26 SP:FF CYC:14090
C7A8  AD 02 20  LDA $2002 = 00                  A:00 X:FF Y:00 P:26 SP:FF CYC:14093
C7AB  29 80     AND #$80                        A:00 X:FF Y:00 P:26 SP:FF CYC:14097
C7AD  F0 F9     BEQ $C7A8                       A:00 X:FF Y:00 P:26 SP:FF CYC:14099
C7A8  AD 02 20  LDA $2002 = 00                  A:00 X:FF Y:00 P:26 SP:FF CYC:14102
C7AB  29 80     AND #$80                        A:00 X:FF Y:00 P:26 SP:FF CYC:14106
C7AD  F0 F9     BEQ $C7A8                       A:00 X:FF Y:00 P:26 SP:FF CYC:14108
C7A8  AD 02 20  LDA $2002 = 00                  A:00 X:FF Y:00 P:26 SP:FF CYC:14111
C7AB  29 80     AND #$80                        A:00 X:FF Y:00 P:26 SP:FF CYC:14115
C7AD  F0 F9     BEQ $C7A8                       A:00 X:FF Y:00 P:26 SP:FF CYC:14117
C7A8  AD 02 20  LDA $2002 = 00                  A:00 X:FF Y:00 P:26 SP:FF CYC:14120
C7AB  29 80     AND #$80                        A:00 X:FF Y:00 P:26 SP:FF CYC:14124
C7AD  F0 F9     BEQ $C7A8                       A:00 X:FF Y:00 P:26 SP:FF CYC:14126
C7A8  AD 02 20  LDA $2002 = 00                  A:00 X:FF Y:00 P:26 SP:FF CYC:14129
C7AB  29 80     AND #$80                        A:00 X:FF Y:00 P:26 SP:FF CYC:14133
C7AD  F0 F9     BEQ $C7A8                       A:00 X:FF Y:00 P:26 SP:FF CYC:14135
C7A8  AD 02 20  LDA $2002 = 00                  A:00 X:FF Y:00 P:26 SP:FF CYC:14138
C7AB  29 80     AND #$80                        A:00 X:FF Y:00 P:26 SP:FF CYC:14142
C7AD  F0 F9     BEQ $C7A8                       A:00 X:FF Y:00 P:26 SP:FF CYC:14144
C7A8  AD 02 20  LDA $2002 = 00                  A:00 X:FF Y:00 P:26 SP:FF CYC:14147
C7AB  29 80     AND #$80                        A:00 X:FF Y:00 P:26 SP:FF CYC:14151
C7AD  F0 F9     BEQ $C7A8                       A:00 X:FF Y:00 P:26 SP:FF CYC:14153
C7A8  AD 02 20  LDA $2002 = 00                  A:00 X:FF Y:00 P:26 SP:FF CYC:14156
C7AB  29 80     AND #$80                        A:00 X:FF Y:00 P:26 SP:FF CYC:14160
C7AD  F0 F9     BEQ $C7A8                       A:00 X:FF Y:00 P:26 SP:FF CYC:14162
C7A8  AD 02 20  LDA $2002 = 00                  A:00 X:FF Y:00 P:26 SP:FF CYC:14165
C7AB  29 80     AND #$80                        A:00 X:FF Y:00 P:26 SP:FF CYC:14169
C7AD  F0 F9     BEQ $C7A8                       A:00 X:FF Y:00 P:26 SP:FF CYC:14171
C7A8  AD 02 20  LDA $2002 = 00                  A:00 X:FF Y:00 P:26 SP:FF CYC:14174
C7AB  29 80     AND #$80                        A:00 X:FF Y:00 P:26 SP:FF CYC:14178
C7AD  F0 F9     BEQ $C7A8                       A:00 X:FF Y:00 P:26 SP:FF CYC:14180
C7A8  AD 02 20  LDA $2002 = 00                  A:00 X:FF Y:00 P:26 SP:FF CYC:14183
C7AB  29 80     AND #$80                        A:00 X:FF Y:00 P:26 SP:FF CYC:14187
C7AD  F0 F9     BEQ $C7A8                       A:00 X:FF Y:00 P:26 SP:FF CYC:14189
C7A8  AD 02 20  LDA $2002 = 00                  A:00 X:FF Y:00 P:26 SP:FF CYC:14192
C7AB  29 80     AND #$80                        A:00 X:FF Y:00 P:26 SP:FF CYC:14196
C7AD  F0 F9     BEQ $C7A8                       A:00 X:FF Y:00 P:26 SP:FF CYC:14198
C7A8  AD 02 20  LDA $2002 = 00                  A:00 X:FF Y:00 P:26 SP:FF CYC:14201
C7AB  29 80     AND #$80                        A:00 X:FF Y:00 P:26 SP:FF CYC:14205
C7AD  F0 F9     BEQ $C7A8                       A:00 X:FF Y:00 P:26 SP:FF CYC:14207
C7A8  AD 02 20  LDA $2002 = 00                  A:00 X:FF Y:00 P:26 SP:FF CYC:14210
C7AB  29 80     AND #$80                        A:00 X:FF Y:00 P:26 SP:FF CYC:14214
C7AD  F0 F9     BEQ $C7A8                       A:00 X:FF Y:00 P:26 SP:FF CYC:14216
C7A8  AD 02 20  LDA $2002 = 00                  A:00 X:FF Y:00 P:26 SP:FF CYC:14219
C7AB  29 80     AND #$80                        A:00 X:FF Y:00 P:26 SP:FF CYC:14223
C7AD  F0 F9     BEQ $C7A8                       A:00 X:FF Y:00 P:26 SP:FF CYC:14225
C7A8  AD 02 20  LDA $2002 = 00                  A:00 X:FF Y:00 P:26 SP:FF CYC:14228
C7AB  29 80     AND #$80                        A:00 X:FF Y:00 P:26 SP:FF CYC:14232
C7AD  F0 F9     BEQ $C7A8                       A:00 X:FF Y:00 P:26 SP:FF CYC:14234
C7A8  AD 02 20  LDA $2002 = 00                  A:00 X:FF Y:00 P:26 SP:FF CYC:14237
C7AB  29 80     AND #$80                        A:00 X:FF Y:00 P:26 SP:FF CYC:14241
C7AD  F0 F9     BEQ $C7A8                       A:00 X:FF Y:00 P:26 SP:FF CYC:14243
C7A8  AD 02 20  LDA $2002 = 00                  A:00 X:FF Y:00 P:26 SP:FF CYC:14246
C7AB  29 80     AND #$80                        A:00 X:FF Y:00 P:26 SP:FF CYC:14250
C7AD  F0 F9     BEQ $C7A8                       A:00 X:FF Y:00 P:26 SP:FF CYC:14252
C7A8  AD 02 20  LDA $2002 = 00                  A:00 X:FF Y:00 P:26 SP:FF CYC:14255
C7AB  29 80     AND #$80                        A:00 X:FF Y:00 P:26 SP:FF CYC:14259
C7AD  F0 F9     BEQ $C7A8                       A:00 X:FF Y:00 P:26 SP:FF CYC:14261
C7A8  AD 02 20  LDA $2002 = 00                  A:00 X:FF Y:00 P:26 SP:FF CYC:14264
C7AB  29 80     AND #$80                        A:00 X:FF Y:00 P:26 SP:FF CYC:14268
C7AD  F0 F9     BEQ $C7A8                       A:00 X:FF Y:00 P:26 SP:FF CYC:14270
C7A8  AD 02 20  LDA $2002 = 00                  A:00 X:FF Y:00 P:26 SP:FF CYC:14273
C7AB  29 80     AND #$80                        A:00 X:FF Y:00 P:26 SP:FF CYC:14277
C7AD  F0 F9     BEQ $C7A8                       A:00 X:FF Y:00 P:26 SP:FF CYC:14279
C7A8  AD 02 20  LDA $2002 = 00                  A:00 X:FF Y:00 P:26 SP:FF CYC:14282
C7AB  29 80     AND #$80                        A:00 X:FF Y:00 P:26 SP:FF CYC:14286
C7AD  F0 F9     BEQ $C7A8                       A:00 X:FF Y:00 P:26 SP:FF CYC:14288
C7A8  AD 02 20  LDA $2002 = 00                  A:00 X:FF Y:00 P:26 SP:FF CYC:14291
C7AB  29 80     AND #$80                        A:00 X:FF Y:00 P:26 SP:FF CYC:14295
C7AD  F0 F9     BEQ $C7A8                       A:00 X:FF Y:00 P:26 SP:FF CYC:14297
C7A8  AD 02 20  LDA $2002 = 00                  A:00 X:FF Y:00 P:26 SP:FF CYC:14300
C7AB  29 80     AND #$80                        A:00 X:FF Y:00 P:26 SP:FF CYC:14304
C7AD  F0 F9     BEQ $C7A8                       A:00 X:FF Y:00 P:26 SP:FF CYC:14306
C7A8  AD 02 20  LDA $2002 = 00                  A:00 X:FF Y:00 P:26 SP:FF CYC:14309
C7AB  29 80     AND #$80                        A:00 X:FF Y:00 P:26 SP:FF CYC:14313
C7AD  F0 F9     BEQ $C7A8                       A:00 X:FF Y:00 P:26 SP:FF CYC:14315
C7A8  AD 02 20  LDA $2002 = 00                  A:00 X:FF Y:00 P:26 SP:FF CYC:14318
C7AB  29 80     AND #$80                        A:00 X:FF Y:00 P:26 SP:FF CYC:14322
C7AD  F0 F9     BEQ $C7A8                       A:00 X:FF Y:00 P:26 SP:FF CYC:14324
C7A8  AD 02 20  LDA $2002 = 00                  A:00 X:FF Y:00 P:26 SP:FF CYC:14327
C7AB  29 80     AND #$80                        A:00 X:FF Y:00 P:26 SP:FF CYC:14331
C7AD  F0 F9     BEQ $C7A8                       A:00 X:FF Y:00 P:26 SP:FF CYC:14333
C7A8  AD 02 20  LDA $2002 = 00                  A:00 X:FF Y:00 P:26 SP:FF CYC:14336
C7AB  29 80     AND #$80                        A:00 X:FF Y:00 P:26 SP:FF CYC:14340
C7AD  F0 F9     BEQ $C7A8                       A:00 X:FF Y:00 P:26 SP:FF CYC:14342
C7A8  AD 02 20  LDA $2002 = 00                  A:00 X:FF Y:00 P:26 SP:FF CYC:14345
C7AB  29 80     AND #$80                        A:00 X:FF Y:00 P:26 SP:FF CYC:14349
C7AD  F0 F9     BEQ $C7A8                       A:00 X:FF Y:00 P:26 SP:FF CYC:14351
C7A8  AD 02 20  LDA $2002 = 00                  A:00 X:FF Y:00 P:26 SP:FF CYC:14354
C7AB  29 80     AND #$80                        A:00 X:FF Y:00 P:26 SP:FF CYC:14358
C7AD  F0 F9     BEQ $C7A8                       A:00 X:FF Y:00 P:26 SP:FF CYC:14360
C7A8  AD 02 20  LDA $2002 = 00                  A:00 X:FF Y:00 P:26 SP:FF CYC:14363
C7AB  29 80     AND #$80                        A:00 X:FF Y:00 P:26 SP:FF CYC:14367
C7AD  F0 F9     BEQ $C7A8                       A:00 X:FF Y:00 P:26 SP:FF CYC:14369
C7A8  AD 02 20  LDA $2002 = 00                  A:00 X:FF Y:00 P:26 SP:FF CYC:14372
C7AB  29 80     AND #$80                        A:00 X:FF Y:00 P:26 SP:FF CYC:14376
C7AD  F0 F9     BEQ $C7A8                       A:00 X:FF Y:00 P:26 SP:FF CYC:14378
C7A8  AD 02 20  LDA $2002 = 00                  A:00 X:FF Y:00 P:26 SP:FF CYC:14381
C7AB  29 80     AND #$80                        A:00 X:FF Y:00 P:26 SP:FF CYC:14385
C7AD  F0 F9     BEQ $C7A8                       A:00 X:FF Y:00 P:26 SP:FF CYC:14387
C7A8  AD 02 20  LDA $2002 = 00                  A:00 X:FF Y:00 P:26 SP:FF CYC:14390
C7AB  29 80     AND #$80                        A:00 X:FF Y:00 P:26 SP:FF CYC:14394
C7AD  F0 F9     BEQ $C7A8                       A:00 X:FF Y:00 P:26 SP:FF CYC:14396
C7A8  AD 02 20  LDA $2002 = 00                  A:00 X:FF Y:00 P:26 SP:FF CYC:14399
C7AB  29 80     AND #$80                        A:00 X:FF Y:00 P:26 SP:FF CYC:14403
C7AD  F0 F9     BEQ $C7A8                       A:00 X:FF Y:00 P:26 SP:FF CYC:14405
C7A8  AD 02 20  LDA $2002 = 00                  A:00 X:FF Y:00 P:26 SP:FF CYC:14408
C7AB  29 80     AND #$80                        A:00 X:FF Y:00 P:26 SP:FF CYC:14412
C7AD  F0 F9     BEQ $C7A8                       A:00 X:FF Y:00 P:26 SP:FF CYC:14414
C7A8  AD 02 20  LDA $2002 = 00                  A:00 X:FF Y:00 P:26 SP:FF CYC:14417
C7AB  29 80     AND #$80                        A:00 X:FF Y:00 P:26 SP:FF CYC:14421
C7AD  F0 F9     BEQ $C7A8                       A:00 X:FF Y:00 P:26 SP:FF CYC:14423
C7A8  AD 02 20  LDA $2002 = 00                  A:00 X:FF Y:00 P:26 SP:FF CYC:14426
C7AB  29 80     AND #$80                        A:00 X:FF Y:00 P:26 SP:FF CYC:14430
C7AD  F0 F9     BEQ $C7A8                       A:00 X:FF Y:00 P:26 SP:FF CYC:14432
C7A8  AD 02 20  LDA $2002 = 00                  A:00 X:FF Y:00 P:26 SP:FF CYC:14435
C7AB  29 80     AND #$80                        A:00 X:FF Y:00 P:26 SP:FF CYC:14439
C7AD  F0 F9     BEQ $C7A8                       A:00 X:FF Y:00 P:26 SP:FF CYC:14441
C7A8  AD 02 20  LDA $2002 = 00                  A:00 X:FF Y:00 P:26 SP:FF CYC:14444
C7AB  29 80     AND #$80                        A:00 X:FF Y:00 P:26 SP:FF CYC:14448
C7AD  F0 F9     BEQ $C7A8                       A:00 X:FF Y:00 P:26 SP:FF CYC:14450
C7A8  AD 02 20  LDA $2002 = 00                  A:00 X:FF Y:00 P:26 SP:FF CYC:14453
C7AB  29 80     AND #$80                        A:00 X:FF Y:00 P:26 SP:FF CYC:14457
C7AD  F0 F9     BEQ $C7A8                       A:00 X:FF Y:00 P:26 SP:FF CYC:14459
C7A8  AD 02 20  LDA $2002 = 00                  A:00 X:FF Y:00 P:26 SP:FF CYC:14462
C7AB  29 80     AND #$80                        A:00 X:FF Y:00 P:26 SP:FF CYC:14466
C7AD  F0 F9     BEQ $C7A8                       A:00 X:FF Y:00 P:26 SP:FF CYC:14468
C7A8  AD 02 20  LDA $2002 = 00                  A:00 X:FF Y:00 P:26 SP:FF CYC:14471
C7AB  29 80     AND #$80                        A:00 X:FF Y:00 P:26 SP:FF CYC:14475
C7AD  F0 F9     BEQ $C7A8                       A:00 X:FF Y:00 P:26 SP:FF CYC:14477
C7A8  AD 02 20  LDA $2002 = 00                  A:00 X:FF Y:00 P:26 SP:FF CYC:14480
C7AB  29 80     AND #$80                        A:00 X:FF Y:00 P:26 SP:FF CYC:14484
C7AD  F0 F9     BEQ $C7A8                       A:00 X:FF Y:00 P:26 SP:FF CYC:14486
C7A8  AD 02 20  LDA $2002 = 00                  A:00 X:FF Y:00 P:26 SP:FF CYC:14489
C7AB  29 80     AND #$80                        A:00 X:FF Y:00 P:26 SP:FF CYC:14493
C7AD  F0 F9     BEQ $C7A8                       A:00 X:FF Y:00 P:26 SP:FF CYC:14495
C7A8  AD 02 20  LDA $2002 = 00                  A:00 X:FF Y:00 P:26 SP:FF CYC:14498
C7AB  29 80     AND #$80                        A:00 X:FF Y:00 P:26 SP:FF CYC:14502
C7AD  F0 F9     BEQ $C7A8                       A:00 X:FF Y:00 P:26 SP:FF CYC:14504
C7A8  AD 02 20  LDA $2002 = 00                  A:00 X:FF Y:00 P:26 SP:FF CYC:14507
C7AB  29 80     AND #$80                        A:00 X:FF Y:00 P:26 SP:FF CYC:14511
C7AD  F0 F9     BEQ $C7A8                       A:00 X:FF Y:00 P:26 SP:FF CYC:14513
C7A8  AD 02 20  LDA $2002 = 00                  A:00 X:FF Y:00 P:26 SP:FF CYC:14516
C7AB  29 80     AND #$80                        A:00 X:FF Y:00 P:26 SP:FF CYC:14520
C7AD  F0 F9     BEQ $C7A8                       A:00 X:FF Y:00 P:26 SP:FF CYC:14522
C7A8  AD 02 20  LDA $2002 = 00                  A:00 X:FF Y:00 P:26 SP:FF CYC:14525
C7AB  29 80     AND #$80                        A:00 X:FF Y:00 P:26 SP:FF CYC:14529
C7AD  F0 F9     BEQ $C7A8                       A:00 X:FF Y:00 P:26 SP:FF CYC:14531
C7A8  AD 02 20  LDA $2002 = 00                  A:00 X:FF Y:00 P:26 SP:FF CYC:14534
C7AB  29 80     AND #$80                        A:00 X:FF Y:00 P:26 SP:FF CYC:14538
C7AD  F0 F9     BEQ $C7A8                       A:00 X:FF Y:00 P:26 SP:FF CYC:14540
C7A8  AD 02 20  LDA $2002 = 00                  A:00 X:FF Y:00 P:26 SP:FF CYC:14543
C7AB  29 80     AND #$80                        A:00 X:FF Y:00 P:26 SP:FF CYC:14547
C7AD  F0 F9     BEQ $C7A8                       A:00 X:FF Y:00 P:26 SP:FF CYC:14549
C7A8  AD 02 20  LDA $2002 = 00                  A:00 X:FF Y:00 P:26 SP:FF CYC:14552
C7AB  29 80     AND #$80                        A:00 X:FF Y:00 P:26 SP:FF CYC:14556
C7AD  F0 F9     BEQ $C7A8                       A:00 X:FF Y:00 P:26 SP:FF CYC:14558
C7A8  AD 02 20  LDA $2002 = 00                  A:00 X:FF Y:00 P:26 SP:FF CYC:14561
C7AB  29 80     AND #$80                        A:00 X:FF Y:00 P:26 SP:FF CYC:14565
C7AD  F0 F9     BEQ $C7A8                       A:00 X:FF Y:00 P:26 SP:FF CYC:14567
C7A8  AD 02 20  LDA $2002 = 00                  A:00 X:FF Y:00 P:26 SP:FF CYC:14570
C7AB  29 80     AND #$80                        A:00 X:FF Y:00 P:26 SP:FF CYC:14574
C7AD  F0 F9     BEQ $C7A8                       A:00 X:FF Y:00 P:26 SP:FF CYC:14576
C7A8  AD 02 20  LDA $2002 = 00                  A:00 X:FF Y:00 P:26 SP:FF CYC:14579
C7AB  29 80     AND #$80                        A:00 X:FF Y:00 P:26 SP:FF CYC:14583
C7AD  F0 F9     BEQ $C7A8                       A:00 X:FF Y:00 P:26 SP:FF CYC:14585
C7A8  AD 02 20  LDA $2002 = 00                  A:00 X:FF Y:00 P:26 SP:FF CYC:14588
C7AB  29 80     AND #$80                        A:00 X:FF Y:00 P:26 SP:FF CYC:14592
C7AD  F0 F9     BEQ $C7A8                       A:00 X:FF Y:00 P:26 SP:FF CYC:14594
C7A8  AD 02 20  LDA $2002 = 00                  A:00 X:FF Y:00 P:26 SP:FF CYC:14597
C7AB  29 80     AND #$80                        A:00 X:FF Y:00 P:26 SP:FF CYC:14601
C7AD  F0 F9     BEQ $C7A8                       A:00 X:FF Y:00 P:26 SP:FF CYC:14603
C7A8  AD 02 20  LDA $2002 = 00                  A:00 X:FF Y:00 P:26 SP:FF CYC:14606
C7AB  29 80     AND #$80                        A:00 X:FF Y:00 P:26 SP:FF CYC:14610
C7AD  F0 F9     BEQ $C7A8                       A:00 X:FF Y:00 P:26 SP:FF CYC:14612
C7A8  AD 02 20  LDA $2002 = 00                  A:00 X:FF Y:00 P:26 SP:FF CYC:14615
C7AB  29 80     AND #$80                        A:00 X:FF Y:00 P:26 SP:FF CYC:14619
C7AD  F0 F9     BEQ $C7A8                       A:00 X:FF Y:00 P:26 SP:FF CYC:14621
C7A8  AD 02 20  LDA $2002 = 00                  A:00 X:FF Y:00 P:26 SP:FF CYC:14624
C7AB  29 80     AND #$80                        A:00 X:FF Y:00 P:26 SP:FF CYC:14628
C7AD  F0 F9     BEQ $C7A8                       A:00 X:FF Y:00 P:26 SP:FF CYC:14630
C7A8  AD 02 20  LDA $2002 = 00                  A:00 X:FF Y:00 P:26 SP:FF CYC:14633
C7AB  29 80     AND #$80                        A:00 X:FF Y:00 P:26 SP:FF CYC:14637
C7AD  F0 F9     BEQ $C7A8                       A:00 X:FF Y:00 P:26 SP:FF CYC:14639
C7A8  AD 02 20  LDA $2002 = 00                  A:00 X:FF Y:00 P:26 SP:FF CYC:14642
C7AB  29 80     AND #$80                        A:00 X:FF Y:00 P:26 SP:FF CYC:14646
C7AD  F0 F9     BEQ $C7A8                       A:00 X:FF Y:00 P:26 SP:FF CYC:14648
C7A8  AD 02 20  LDA $2002 = 00                  A:00 X:FF Y:00 P:26 SP:FF CYC:14651
C7AB  29 80     AND #$80                        A:00 X:FF Y:00 P:26 SP:FF CYC:14655
C7AD  F0 F9     BEQ $C7A8                       A:00 X:FF Y:00 P:26 SP:FF CYC:14657
C7A8  AD 02 20  LDA $2002 = 00                  A:00 X:FF Y:00 P:26 SP:FF CYC:14660
C7AB  29 80     AND #$80                        A:00 X:FF Y:00 P:26 SP:FF CYC:14664
C7AD  F0 F9     BEQ $C7A8                       A:00 X:FF Y:00 P:26 SP:FF CYC:14666
C7A8  AD 02 20  LDA $2002 = 00                  A:00 X:FF Y:00 P:26 SP:FF CYC:14669
C7AB  29 80     AND #$80                        A:00 X:FF Y:00 P:26 SP:FF CYC:14673
C7AD  F0 F9     BEQ $C7A8                       A:00 X:FF Y:00 P:26 SP:FF CYC:14675
C7A8  AD 02 20  LDA $2002 = 00                  A:00 X:FF Y:00 P:26 SP:FF CYC:14678
C7AB  29 80     AND #$80                        A:00 X:FF Y:00 P:26 SP:FF CYC:14682
C7AD  F0 F9     BEQ $C7A8                       A:00 X:FF Y:00 P:26 SP:FF CYC:14684
C7A8  AD 02 20  LDA $2002 = 00                  A:00 X:FF Y:00 P:26 SP:FF CYC:14687
C7AB  29 80     AND #$80                        A:00 X:FF Y:00 P:26 SP:FF CYC:14691
C7AD  F0 F9     BEQ $C7A8                       A:00 X:FF Y:00 P:26 SP:FF CYC:14693
C7A8  AD 02 20  LDA $2002 = 00                  A:00 X:FF Y:00 P:26 SP:FF CYC:14696
C7AB  29 80     AND #$80                        A:00 X:FF Y:00 P:26 SP:FF CYC:14700
C7AD  F0 F9     BEQ $C7A8                       A:00 X:FF Y:00 P:26 SP:FF CYC:14702
C7A8  AD 02 20  LDA $2002 = 00                  A:00 X:FF Y:00 P:26 SP:FF CYC:14705
C7AB  29 80     AND #$80                        A:00 X:FF Y:00 P:26 SP:FF CYC:14709
C7AD  F0 F9     BEQ $C7A8                       A:00 X:FF Y:00 P:26 SP:FF CYC:14711
C7A8  AD 02 20  LDA $2002 = 00                  A:00 X:FF Y:00 P:26 SP:FF CYC:14714
C7AB  29 80     AND #$80                        A:00 X:FF Y:00 P:26 SP:FF CYC:14718
C7AD  F0 F9     BEQ $C7A8                       A:00 X:FF Y:00 P:26 SP:FF CYC:14720
C7A8  AD 02 20  LDA $2002 = 00                  A:00 X:FF Y:00 P:26 SP:FF CYC:14723
C7AB  29 80     AND #$80                        A:00 X:FF Y:00 P:26 SP:FF CYC:14727
C7AD  F0 F9     BEQ $C7A8                       A:00 X:FF Y:00 P:26 SP:FF CYC:14729
C7A8  AD 02 20  LDA $2002 = 00                  A:00 X:FF Y:00 P:26 SP:FF CYC:14732
C7AB  29 80     AND #$80                        A:00 X:FF Y:00 P:26 SP:FF CYC:14736
C7AD  F0 F9     BEQ $C7A8                       A:00 X:FF Y:00 P:26 SP:FF CYC:14738
C7A8  AD 02 20  LDA $2002 = 00                  A:00 X:FF Y:00 P:26 SP:FF CYC:14741
C7AB  29 80     AND #$80                        A:00 X:FF Y:00 P:26 SP:FF CYC:14745
C7AD  F0 F9     BEQ $C7A8                       A:00 X:FF Y:00 P:26 SP:FF CYC:14747
C7A8  AD 02 20  LDA $2002 = 00                  A:00 X:FF Y:00 P:26 SP:FF CYC:14750
C7AB  29 80     AND #$80                        A:00 X:FF Y:00 P:26 SP:FF CYC:14754
C7AD  F0 F9     BEQ $C7A8                       A:00 X:FF Y:00 P:26 SP:FF CYC:14756
C7A8  AD 02 20  LDA $2002 = 00                  A:00 X:FF Y:00 P:26 SP:FF CYC:14759
C7AB  29 80     AND #$80                        A:00 X:FF Y:00 P:26 SP:FF CYC:14763
C7AD  F0 F9     BEQ $C7A8                       A:00 X:FF Y:00 P:26 SP:FF CYC:14765
C7A8  AD 02 20  LDA $2002 = 00                  A:00 X:FF Y:00 P:26 SP:FF CYC:14768
C7AB  29 80     AND #$80                        A:00 X:FF Y:00 P:26 SP:FF CYC:14772
C7AD  F0 F9     BEQ $C7A8                       A:00 X:FF Y:00 P:26 SP:FF CYC:14774
C7A8  AD 02 20  LDA $2002 = 00                  A:00 X:FF Y:00 P:26 SP:FF CYC:14777
C7AB  29 80     AND #$80                        A:00 X:FF Y:00 P:26 SP:FF CYC:14781
C7AD  F0 F9     BEQ $C7A8                       A:00 X:FF Y:00 P:26 SP:FF CYC:14783
C7A8  AD 02 20  LDA $2002 = 00                  A:00 X:FF Y:00 P:26 SP:FF CYC:14786
C7AB  29 80     AND #$80                        A:00 X:FF Y:00 P:26 SP:FF CYC:14790
C7AD  F0 F9     BEQ $C7A8                       A:00 X:FF Y:00 P:26 SP:FF CYC:14792
C7A8  AD 02 20  LDA $2002 = 00                  A:00 X:FF Y:00 P:26 SP:FF CYC:14795
C7AB  29 80     AND #$80                        A:00 X:FF Y:00 P:26 SP:FF CYC:14799
C7AD  F0 F9     BEQ $C7A8                       A:00 X:FF Y:00 P:26 SP:FF CYC:14801
C7A8  AD 02 20  LDA $2002 = 00                  A:00 X:FF Y:00 P:26 SP:FF CYC:14804
C7AB  29 80     AND #$80                        A:00 X:FF Y:00 P:26 SP:FF CYC:14808
C7AD  F0 F9     BEQ $C7A8                       A:00 X:FF Y:00 P:26 SP:FF CYC:14810
C7A8  AD 02 20  LDA $2002 = 00                  A:00 X:FF Y:00 P:26 SP:FF CYC:14813
C7AB  29 80     AND #$80                        A:00 X:FF Y:00 P:26 SP:FF CYC:14817
C7AD  F0 F9     BEQ $C7A8                       A:00 X:FF Y:00 P:26 SP:FF CYC:14819
C7A8  AD 02 20  LDA $2002 = 00                  A:00 X:FF Y:00 P:26 SP:FF CYC:14822
C7AB  29 80     AND #$80                        A:00 X:FF Y:00 P:26 SP:FF CYC:14826
C7AD  F0 F9     BEQ $C7A8                       A:00 X:FF Y:00 P:26 SP:FF CYC:14828
C7A8  AD 02 20  LDA $2002 = 00                  A:00 X:FF Y:00 P:26 SP:FF CYC:14831
C7AB  29 80     AND #$80                        A:00 X:FF Y:00 P:26 SP:FF CYC:14835
C7AD  F0 F9     BEQ $C7A8                       A:00 X:FF Y:00 P:26 SP:FF CYC:14837
C7A8  AD 02 20  LDA $2002 = 00                  A:00 X:FF Y:00 P:26 SP:FF CYC:14840
C7AB  29 80     AND #$80                        A:00 X:FF Y:00 P:26 SP:FF CYC:14844
C7AD  F0 F9     BEQ $C7A8                       A:00 X:FF Y:00 P:26 SP:FF CYC:14846
C7A8  AD 02 20  LDA $2002 = 00                  A:00 X:FF Y:00 P:26 SP:FF CYC:14849
C7AB  29 80     AND #$80                        A:00 X:FF Y:00 P:26 SP:FF CYC:14853
C7AD  F0 F9     BEQ $C7A8                       A:00 X:FF Y:00 P:26 SP:FF CYC:14855
C7A8  AD 02 20  LDA $2002 = 00                  A:00 X:FF Y:00 P:26 SP:FF CYC:14858
C7AB  29 80     AND #$80                        A:00 X:FF Y:00 P:26 SP:FF CYC:14862
C7AD  F0 F9     BEQ $C7A8                       A:00 X:FF Y:00 P:26 SP:FF CYC:14864
C7A8  AD 02 20  LDA $2002 = 00                  A:00 X:FF Y:00 P:26 SP:FF CYC:14867
C7AB  29 80     AND #$80                        A:00 X:FF Y:00 P:26 SP:FF CYC:14871
C7AD  F0 F9     BEQ $C7A8                       A:00 X:FF Y:00 P:26 SP:FF CYC:14873
C7A8  AD 02 20  LDA $2002 = 00                  A:00 X:FF Y:00 P:26 SP:FF CYC:14876
C7AB  29 80     AND #$80                        A:00 X:FF Y:00 P:26 SP:FF CYC:14880
C7AD  F0 F9     BEQ $C7A8                       A:00 X:FF Y:00 P:26 SP:FF CYC:14882
C7A8  AD 02 20  LDA $2002 = 00                  A:00 X:FF Y:00 P:26 SP:FF CYC:14885
C7AB  29 80     AND #$80                        A:00 X:FF Y:00 P:26 SP:FF CYC:14889
C7AD  F0 F9     BEQ $C7A8                       A:00 X:FF Y:00 P:26 SP:FF CYC:14891
C7A8  AD 02 20  LDA $2002 = 00                  A:00 X:FF Y:00 P:26 SP:FF CYC:14894
C7AB  29 80     AND #$80                        A:00 X:FF Y:00 P:26 SP:FF CYC:14898
C7AD  F0 F9     BEQ $C7A8                       A:00 X:FF Y:00 P:26 SP:FF CYC:14900
C7A8  AD 02 20  LDA $2002 = 00                  A:00 X:FF Y:00 P:26 SP:FF CYC:14903
C7AB  29 80     AND #$80                        A:00 X:FF Y:00 P:26 SP:FF CYC:14907
C7AD  F0 F9     BEQ $C7A8                       A:00 X:FF Y:00 P:26 SP:FF CYC:14909
C7A8  AD 02 20  LDA $2002 = 00                  A:00 X:FF Y:00 P:26 SP:FF CYC:14912
C7AB  29 80     AND #$80                        A:00 X:FF Y:00 P:26 SP:FF CYC:14916
C7AD  F0 F9     BEQ $C7A8                       A:00 X:FF Y:00 P:26 SP:FF CYC:14918
C7A8  AD 02 20  LDA $2002 = 00                  A:00 X:FF Y:00 P:26 SP:FF CYC:14921
C7AB  29 80     AND #$80                        A:00 X:FF Y:00 P:26 SP:FF CYC:14925
C7AD  F0 F9     BEQ $C7A8                       A:00 X:FF Y:00 P:26 SP:FF CYC:14927
C7A8  AD 02 20  LDA $2002 = 00                  A:00 X:FF Y:00 P:26 SP:FF CYC:14930
C7AB  29 80     AND #$80                        A:00 X:FF Y:00 P:26 SP:FF CYC:14934
C7AD  F0 F9     BEQ $C7A8                       A:00 X:FF Y:00 P:26 SP:FF CYC:14936
C7A8  AD 02 20  LDA $2002 = 00                  A:00 X:FF Y:00 P:26 SP:FF CYC:14939
C7AB  29 80     AND #$80                        A:00 X:FF Y:00 P:26 SP:FF CYC:14943
C7AD  F0 F9     BEQ $C7A8                       A:00 X:FF Y:00 P:26 SP:FF CYC:14945
C7A8  AD 02 20  LDA $2002 = 00                  A:00 X:FF Y:00 P:26 SP:FF CYC:14948
C7AB  29 80     AND #$80                        A:00 X:FF Y:00 P:26 SP:FF CYC:14952
C7AD  F0 F9     BEQ $C7A8                       A:00 X:FF Y:00 P:26 SP:FF CYC:14954
C7A8  AD 02 20  LDA $2002 = 00                  A:00 X:FF Y:00 P:26 SP:FF CYC:14957
C7AB  29 80     AND #$80                        A:00 X:FF Y:00 P:26 SP:FF CYC:14961
C7AD  F0 F9     BEQ $C7A8                       A:00 X:FF Y:00 P:26 SP:FF CYC:14963
C7A8  AD 02 20  LDA $2002 = 00                  A:00 X:FF Y:00 P:26 SP:FF CYC:14966
C7AB  29 80     AND #$80                        A:00 X:FF Y:00 P:26 SP:FF CYC:14970
C7AD  F0 F9     BEQ $C7A8                       A:00 X:FF Y:00 P:26 SP:FF CYC:14972
C7A8  AD 02 20  LDA $2002 = 00                  A:00 X:FF Y:00 P:26 SP:FF CYC:14975
C7AB  29 80     AND #$80                        A:00 X:FF Y:00 P:26 SP:FF CYC:14979
C7AD  F0 F9     BEQ $C7A8                       A:00 X:FF Y:00 P:26 SP:FF CYC:14981
C7A8  AD 02 20  LDA $2002 = 00                  A:00 X:FF Y:00 P:26 SP:FF CYC:14984
C7AB  29 80     AND #$80                        A:00 X:FF Y:00 P:26 SP:FF CYC:14988
C7AD  F0 F9     BEQ $C7A8                       A:00 X:FF Y:00 P:26 SP:FF CYC:14990
C7A8  AD 02 20  LDA $2002 = 00                  A:00 X:FF Y:00 P:26 SP:FF CYC:14993
C7AB  29 80     AND #$80                        A:00 X:FF Y:00 P:26 SP:FF CYC:14997
C7AD  F0 F9     BEQ $C7A8                       A:00 X:FF Y:00 P:26 SP:FF CYC:14999
C7A8  AD 02 20  LDA $2002 = 00                  A:00 X:FF Y:00 P:26 SP:FF CYC:15002
C7AB  29 80     AND #$80                        A:00 X:FF Y:00 P:26 SP:FF CYC:15006
C7AD  F0 F9     BEQ $C7A8                       A:00 X:FF Y:00 P:26 SP:FF CYC:15008
C7A8  AD 02 20  LDA $2002 = 00                  A:00 X:FF Y:00 P:26 SP:FF CYC:15011
C7AB  29 80     AND #$80                        A:00 X:FF Y:00 P:26 SP:FF CYC:15015
C7AD  F0 F9     BEQ $C7A8                       A:00 X:FF Y:00 P:26 SP:FF CYC:15017
C7A8  AD 02 20  LDA $2002 = 00                  A:00 X:FF Y:00 P:26 SP:FF CYC:15020
C7AB  29 80     AND #$80                        A:00 X:FF Y:00 P:26 SP:FF CYC:15024
C7AD  F0 F9     BEQ $C7A8                       A:00 X:FF Y:00 P:26 SP:FF CYC:15026
C7A8  AD 02 20  LDA $2002 = 00                  A:00 X:FF Y:00 P:26 SP:FF CYC:15029
C7AB  29 80     AND #$80                        A:00 X:FF Y:00 P:26 SP:FF CYC:15033
C7AD  F0 F9     BEQ $C7A8                       A:00 X:FF Y:00 P:26 SP:FF CYC:15035
C7A8  AD 02 20  LDA $2002 = 00                  A:00 X:FF Y:00 P:26 SP:FF CYC:15038
C7AB  29 80     AND #$80                        A:00 X:FF Y:00 P:26 SP:FF CYC:15042
C7AD  F0 F9     BEQ $C7A8                       A:00 X:FF Y:00 P:26 SP:FF CYC:15044
C7A8  AD 02 20  LDA $2002 = 00                  A:00 X:FF Y:00 P:26 SP:FF CYC:15047
C7AB  29 80     AND #$80                        A:00 X:FF Y:00 P:26 SP:FF CYC:15051
C7AD  F0 F9     BEQ $C7A8                       A:00 X:FF Y:00 P:26 SP:FF CYC:15053
C7A8  AD 02 20  LDA $2002 = 00                  A:00 X:FF Y:00 P:26 SP:FF CYC:15056
C7AB  29 80     AND #$80                        A:00 X:FF Y:00 P:26 SP:FF CYC:15060
C7AD  F0 F9     BEQ $C7A8                       A:00 X:FF Y:00 P:26 SP:FF CYC:15062
C7A8  AD 02 20  LDA $2002 = 00                  A:00 X:FF Y:00 P:26 SP:FF CYC:15065
C7AB  29 80     AND #$80                        A:00 X:FF Y:00 P:26 SP:FF CYC:15069
C7AD  F0 F9     BEQ $C7A8                       A:00 X:FF Y:00 P:26 SP:FF CYC:15071
C7A8  AD 02 20  LDA $2002 = 00                  A:00 X:FF Y:00 P:26 SP:FF CYC:15074
C7AB  29 80     AND #$80                        A:00 X:FF Y:00 P:26 SP:FF CYC:15078
C7AD  F0 F9     BEQ $C7A8                       A:00 X:FF Y:00 P:26 SP:FF CYC:15080
C7A8  AD 02 20  LDA $2002 = 00                  A:00 X:FF Y:00 P:26 SP:FF CYC:15083
C7AB  29 80     AND #$80                        A:00 X:FF Y:00 P:26 SP:FF CYC:15087
C7AD  F0 F9     BEQ $C7A8                       A:00 X:FF Y:00 P:26 SP:FF CYC:15089
C7A8  AD 02 20  LDA $2002 = 00                  A:00 X:FF Y:00 P:26 SP:FF CYC:15092
C7AB  29 80     AND #$80                        A:00 X:FF Y:00 P:26 SP:FF CYC:15096
C7AD  F0 F9     BEQ $C7A8                       A:00 X:FF Y:00 P:26 SP:FF CYC:15098
C7A8  AD 02 20  LDA $2002 = 00                  A:00 X:FF Y:00 P:26 SP:FF CYC:15101
C7AB  29 80     AND #$80                        A:00 X:FF Y:00 P:26 SP:FF CYC:15105
C7AD  F0 F9     BEQ $C7A8                       A:00 X:FF Y:00 P:26 SP:FF CYC:15107
C7A8  AD 02 20  LDA $2002 = 00                  A:00 X:FF Y:00 P:26 SP:FF CYC:15110
C7AB  29 80     AND #$80                        A:00 X:FF Y:00 P:26 SP:FF CYC:15114
C7AD  F0 F9     BEQ $C7A8                       A:00 X:FF Y:00 P:26 SP:FF CYC:15116
C7A8  AD 02 20  LDA $2002 = 00                  A:00 X:FF Y:00 P:26 SP:FF CYC:15119
C7AB  29 80     AND #$80                        A:00 X:FF Y:00 P:26 SP:FF CYC:15123
C7AD  F0 F9     BEQ $C7A8                       A:00 X:FF Y:00 P:26 SP:FF CYC:15125
C7A8  AD 02 20  LDA $2002 = 00                  A:00 X:FF Y:00 P:26 SP:FF CYC:15128
C7AB  29 80     AND #$80                        A:00 X:FF Y:00 P:26 SP:FF CYC:15132
C7AD  F0 F9     BEQ $C7A8                       A:00 X:FF Y:00 P:26 SP:FF CYC:15134
C7A8  AD 02 20  LDA $2002 = 00                  A:00 X:FF Y:00 P:26 SP:FF CYC:15137
C7AB  29 80     AND #$80                        A:00 X:FF Y:00 P:26 SP:FF CYC:15141
C7AD  F0 F9     BEQ $C7A8                       A:00 X:FF Y:00 P:26 SP:FF CYC:15143
C7A8  AD 02 20  LDA $2002 = 00                  A:00 X:FF Y:00 P:26 SP:FF CYC:15146
C7AB  29 80     AND #$80                        A:00 X:FF Y:00 P:26 SP:FF CYC:15150
C7AD  F0 F9     BEQ $C7A8                       A:00 X:FF Y:00 P:26 SP:FF CYC:15152
C7A8  AD 02 20  LDA $2002 = 00                  A:00 X:FF Y:00 P:26 SP:FF CYC:15155
C7AB  29 80     AND #$80                        A:00 X:FF Y:00 P:26 SP:FF CYC:15159
C7AD  F0 F9     BEQ $C7A8                       A:00 X:FF Y:00 P:26 SP:FF CYC:15161
C7A8  AD 02 20  LDA $2002 = 00                  A:00 X:FF Y:00 P:26 SP:FF CYC:15164
C7AB  29 80     AND #$80                        A:00 X:FF Y:00 P:26 SP:FF CYC:15168
C7AD  F0 F9     BEQ $C7A8                       A:00 X:FF Y:00 P:26 SP:FF CYC:15170
C7A8  AD 02 20  LDA $2002 = 00                  A:00 X:FF Y:00 P:26 SP:FF CYC:15173
C7AB  29 80     AND #$80                        A:00 X:FF Y:00 P:26 SP:FF CYC:15177
C7AD  F0 F9     BEQ $C7A8                       A:00 X:FF Y:00 P:26 SP:FF CYC:15179
C7A8  AD 02 20  LDA $2002 = 00                  A:00 X:FF Y:00 P:26 SP:FF CYC:15182
C7AB  29 80     AND #$80                        A:00 X:FF Y:00 P:26 SP:FF CYC:15186
C7AD  F0 F9     BEQ $C7A8                       A:00 X:FF Y:00 P:26 SP:FF CYC:15188
C7A8  AD 02 20  LDA $2002 = 00                  A:00 X:FF Y:00 P:26 SP:FF CYC:15191
C7AB  29 80     AND #$80                        A:00 X:FF Y:00 P:26 SP:FF CYC:15195
C7AD  F0 F9     BEQ $C7A8                       A:00 X:FF Y:00 P:26 SP:FF CYC:15197
C7A8  AD 02 20  LDA $2002 = 00                  A:00 X:FF Y:00 P:26 SP:FF CYC:15200
C7AB  29 80     AND #$80                        A:00 X:FF Y:00 P:26 SP:FF CYC:15204
C7AD  F0 F9     BEQ $C7A8                       A:00 X:FF Y:00 P:26 SP:FF CYC:15206
C7A8  AD 02 20  LDA $2002 = 00                  A:00 X:FF Y:00 P:26 SP:FF CYC:15209
C7AB  29 80     AND #$80                        A:00 X:FF Y:00 P:26 SP:FF CYC:15213
C7AD  F0 F9     BEQ $C7A8                       A:00 X:FF Y:00 P:26 SP:FF CYC:15215
C7A8  AD 02 20  LDA $2002 = 00                  A:00 X:FF Y:00 P:26 SP:FF CYC:15218
C7AB  29 80     AND #$80                        A:00 X:FF Y:00 P:26 SP:FF CYC:15222
C7AD  F0 F9     BEQ $C7A8                       A:00 X:FF Y:00 P:26 SP:FF CYC:15224
C7A8  AD 02 20  LDA $2002 = 00                  A:00 X:FF Y:00 P:26 SP:FF CYC:15227
C7AB  29 80     AND #$80                        A:00 X:FF Y:00 P:26 SP:FF CYC:15231
C7AD  F0 F9     BEQ $C7A8                       A:00 X:FF Y:00 P:26 SP:FF CYC:15233
C7A8  AD 02 20  LDA $2002 = 00                  A:00 X:FF Y:00 P:26 SP:FF CYC:15236
C7AB  29 80     AND #$80                        A:00 X:FF Y:00 P:26 SP:FF CYC:15240
C7AD  F0 F9     BEQ $C7A8                       A:00 X:FF Y:00 P:26 SP:FF CYC:15242
C7A8  AD 02 20  LDA $2002 = 00                  A:00 X:FF Y:00 P:26 SP:FF CYC:15245
C7AB  29 80     AND #$80                        A:00 X:FF Y:00 P:26 SP:FF CYC:15249
C7AD  F0 F9     BEQ $C7A8                       A:00 X:FF Y:00 P:26 SP:FF CYC:15251
C7A8  AD 02 20  LDA $2002 = 00                  A:00 X:FF Y:00 P:26 SP:FF CYC:15254
C7AB  29 80     AND #$80                        A:00 X:FF Y:00 P:26 SP:FF CYC:15258
C7AD  F0 F9     BEQ $C7A8                       A:00 X:FF Y:00 P:26 SP:FF CYC:15260
C7A8  AD 02 20  LDA $2002 = 00                  A:00 X:FF Y:00 P:26 SP:FF CYC:15263
C7AB  29 80     AND #$80                        A:00 X:FF Y:00 P:26 SP:FF CYC:15267
C7AD  F0 F9     BEQ $C7A8                       A:00 X:FF Y:00 P:26 SP:FF CYC:15269
C7A8  AD 02 20  LDA $2002 = 00                  A:00 X:FF Y:00 P:26 SP:FF CYC:15272
C7AB  29 80     AND #$80                        A:00 X:FF Y:00 P:26 SP:FF CYC:15276
C7AD  F0 F9     BEQ $C7A8                       A:00 X:FF Y:00 P:26 SP:FF CYC:15278
C7A8  AD 02 20  LDA $2002 = 00                  A:00 X:FF Y:00 P:26 SP:FF CYC:15281
C7AB  29 80     AND #$80                        A:00 X:FF Y:00 P:26 SP:FF CYC:15285
C7AD  F0 F9     BEQ $C7A8                       A:00 X:FF Y:00 P:26 SP:FF CYC:15287
C7A8  AD 02 20  LDA $2002 = 00                  A:00 X:FF Y:00 P:26 SP:FF CYC:15290
C7AB  29 80     AND #$80                        A:00 X:FF Y:00 P:26 SP:FF CYC:15294
C7AD  F0 F9     BEQ $C7A8                       A:00 X:FF Y:00 P:26 SP:FF CYC:15296
C7A8  AD 02 20  LDA $2002 = 00                  A:00 X:FF Y:00 P:26 SP:FF CYC:15299
C7AB  29 80     AND #$80                        A:00 X:FF Y:00 P:26 SP:FF CYC:15303
C7AD  F0 F9     BEQ $C7A8                       A:00 X:FF Y:00 P:26 SP:FF CYC:15305
C7A8  AD 02 20  LDA $2002 = 00                  A:00 X:FF Y:00 P:26 SP:FF CYC:15308
C7AB  29 80     AND #$80                        A:00 X:FF Y:00 P:26 SP:FF CYC:15312
C7AD  F0 F9     BEQ $C7A8                       A:00 X:FF Y:00 P:26 SP:FF CYC:15314
C7A8  AD 02 20  LDA $2002 = 00                  A:00 X:FF Y:00 P:26 SP:FF CYC:15317
C7AB  29 80     AND #$80                        A:00 X:FF Y:00 P:26 SP:FF CYC:15321
C7AD  F0 F9     BEQ $C7A8                       A:00 X:FF Y:00 P:26 SP:FF CYC:15323
C7A8  AD 02 20  LDA $2002 = 00                  A:00 X:FF Y:00 P:26 SP:FF CYC:15326
C7AB  29 80     AND #$80                        A:00 X:FF Y:00 P:26 SP:FF CYC:15330
C7AD  F0 F9     BEQ $C7A8                       A:00 X:FF Y:00 P:26 SP:FF CYC:15332
C7A8  AD 02 20  LDA $2002 = 00                  A:00 X:FF Y:00 P:26 SP:FF CYC:15335
C7AB  29 80     AND #$80                        A:00 X:FF Y:00 P:26 SP:FF CYC:15339
C7AD  F0 F9     BEQ $C7A8                       A:00 X:FF Y:00 P:26 SP:FF CYC:15341
C7A8  AD 02 20  LDA $2002 = 00                  A:00 X:FF Y:00 P:26 SP:FF CYC:15344
C7AB  29 80     AND #$80                        A:00 X:FF Y:00 P:26 SP:FF CYC:15348
C7AD  F0 F9     BEQ $C7A8                       A:00 X:FF Y:00 P:26 SP:FF CYC:15350
C7A8  AD 02 20  LDA $2002 = 00                  A:00 X:FF Y:00 P:26 SP:FF CYC:15353
C7AB  29 80     AND #$80                        A:00 X:FF Y:00 P:26 SP:FF CYC:15357
C7AD  F0 F9     BEQ $C7A8                       A:00 X:FF Y:00 P:26 SP:FF CYC:15359
C7A8  AD 02 20  LDA $2002 = 00                  A:00 X:FF Y:00 P:26 SP:FF CYC:15362
C7AB  29 80     AND #$80                        A:00 X:FF Y:00 P:26 SP:FF CYC:15366
C7AD  F0 F9     BEQ $C7A8                       A:00 X:FF Y:00 P:26 SP:FF CYC:15368
C7A8  AD 02 20  LDA $2002 = 00                  A:00 X:FF Y:00 P:26 SP:FF CYC:15371
C7AB  29 80     AND #$80                        A:00 X:FF Y:00 P:26 SP:FF CYC:15375
C7AD  F0 F9     BEQ $C7A8                       A:00 X:FF Y:00 P:26 SP:FF CYC:15377
C7A8  AD 02 20  LDA $2002 = 00                  A:00 X:FF Y:00 P:26 SP:FF CYC:15380
C7AB  29 80     AND #$80                        A:00 X:FF Y:00 P:26 SP:FF CYC:15384
C7AD  F0 F9     BEQ $C7A8                       A:00 X:FF Y:00 P:26 SP:FF CYC:15386
C7A8  AD 02 20  LDA $2002 = 00                  A:00 X:FF Y:00 P:26 SP:FF CYC:15389
C7AB  29 80     AND #$80                        A:00 X:FF Y:00 P:26 SP:FF CYC:15393
C7AD  F0 F9     BEQ $C7A8                       A:00 X:FF Y:00 P:26 SP:FF CYC:15395
C7A8  AD 02 20  LDA $2002 = 00                  A:00 X:FF Y:00 P:26 SP:FF CYC:15398
C7AB  29 80     AND #$80                        A:00 X:FF Y:00 P:26 SP:FF CYC:15402
C7AD  F0 F9     BEQ $C7A8                       A:00 X:FF Y:00 P:26 SP:FF CYC:15404
C7A8  AD 02 20  LDA $2002 = 00                  A:00 X:FF Y:00 P:26 SP:FF CYC:15407
C7AB  29 80     AND #$80                        A:00 X:FF Y:00 P:26 SP:FF CYC:15411
C7AD  F0 F9     BEQ $C7A8                       A:00 X:FF Y:00 P:26 SP:FF CYC:15413
C7A8  AD 02 20  LDA $2002 = 00                  A:00 X:FF Y:00 P:26 SP:FF CYC:15416
C7AB  29 80     AND #$80                        A:00 X:FF Y:00 P:26 SP:FF CYC:15420
C7AD  F0 F9     BEQ $C7A8                       A:00 X:FF Y:00 P:26 SP:FF CYC:15422
C7A8  AD 02 20  LDA $2002 = 00                  A:00 X:FF Y:00 P:26 SP:FF CYC:15425
C7AB  29 80     AND #$80                        A:00 X:FF Y:00 P:26 SP:FF CYC:15429
C7AD  F0 F9     BEQ $C7A8                       A:00 X:FF Y:00 P:26 SP:FF CYC:15431
C7A8  AD 02 20  LDA $2002 = 00                  A:00 X:FF Y:00 P:26 SP:FF CYC:15434
C7AB  29 80     AND #$80                        A:00 X:FF Y:00 P:26 SP:FF CYC:15438
C7AD  F0 F9     BEQ $C7A8                       A:00 X:FF Y:00 P:26 SP:FF CYC:15440
C7A8  AD 02 20  LDA $2002 = 00                  A:00 X:FF Y:00 P:26 SP:FF CYC:15443
C7AB  29 80     AND #$80                        A:00 X:FF Y:00 P:26 SP:FF CYC:15447
C7AD  F0 F9     BEQ $C7A8                       A:00 X:FF Y:00 P:26 SP:FF CYC:15449
C7A8  AD 02 20  LDA $2002 = 00                  A:00 X:FF Y:00 P:26 SP:FF CYC:15452
C7AB  29 80     AND #$80                        A:00 X:FF Y:00 P:26 SP:FF CYC:15456
C7AD  F0 F9     BEQ $C7A8                       A:00 X:FF Y:00 P:26 SP:FF CYC:15458
C7A8  AD 02 20  LDA $2002 = 00                  A:00 X:FF Y:00 P:26 SP:FF CYC:15461
C7AB  29 80     AND #$80                        A:00 X:FF Y:00 P:26 SP:FF CYC:15465
C7AD  F0 F9     BEQ $C7A8                       A:00 X:FF Y:00 P:26 SP:FF CYC:15467
C7A8  AD 02 20  LDA $2002 = 00                  A:00 X:FF Y:00 P:26 SP:FF CYC:15470
C7AB  29 80     AND #$80                        A:00 X:FF Y:00 P:26 SP:FF CYC:15474
C7AD  F0 F9     BEQ $C7A8                       A:00 X:FF Y:00 P:26 SP:FF CYC:15476
C7A8  AD 02 20  LDA $2002 = 00                  A:00 X:FF Y:00 P:26 SP:FF CYC:15479
C7AB  29 80     AND #$80                        A:00 X:FF Y:00 P:26 SP:FF CYC:15483
C7AD  F0 F9     BEQ $C7A8                       A:00 X:FF Y:00 P:26 SP:FF CYC:15485
C7A8  AD 02 20  LDA $2002 = 00                  A:00 X:FF Y:00 P:26 SP:FF CYC:15488
C7AB  29 80     AND #$80                        A:00 X:FF Y:00 P:26 SP:FF CYC:15492
C7AD  F0 F9     BEQ $C7A8                       A:00 X:FF Y:00 P:26 SP:FF CYC:15494
C7A8  AD 02 20  LDA $2002 = 00                  A:00 X:FF Y:00 P:26 SP:FF CYC:15497
C7AB  29 80     AND #$80                        A:00 X:FF Y:00 P:26 SP:FF CYC:15501
C7AD  F0 F9     BEQ $C7A8                       A:00 X:FF Y:00 P:26 SP:FF CYC:15503
C7A8  AD 02 20  LDA $2002 = 00                  A:00 X:FF Y:00 P:26 SP:FF CYC:15506
C7AB  29 80     AND #$80                        A:00 X:FF Y:00 P:26 SP:FF CYC:15510
C7AD  F0 F9     BEQ $C7A8                       A:00 X:FF Y:00 P:26 SP:FF CYC:15512
C7A8  AD 02 20  LDA $2002 = 00                  A:00 X:FF Y:00 P:26 SP:FF CYC:15515
C7AB  29 80     AND #$80                        A:00 X:FF Y:00 P:26 SP:FF CYC:15519
C7AD  F0 F9     BEQ $C7A8                       A:00 X:FF Y:00 P:26 SP:FF CYC:15521
C7A8  AD 02 20  LDA $2002 = 00                  A:00 X:FF Y:00 P:26 SP:FF CYC:15524
C7AB  29 80     AND #$80                        A:00 X:FF Y:00 P:26 SP:FF CYC:15528
C7AD  F0 F9     BEQ $C7A8                       A:00 X:FF Y:00 P:26 SP:FF CYC:15530
C7A8  AD 02 20  LDA $2002 = 00                  A:00 X:FF Y:00 P:26 SP:FF CYC:15533
C7AB  29 80     AND #$80                        A:00 X:FF Y:00 P:26 SP:FF CYC:15537
C7AD  F0 F9     BEQ $C7A8                       A:00 X:FF Y:00 P:26 SP:FF CYC:15539
C7A8  AD 02 20  LDA $2002 = 00                  A:00 X:FF Y:00 P:26 SP:FF CYC:15542
C7AB  29 80     AND #$80                        A:00 X:FF Y:00 P:26 SP:FF CYC:15546
C7AD  F0 F9     BEQ $C7A8                       A:00 X:FF Y:00 P:26 SP:FF CYC:15548
C7A8  AD 02 20  LDA $2002 = 00                  A:00 X:FF Y:00 P:26 SP:FF CYC:15551
C7AB  29 80     AND #$80                        A:00 X:FF Y:00 P:26 SP:FF CYC:15555
C7AD  F0 F9     BEQ $C7A8                       A:00 X:FF Y:00 P:26 SP:FF CYC:15557
C7A8  AD 02 20  LDA $2002 = 00                  A:00 X:FF Y:00 P:26 SP:FF CYC:15560
C7AB  29 80     AND #$80                        A:00 X:FF Y:00 P:26 SP:FF CYC:15564
C7AD  F0 F9     BEQ $C7A8                       A:00 X:FF Y:00 P:26 SP:FF CYC:15566
C7A8  AD 02 20  LDA $2002 = 00                  A:00 X:FF Y:00 P:26 SP:FF CYC:15569
C7AB  29 80     AND #$80                        A:00 X:FF Y:00 P:26 SP:FF CYC:15573
C7AD  F0 F9     BEQ $C7A8                       A:00 X:FF Y:00 P:26 SP:FF CYC:15575
C7A8  AD 02 20  LDA $2002 = 00                  A:00 X:FF Y:00 P:26 SP:FF CYC:15578
C7AB  29 80     AND #$80                        A:00 X:FF Y:00 P:26 SP:FF CYC:15582
C7AD  F0 F9     BEQ $C7A8                       A:00 X:FF Y:00 P:26 SP:FF CYC:15584
C7A8  AD 02 20  LDA $2002 = 00                  A:00 X:FF Y:00 P:26 SP:FF CYC:15587
C7AB  29 80     AND #$80                        A:00 X:FF Y:00 P:26 SP:FF CYC:15591
C7AD  F0 F9     BEQ $C7A8                       A:00 X:FF Y:00 P:26 SP:FF CYC:15593
C7A8  AD 02 20  LDA $2002 = 00                  A:00 X:FF Y:00 P:26 SP:FF CYC:15596
C7AB  29 80     AND #$80                        A:00 X:FF Y:00 P:26 SP:FF CYC:15600
C7AD  F0 F9     BEQ $C7A8                       A:00 X:FF Y:00 P:26 SP:FF CYC:15602
C7A8  AD 02 20  LDA $2002 = 00                  A:00 X:FF Y:00 P:26 SP:FF CYC:15605
C7AB  29 80     AND #$80                        A:00 X:FF Y:00 P:26 SP:FF CYC:15609
C7AD  F0 F9     BEQ $C7A8                       A:00 X:FF Y:00 P:26 SP:FF CYC:15611
C7A8  AD 02 20  LDA $2002 = 00                  A:00 X:FF Y:00 P:26 SP:FF CYC:15614
C7AB  29 80     AND #$80                        A:00 X:FF Y:00 P:26 SP:FF CYC:15618
C7AD  F0 F9     BEQ $C7A8                       A:00 X:FF Y:00 P:26 SP:FF CYC:15620
C7A8  AD 02 20  LDA $2002 = 00                  A:00 X:FF Y:00 P:26 SP:FF CYC:15623
C7AB  29 80     AND #$80                        A:00 X:FF Y:00 P:26 SP:FF CYC:15627
C7AD  F0 F9     BEQ $C7A8                       A:00 X:FF Y:00 P:26 SP:FF CYC:15629
C7A8  AD 02 20  LDA $2002 = 00                  A:00 X:FF Y:00 P:26 SP:FF CYC:15632
C7AB  29 80     AND #$80                        A:00 X:FF Y:00 P:26 SP:FF CYC:15636
C7AD  F0 F9     BEQ $C7A8                       A:00 X:FF Y:00 P:26 SP:FF CYC:15638
C7A8  AD 02 20  LDA $2002 = 00                  A:00 X:FF Y:00 P:26 SP:FF CYC:15641
C7AB  29 80     AND #$80                        A:00 X:FF Y:00 P:26 SP:FF CYC:15645
C7AD  F0 F9     BEQ $C7A8                       A:00 X:FF Y:00 P:26 SP:FF CYC:15647
C7A8  AD 02 20  LDA $2002 = 00                  A:00 X:FF Y:00 P:26 SP:FF CYC:15650
C7AB  29 80     AND #$80                        A:00 X:FF Y:00 P:26 SP:FF CYC:15654
C7AD  F0 F9     BEQ $C7A8                       A:00 X:FF Y:00 P:26 SP:FF CYC:15656
C7A8  AD 02 20  LDA $2002 = 00                  A:00 X:FF Y:00 P:26 SP:FF CYC:15659
C7AB  29 80     AND #$80                        A:00 X:FF Y:00 P:26 SP:FF CYC:15663
C7AD  F0 F9     BEQ $C7A8                       A:00 X:FF Y:00 P:26 SP:FF CYC:15665
C7A8  AD 02 20  LDA $2002 = 00                  A:00 X:FF Y:00 P:26 SP:FF CYC:15668
C7AB  29 80     AND #$80                        A:00 X:FF Y:00 P:26 SP:FF CYC:15672
C7AD  F0 F9     BEQ $C7A8                       A:00 X:FF Y:00 P:26 SP:FF CYC:15674
C7A8  AD 02 20  LDA $2002 = 00                  A:00 X:FF Y:00 P:26 SP:FF CYC:15677
C7AB  29 80     AND #$80                        A:00 X:FF Y:00 P:26 SP:FF CYC:15681
C7AD  F0 F9     BEQ $C7A8                       A:00 X:FF Y:00 P:26 SP:FF CYC:15683
C7A8  AD 02 20  LDA $2002 = 00                  A:00 X:FF Y:00 P:26 SP:FF CYC:15686
C7AB  29 80     AND #$80                        A:00 X:FF Y:00 P:26 SP:FF CYC:15690
C7AD  F0 F9     BEQ $C7A8                       A:00 X:FF Y:00 P:26 SP:FF CYC:15692
C7A8  AD 02 20  LDA $2002 = 00                  A:00 X:FF Y:00 P:26 SP:FF CYC:15695
C7AB  29 80     AND #$80                        A:00 X:FF Y:00 P:26 SP:FF CYC:15699
C7AD  F0 F9     BEQ $C7A8                       A:00 X:FF Y:00 P:26 SP:FF CYC:15701
C7A8  AD 02 20  LDA $2002 = 00                  A:00 X:FF Y:00 P:26 SP:FF CYC:15704
C7AB  29 80     AND #$80                        A:00 X:FF Y:00 P:26 SP:FF CYC:15708
C7AD  F0 F9     BEQ $C7A8                       A:00 X:FF Y:00 P:26 SP:FF CYC:15710
C7A8  AD 02 20  LDA $2002 = 00                  A:00 X:FF Y:00 P:26 SP:FF CYC:15713
C7AB  29 80     AND #$80                        A:00 X:FF Y:00 P:26 SP:FF CYC:15717
C7AD  F0 F9     BEQ $C7A8                       A:00 X:FF Y:00 P:26 SP:FF CYC:15719
C7A8  AD 02 20  LDA $2002 = 00                  A:00 X:FF Y:00 P:26 SP:FF CYC:15722
C7AB  29 80     AND #$80                        A:00 X:FF Y:00 P:26 SP:FF CYC:15726
C7AD  F0 F9     BEQ $C7A8                       A:00 X:FF Y:00 P:26 SP:FF CYC:15728
C7A8  AD 02 20  LDA $2002 = 00                  A:00 X:FF Y:00 P:26 SP:FF CYC:15731
C7AB  29 80     AND #$80                        A:00 X:FF Y:00 P:26 SP:FF CYC:15735
C7AD  F0 F9     BEQ $C7A8                       A:00 X:FF Y:00 P:26 SP:FF CYC:15737
C7A8  AD 02 20  LDA $2002 = 00                  A:00 X:FF Y:00 P:26 SP:FF CYC:15740
C7AB  29 80     AND #$80                        A:00 X:FF Y:00 P:26 SP:FF CYC:15744
C7AD  F0 F9     BEQ $C7A8                       A:00 X:FF Y:00 P:26 SP:FF CYC:15746
C7A8  AD 02 20  LDA $2002 = 00                  A:00 X:FF Y:00 P:26 SP:FF CYC:15749
C7AB  29 80     AND #$80                        A:00 X:FF Y:00 P:26 SP:FF CYC:15753
C7AD  F0 F9     BEQ $C7A8                       A:00 X:FF Y:00 P:26 SP:FF CYC:15755
C7A8  AD 02 20  LDA $2002 = 00                  A:00 X:FF Y:00 P:26 SP:FF CYC:15758
C7AB  29 80     AND #$80                        A:00 X:FF Y:00 P:26 SP:FF CYC:15762
C7AD  F0 F9     BEQ $C7A8                       A:00 X:FF Y:00 P:26 SP:FF CYC:15764
C7A8  AD 02 20  LDA $2002 = 00                  A:00 X:FF Y:00 P:26 SP:FF CYC:15767
C7AB  29 80     AND #$80                        A:00 X:FF Y:00 P:26 SP:FF CYC:15771
C7AD  F0 F9     BEQ $C7A8                       A:00 X:FF Y:00 P:26 SP:FF CYC:15773
C7A8  AD 02 20  LDA $2002 = 00                  A:00 X:FF Y:00 P:26 SP:FF CYC:15776
C7AB  29 80     AND #$80                        A:00 X:FF Y:00 P:26 SP:FF CYC:15780
C7AD  F0 F9     BEQ $C7A8                       A:00 X:FF Y:00 P:26 SP:FF CYC:15782
C7A8  AD 02 20  LDA $2002 = 00                  A:00 X:FF Y:00 P:26 SP:FF CYC:15785
C7AB  29 80     AND #$80                        A:00 X:FF Y:00 P:26 SP:FF CYC:15789
C7AD  F0 F9     BEQ $C7A8                       A:00 X:FF Y:00 P:26 SP:FF CYC:15791
C7A8  AD 02 20  LDA $2002 = 00                  A:00 X:FF Y:00 P:26 SP:FF CYC:15794
C7AB  29 80     AND #$80                        A:00 X:FF Y:00 P:26 SP:FF CYC:15798
C7AD  F0 F9     BEQ $C7A8                       A:00 X:FF Y:00 P:26 SP:FF CYC:15800
C7A8  AD 02 20  LDA $2002 = 00                  A:00 X:FF Y:00 P:26 SP:FF CYC:15803
C7AB  29 80     AND #$80                        A:00 X:FF Y:00 P:26 SP:FF CYC:15807
C7AD  F0 F9     BEQ $C7A8                       A:00 X:FF Y:00 P:26 SP:FF CYC:15809
C7A8  AD 02 20  LDA $2002 = 00                  A:00 X:FF Y:00 P:26 SP:FF CYC:15812
C7AB  29 80     AND #$80                        A:00 X:FF Y:00 P:26 SP:FF CYC:15816
C7AD  F0 F9     BEQ $C7A8                       A:00 X:FF Y:00 P:26 SP:FF CYC:15818
C7A8  AD 02 20  LDA $2002 = 00                  A:00 X:FF Y:00 P:26 SP:FF CYC:15821
C7AB  29 80     AND #$80                        A:00 X:FF Y:00 P:26 SP:FF CYC:15825
C7AD  F0 F9     BEQ $C7A8                       A:00 X:FF Y:00 P:26 SP:FF CYC:15827
C7A8  AD 02 20  LDA $2002 = 00                  A:00 X:FF Y:00 P:26 SP:FF CYC:15830
C7AB  29 80     AND #$80                        A:00 X:FF Y:00 P:26 SP:FF CYC:15834
C7AD  F0 F9     BEQ $C7A8                       A:00 X:FF Y:00 P:26 SP:FF CYC:15836
C7A8  AD 02 20  LDA $2002 = 00                  A:00 X:FF Y:00 P:26 SP:FF CYC:15839
C7AB  29 80     AND #$80                        A:00 X:FF Y:00 P:26 SP:FF CYC:15843
C7AD  F0 F9     BEQ $C7A8                       A:00 X:FF Y:00 P:26 SP:FF CYC:15845
C7A8  AD 02 20  LDA $2002 = 00                  A:00 X:FF Y:00 P:26 SP:FF CYC:15848
C7AB  29 80     AND #$80                        A:00 X:FF Y:00 P:26 SP:FF CYC:15852
C7AD  F0 F9     BEQ $C7A8                       A:00 X:FF Y:00 P:26 SP:FF CYC:15854
C7A8  AD 02 20  LDA $2002 = 00                  A:00 X:FF Y:00 P:26 SP:FF CYC:15857
C7AB  29 80     AND #$80                        A:00 X:FF Y:00 P:26 SP:FF CYC:15861
C7AD  F0 F9     BEQ $C7A8                       A:00 X:FF Y:00 P:26 SP:FF CYC:15863
C7A8  AD 02 20  LDA $2002 = 00                  A:00 X:FF Y:00 P:26 SP:FF CYC:15866
C7AB  29 80     AND #$80                        A:00 X:FF Y:00 P:26 SP:FF CYC:15870
C7AD  F0 F9     BEQ $C7A8                       A:00 X:FF Y:00 P:26 SP:FF CYC:15872
C7A8  AD 02 20  LDA $2002 = 00                  A:00 X:FF Y:00 P:26 SP:FF CYC:15875
C7AB  29 80     AND #$80                        A:00 X:FF Y:00 P:26 SP:FF CYC:15879
C7AD  F0 F9     BEQ $C7A8                       A:00 X:FF Y:00 P:26 SP:FF CYC:15881
C7A8  AD 02 20  LDA $2002 = 00                  A:00 X:FF Y:00 P:26 SP:FF CYC:15884
C7AB  29 80     AND #$80                        A:00 X:FF Y:00 P:26 SP:FF CYC:15888
C7AD  F0 F9     BEQ $C7A8                       A:00 X:FF Y:00 P:26 SP:FF CYC:15890
C7A8  AD 02 20  LDA $2002 = 00                  A:00 X:FF Y:00 P:26 SP:FF CYC:15893
C7AB  29 80     AND #$80                        A:00 X:FF Y:00 P:26 SP:FF CYC:15897
C7AD  F0 F9     BEQ $C7A8                       A:00 X:FF Y:00 P:26 SP:FF CYC:15899
C7A8  AD 02 20  LDA $2002 = 00                  A:00 X:FF Y:00 P:26 SP:FF CYC:15902
C7AB  29 80     AND #$80                        A:00 X:FF Y:00 P:26 SP:FF CYC:15906
C7AD  F0 F9     BEQ $C7A8                       A:00 X:FF Y:00 P:26 SP:FF CYC:15908
C7A8  AD 02 20  LDA $2002 = 00                  A:00 X:FF Y:00 P:26 SP:FF CYC:15911
C7AB  29 80     AND #$80                        A:00 X:FF Y:00 P:26 SP:FF CYC:15915
C7AD  F0 F9     BEQ $C7A8                       A:00 X:FF Y:00 P:26 SP:FF CYC:15917
C7A8  AD 02 20  LDA $2002 = 00                  A:00 X:FF Y:00 P:26 SP:FF CYC:15920
C7AB  29 80     AND #$80                        A:00 X:FF Y:00 P:26 SP:FF CYC:15924
C7AD  F0 F9     BEQ $C7A8                       A:00 X:FF Y:00 P:26 SP:FF CYC:15926
C7A8  AD 02 20  LDA $2002 = 00                  A:00 X:FF Y:00 P:26 SP:FF CYC:15929
C7AB  29 80     AND #$80                        A:00 X:FF Y:00 P:26 SP:FF CYC:15933
C7AD  F0 F9     BEQ $C7A8                       A:00 X:FF Y:00 P:26 SP:FF CYC:15935
C7A8  AD 02 20  LDA $2002 = 00                  A:00 X:FF Y:00 P:26 SP:FF CYC:15938
C7AB  29 80     AND #$80                        A:00 X:FF Y:00 P:26 SP:FF CYC:15942
C7AD  F0 F9     BEQ $C7A8                       A:00 X:FF Y:00 P:26 SP:FF CYC:15944
C7A8  AD 02 20  LDA $2002 = 00                  A:00 X:FF Y:00 P:26 SP:FF CYC:15947
C7AB  29 80     AND #$80                        A:00 X:FF Y:00 P:26 SP:FF CYC:15951
C7AD  F0 F9     BEQ $C7A8                       A:00 X:FF Y:00 P:26 SP:FF CYC:15953
C7A8  AD 02 20  LDA $2002 = 00                  A:00 X:FF Y:00 P:26 SP:FF CYC:15956
C7AB  29 80     AND #$80                        A:00 X:FF Y:00 P:26 SP:FF CYC:15960
C7AD  F0 F9     BEQ $C7A8                       A:00 X:FF Y:00 P:26 SP:FF CYC:15962
C7A8  AD 02 20  LDA $2002 = 00                  A:00 X:FF Y:00 P:26 SP:FF CYC:15965
C7AB  29 80     AND #$80                        A:00 X:FF Y:00 P:26 SP:FF CYC:15969
C7AD  F0 F9     BEQ $C7A8                       A:00 X:FF Y:00 P:26 SP:FF CYC:15971
C7A8  AD 02 20  LDA $2002 = 00                  A:00 X:FF Y:00 P:26 SP:FF CYC:15974
C7AB  29 80     AND #$80                        A:00 X:FF Y:00 P:26 SP:FF CYC:15978
C7AD  F0 F9     BEQ $C7A8                       A:00 X:FF Y:00 P:26 SP:FF CYC:15980
C7A8  AD 02 20  LDA $2002 = 00                  A:00 X:FF Y:00 P:26 SP:FF CYC:15983
C7AB  29 80     AND #$80                        A:00 X:FF Y:00 P:26 SP:FF CYC:15987
C7AD  F0 F9     BEQ $C7A8                       A:00 X:FF Y:00 P:26 SP:FF CYC:15989
C7A8  AD 02 20  LDA $2002 = 00                  A:00 X:FF Y:00 P:26 SP:FF CYC:15992
C7AB  29 80     AND #$80                        A:00 X:FF Y:00 P:26 SP:FF CYC:15996
C7AD  F0 F9     BEQ $C7A8                       A:00 X:FF Y:00 P:26 SP:FF CYC:15998
C7A8  AD 02 20  LDA $2002 = 00                  A:00 X:FF Y:00 P:26 SP:FF CYC:16001
C7AB  29 80     AND #$80                        A:00 X:FF Y:00 P:26 SP:FF CYC:16005
C7AD  F0 F9     BEQ $C7A8                       A:00 X:FF Y:00 P:26 SP:FF CYC:16007
C7A8  AD 02 20  LDA $2002 = 00                  A:00 X:FF Y:00 P:26 SP:FF CYC:16010
C7AB  29 80     AND #$80                        A:00 X:FF Y:00 P:26 SP:FF CYC:16014
C7AD  F0 F9     BEQ $C7A8                       A:00 X:FF Y:00 P:26 SP:FF CYC:16016
C7A8  AD 02 20  LDA $2002 = 00                  A:00 X:FF Y:00 P:26 SP:FF CYC:16019
C7AB  29 80     AND #$80                        A:00 X:FF Y:00 P:26 SP:FF CYC:16023
C7AD  F0 F9     BEQ $C7A8                       A:00 X:FF Y:00 P:26 SP:FF CYC:16025
C7A8  AD 02 20  LDA $2002 = 00                  A:00 X:FF Y:00 P:26 SP:FF CYC:16028
C7AB  29 80     AND #$80                        A:00 X:FF Y:00 P:26 SP:FF CYC:16032
C7AD  F0 F9     BEQ $C7A8                       A:00 X:FF Y:00 P:26 SP:FF CYC:16034
C7A8  AD 02 20  LDA $2002 = 00                  A:00 X:FF Y:00 P:26 SP:FF CYC:16037
C7AB  29 80     AND #$80                        A:00 X:FF Y:00 P:26 SP:FF CYC:16041
C7AD  F0 F9     BEQ $C7A8                       A:00 X:FF Y:00 P:26 SP:FF CYC:16043
C7A8  AD 02 20  LDA $2002 = 00                  A:00 X:FF Y:00 P:26 SP:FF CYC:16046
C7AB  29 80     AND #$80                        A:00 X:FF Y:00 P:26 SP:FF CYC:16050
C7AD  F0 F9     BEQ $C7A8                       A:00 X:FF Y:00 P:26 SP:FF CYC:16052
C7A8  AD 02 20  LDA $2002 = 00                  A:00 X:FF Y:00 P:26 SP:FF CYC:16055
C7AB  29 80     AND #$80                        A:00 X:FF Y:00 P:26 SP:FF CYC:16059
C7AD  F0 F9     BEQ $C7A8                       A:00 X:FF Y:00 P:26 SP:FF CYC:16061
C7A8  AD 02 20  LDA $2002 = 00                  A:00 X:FF Y:00 P:26 SP:FF CYC:16064
C7AB  29 80     AND #$80                        A:00 X:FF Y:00 P:26 SP:FF CYC:16068
C7AD  F0 F9     BEQ $C7A8                       A:00 X:FF Y:00 P:26 SP:FF CYC:16070
C7A8  AD 02 20  LDA $2002 = 00                  A:00 X:FF Y:00 P:26 SP:FF CYC:16073
C7AB  29 80     AND #$80                        A:00 X:FF Y:00 P:26 SP:FF CYC:16077
C7AD  F0 F9     BEQ $C7A8                       A:00 X:FF Y:00 P:26 SP:FF CYC:16079
C7A8  AD 02 20  LDA $2002 = 00                  A:00 X:FF Y:00 P:26 SP:FF CYC:16082
C7AB  29 80     AND #$80                        A:00 X:FF Y:00 P:26 SP:FF CYC:16086
C7AD  F0 F9     BEQ $C7A8                       A:00 X:FF Y:00 P:26 SP:FF CYC:16088
C7A8  AD 02 20  LDA $2002 = 00                  A:00 X:FF Y:00 P:26 SP:FF CYC:16091
C7AB  29 80     AND #$80                        A:00 X:FF Y:00 P:26 SP:FF CYC:16095
C7AD  F0 F9     BEQ $C7A8                       A:00 X:FF Y:00 P:26 SP:FF CYC:16097
C7A8  AD 02 20  LDA $2002 = 00                  A:00 X:FF Y:00 P:26 SP:FF CYC:16100
C7AB  29 80     AND #$80                        A:00 X:FF Y:00 P:26 SP:FF CYC:16104
C7AD  F0 F9     BEQ $C7A8                       A:00 X:FF Y:00 P:26 SP:FF CYC:16106
C7A8  AD 02 20  LDA $2002 = 00                  A:00 X:FF Y:00 P:26 SP:FF CYC:16109
C7AB  29 80     AND #$80                        A:00 X:FF Y:00 P:26 SP:FF CYC:16113
C7AD  F0 F9     BEQ $C7A8                       A:00 X:FF Y:00 P:26 SP:FF CYC:16115
C7A8  AD 02 20  LDA $2002 = 00                  A:00 X:FF Y:00 P:26 SP:FF CYC:16118
C7AB  29 80     AND #$80                        A:00 X:FF Y:00 P:26 SP:FF CYC:16122
C7AD  F0 F9     BEQ $C7A8                       A:00 X:FF Y:00 P:26 SP:FF CYC:16124
C7A8  AD 02 20  LDA $2002 = 00                  A:00 X:FF Y:00 P:26 SP:FF CYC:16127
C7AB  29 80     AND #$80                        A:00 X:FF Y:00 P:26 SP:FF CYC:16131
C7AD  F0 F9     BEQ $C7A8                       A:00 X:FF Y:00 P:26 SP:FF CYC:16133
C7A8  AD 02 20  LDA $2002 = 00                  A:00 X:FF Y:00 P:26 SP:FF CYC:16136
C7AB  29 80     AND #$80                        A:00 X:FF Y:00 P:26 SP:FF CYC:16140
C7AD  F0 F9     BEQ $C7A8                       A:00 X:FF Y:00 P:26 SP:FF CYC:16142
C7A8  AD 02 20  LDA $2002 = 00                  A:00 X:FF Y:00 P:26 SP:FF CYC:16145
C7AB  29 80     AND #$80                        A:00 X:FF Y:00 P:26 SP:FF CYC:16149
C7AD  F0 F9     BEQ $C7A8                       A:00 X:FF Y:00 P:26 SP:FF CYC:16151
C7A8  AD 02 20  LDA $2002 = 00                  A:00 X:FF Y:00 P:26 SP:FF CYC:16154
C7AB  29 80     AND #$80                        A:00 X:FF Y:00 P:26 SP:FF CYC:16158
C7AD  F0 F9     BEQ $C7A8                       A:00 X:FF Y:00 P:26 SP:FF CYC:16160
C7A8  AD 02 20  LDA $2002 = 00                  A:00 X:FF Y:00 P:26 SP:FF CYC:16163
C7AB  29 80     AND #$80                        A:00 X:FF Y:00 P:26 SP:FF CYC:16167
C7AD  F0 F9     BEQ $C7A8                       A:00 X:FF Y:00 P:26 SP:FF CYC:16169
C7A8  AD 02 20  LDA $2002 = 00                  A:00 X:FF Y:00 P:26 SP:FF CYC:16172
C7AB  29 80     AND #$80                        A:00 X:FF Y:00 P:26 SP:FF CYC:16176
C7AD  F0 F9     BEQ $C7A8                       A:00 X:FF Y:00 P:26 SP:FF CYC:16178
C7A8  AD 02 20  LDA $2002 = 00                  A:00 X:FF Y:00 P:26 SP:FF CYC:16181
C7AB  29 80     AND #$80                        A:00 X:FF Y:00 P:26 SP:FF CYC:16185
C7AD  F0 F9     BEQ $C7A8                       A:00 X:FF Y:00 P:26 SP:FF CYC:16187
C7A8  AD 02 20  LDA $2002 = 00                  A:00 X:FF Y:00 P:26 SP:FF CYC:16190
C7AB  29 80     AND #$80                        A:00 X:FF Y:00 P:26 SP:FF CYC:16194
C7AD  F0 F9     BEQ $C7A8                       A:00 X:FF Y:00 P:26 SP:FF CYC:16196
C7A8  AD 02 20  LDA $2002 = 00                  A:00 X:FF Y:00 P:26 SP:FF CYC:16199
C7AB  29 80     AND #$80                        A:00 X:FF Y:00 P:26 SP:FF CYC:16203
C7AD  F0 F9     BEQ $C7A8                       A:00 X:FF Y:00 P:26 SP:FF CYC:16205
C7A8  AD 02 20  LDA $2002 = 00                  A:00 X:FF Y:00 P:26 SP:FF CYC:16208
C7AB  29 80     AND #$80                        A:00 X:FF Y:00 P:26 SP:FF CYC:16212
C7AD  F0 F9     BEQ $C7A8                       A:00 X:FF Y:00 P:26 SP:FF CYC:16214
C7A8  AD 02 20  LDA $2002 = 00                  A:00 X:FF Y:00 P:26 SP:FF CYC:16217
C7AB  29 80     AND #$80                        A:00 X:FF Y:00 P:26 SP:FF CYC:16221
C7AD  F0 F9     BEQ $C7A8                       A:00 X:FF Y:00 P:26 SP:FF CYC:16223
C7A8  AD 02 20  LDA $2002 = 00                  A:00 X:FF Y:00 P:26 SP:FF CYC:16226
C7AB  29 80     AND #$80                        A:00 X:FF Y:00 P:26 SP:FF CYC:16230
C7AD  F0 F9     BEQ $C7A8                       A:00 X:FF Y:00 P:26 SP:FF CYC:16232
C7A8  AD 02 20  LDA $2002 = 00                  A:00 X:FF Y:00 P:26 SP:FF CYC:16235
C7AB  29 80     AND #$80                        A:00 X:FF Y:00 P:26 SP:FF CYC:16239
C7AD  F0 F9     BEQ $C7A8                       A:00 X:FF Y:00 P:26 SP:FF CYC:16241
C7A8  AD 02 20  LDA $2002 = 00                  A:00 X:FF Y:00 P:26 SP:FF CYC:16244
C7AB  29 80     AND #$80                        A:00 X:FF Y:00 P:26 SP:FF CYC:16248
C7AD  F0 F9     BEQ $C7A8                       A:00 X:FF Y:00 P:26 SP:FF CYC:16250
C7A8  AD 02 20  LDA $2002 = 00                  A:00 X:FF Y:00 P:26 SP:FF CYC:16253
C7AB  29 80     AND #$80                        A:00 X:FF Y:00 P:26 SP:FF CYC:16257
C7AD  F0 F9     BEQ $C7A8                       A:00 X:FF Y:00 P:26 SP:FF CYC:16259
C7A8  AD 02 20  LDA $2002 = 00                  A:00 X:FF Y:00 P:26 SP:FF CYC:16262
C7AB  29 80     AND #$80                        A:00 X:FF Y:00 P:26 SP:FF CYC:16266
C7AD  F0 F9     BEQ $C7A8                       A:00 X:FF Y:00 P:26 SP:FF CYC:16268
C7A8  AD 02 20  LDA $2002 = 00                  A:00 X:FF Y:00 P:26 SP:FF CYC:16271
C7AB  29 80     AND #$80                        A:00 X:FF Y:00 P:26 SP:FF CYC:16275
C7AD  F0 F9     BEQ $C7A8                       A:00 X:FF Y:00 P:26 SP:FF CYC:16277
C7A8  AD 02 20  LDA $2002 = 00                  A:00 X:FF Y:00 P:26 SP:FF CYC:16280
C7AB  29 80     AND #$80                        A:00 X:FF Y:00 P:26 SP:FF CYC:16284
C7AD  F0 F9     BEQ $C7A8                       A:00 X:FF Y:00 P:26 SP:FF CYC:16286
C7A8  AD 02 20  LDA $2002 = 00                  A:00 X:FF Y:00 P:26 SP:FF CYC:16289
C7AB  29 80     AND #$80                        A:00 X:FF Y:00 P:26 SP:FF CYC:16293
C7AD  F0 F9     BEQ $C7A8                       A:00 X:FF Y:00 P:26 SP:FF CYC:16295
C7A8  AD 02 20  LDA $2002 = 00                  A:00 X:FF Y:00 P:26 SP:FF CYC:16298
C7AB  29 80     AND #$80                        A:00 X:FF Y:00 P:26 SP:FF CYC:16302
C7AD  F0 F9     BEQ $C7A8                       A:00 X:FF Y:00 P:26 SP:FF CYC:16304
C7A8  AD 02 20  LDA $2002 = 00                  A:00 X:FF Y:00 P:26 SP:FF CYC:16307
C7AB  29 80     AND #$80                        A:00 X:FF Y:00 P:26 SP:FF CYC:16311
C7AD  F0 F9     BEQ $C7A8                       A:00 X:FF Y:00 P:26 SP:FF CYC:16313
C7A8  AD 02 20  LDA $2002 = 00                  A:00 X:FF Y:00 P:26 SP:FF CYC:16316
C7AB  29 80     AND #$80                        A:00 X:FF Y:00 P:26 SP:FF CYC:16320
C7AD  F0 F9     BEQ $C7A8                       A:00 X:FF Y:00 P:26 SP:FF CYC:16322
C7A8  AD 02 20  LDA $2002 = 00                  A:00 X:FF Y:00 P:26 SP:FF CYC:16325
C7AB  29 80     AND #$80                        A:00 X:FF Y:00 P:26 SP:FF CYC:16329
C7AD  F0 F9     BEQ $C7A8                       A:00 X:FF Y:00 P:26 SP:FF CYC:16331
C7A8  AD 02 20  LDA $2002 = 00                  A:00 X:FF Y:00 P:26 SP:FF CYC:16334
C7AB  29 80     AND #$80                        A:00 X:FF Y:00 P:26 SP:FF CYC:16338
C7AD  F0 F9     BEQ $C7A8                       A:00 X:FF Y:00 P:26 SP:FF CYC:16340
C7A8  AD 02 20  LDA $2002 = 00                  A:00 X:FF Y:00 P:26 SP:FF CYC:16343
C7AB  29 80     AND #$80                        A:00 X:FF Y:00 P:26 SP:FF CYC:16347
C7AD  F0 F9     BEQ $C7A8                       A:00 X:FF Y:00 P:26 SP:FF CYC:16349
C7A8  AD 02 20  LDA $2002 = 00                  A:00 X:FF Y:00 P:26 SP:FF CYC:16352
C7AB  29 80     AND #$80                        A:00 X:FF Y:00 P:26 SP:FF CYC:16356
C7AD  F0 F9     BEQ $C7A8                       A:00 X:FF Y:00 P:26 SP:FF CYC:16358
C7A8  AD 02 20  LDA $2002 = 00                  A:00 X:FF Y:00 P:26 SP:FF CYC:16361
C7AB  29 80     AND #$80                        A:00 X:FF Y:00 P:26 SP:FF CYC:16365
C7AD  F0 F9     BEQ $C7A8                       A:00 X:FF Y:00 P:26 SP:FF CYC:16367
C7A8  AD 02 20  LDA $2002 = 00                  A:00 X:FF Y:00 P:26 SP:FF CYC:16370
C7AB  29 80     AND #$80                        A:00 X:FF Y:00 P:26 SP:FF CYC:16374
C7AD  F0 F9     BEQ $C7A8                       A:00 X:FF Y:00 P:26 SP:FF CYC:16376
C7A8  AD 02 20  LDA $2002 = 00                  A:00 X:FF Y:00 P:26 SP:FF CYC:16379
C7AB  29 80     AND #$80                        A:00 X:FF Y:00 P:26 SP:FF CYC:16383
C7AD  F0 F9     BEQ $C7A8                       A:00 X:FF Y:00 P:26 SP:FF CYC:16385
C7A8  AD 02 20  LDA $2002 = 00                  A:00 X:FF Y:00 P:26 SP:FF CYC:16388
C7AB  29 80     AND #$80                        A:00 X:FF Y:00 P:26 SP:FF CYC:16392
C7AD  F0 F9     BEQ $C7A8                       A:00 X:FF Y:00 P:26 SP:FF CYC:16394
C7A8  AD 02 20  LDA $2002 = 00                  A:00 X:FF Y:00 P:26 SP:FF CYC:16397
C7AB  29 80     AND #$80                        A:00 X:FF Y:00 P:26 SP:FF CYC:16401
C7AD  F0 F9     BEQ $C7A8                       A:00 X:FF Y:00 P:26 SP:FF CYC:16403
C7A8  AD 02 20  LDA $2002 = 00                  A:00 X:FF Y:00 P:26 SP:FF CYC:16406
C7AB  29 80     AND #$80                        A:00 X:FF Y:00 P:26 SP:FF CYC:16410
C7AD  F0 F9     BEQ $C7A8                       A:00 X:FF Y:00 P:26 SP:FF CYC:16412
C7A8  AD 02 20  LDA $2002 = 00                  A:00 X:FF Y:00 P:26 SP:FF CYC:16415
C7AB  29 80     AND #$80                        A:00 X:FF Y:00 P:26 SP:FF CYC:16419
C7AD  F0 F9     BEQ $C7A8                       A:00 X:FF Y:00 P:26 SP:FF CYC:16421
C7A8  AD 02 20  LDA $2002 = 00                  A:00 X:FF Y:00 P:26 SP:FF CYC:16424
C7AB  29 80     AND #$80                        A:00 X:FF Y:00 P:26 SP:FF CYC:16428
C7AD  F0 F9     BEQ $C7A8                       A:00 X:FF Y:00 P:26 SP:FF CYC:16430
C7A8  AD 02 20  LDA $2002 = 00                  A:00 X:FF Y:00 P:26 SP:FF CYC:16433
C7AB  29 80     AND #$80                        A:00 X:FF Y:00 P:26 SP:FF CYC:16437
C7AD  F0 F9     BEQ $C7A8                       A:00 X:FF Y:00 P:26 SP:FF CYC:16439
C7A8  AD 02 20  LDA $2002 = 00                  A:00 X:FF Y:00 P:26 SP:FF CYC:16442
C7AB  29 80     AND #$80                        A:00 X:FF Y:00 P:26 SP:FF CYC:16446
C7AD  F0 F9     BEQ $C7A8                       A:00 X:FF Y:00 P:26 SP:FF CYC:16448
C7A8  AD 02 20  LDA $2002 = 00                  A:00 X:FF Y:00 P:26 SP:FF CYC:16451
C7AB  29 80     AND #$80                        A:00 X:FF Y:00 P:26 SP:FF CYC:16455
C7AD  F0 F9     BEQ $C7A8                       A:00 X:FF Y:00 P:26 SP:FF CYC:16457
C7A8  AD 02 20  LDA $2002 = 00                  A:00 X:FF Y:00 P:26 SP:FF CYC:16460
C7AB  29 80     AND #$80                        A:00 X:FF Y:00 P:26 SP:FF CYC:16464
C7AD  F0 F9     BEQ $C7A8                       A:00 X:FF Y:00 P:26 SP:FF CYC:16466
C7A8  AD 02 20  LDA $2002 = 00                  A:00 X:FF Y:00 P:26 SP:FF CYC:16469
C7AB  29 80     AND #$80                        A:00 X:FF Y:00 P:26 SP:FF CYC:16473
C7AD  F0 F9     BEQ $C7A8                       A:00 X:FF Y:00 P:26 SP:FF CYC:16475
C7A8  AD 02 20  LDA $2002 = 00                  A:00 X:FF Y:00 P:26 SP:FF CYC:16478
C7AB  29 80     AND #$80                        A:00 X:FF Y:00 P:26 SP:FF CYC:16482
C7AD  F0 F9     BEQ $C7A8                       A:00 X:FF Y:00 P:26 SP:FF CYC:16484
C7A8  AD 02 20  LDA $2002 = 00                  A:00 X:FF Y:00 P:26 SP:FF CYC:16487
C7AB  29 80     AND #$80                        A:00 X:FF Y:00 P:26 SP:FF CYC:16491
C7AD  F0 F9     BEQ $C7A8                       A:00 X:FF Y:00 P:26 SP:FF CYC:16493
C7A8  AD 02 20  LDA $2002 = 00                  A:00 X:FF Y:00 P:26 SP:FF CYC:16496
C7AB  29 80     AND #$80                        A:00 X:FF Y:00 P:26 SP:FF CYC:16500
C7AD  F0 F9     BEQ $C7A8                       A:00 X:FF Y:00 P:26 SP:FF CYC:16502
C7A8  AD 02 20  LDA $2002 = 00                  A:00 X:FF Y:00 P:26 SP:FF CYC:16505
C7AB  29 80     AND #$80                        A:00 X:FF Y:00 P:26 SP:FF CYC:16509
C7AD  F0 F9     BEQ $C7A8                       A:00 X:FF Y:00 P:26 SP:FF CYC:16511
C7A8  AD 02 20  LDA $2002 = 00                  A:00 X:FF Y:00 P:26 SP:FF CYC:16514
C7AB  29 80     AND #$80                        A:00 X:FF Y:00 P:26 SP:FF CYC:16518
C7AD  F0 F9     BEQ $C7A8                       A:00 X:FF Y:00 P:26 SP:FF CYC:16520
C7A8  AD 02 20  LDA $2002 = 00                  A:00 X:FF Y:00 P:26 SP:FF CYC:16523
C7AB  29 80     AND #$80                        A:00 X:FF Y:00 P:26 SP:FF CYC:16527
C7AD  F0 F9     BEQ $C7A8                       A:00 X:FF Y:00 P:26 SP:FF CYC:16529
C7A8  AD 02 20  LDA $2002 = 00                  A:00 X:FF Y:00 P:26 SP:FF CYC:16532
C7AB  29 80     AND #$80                        A:00 X:FF Y:00 P:26 SP:FF CYC:16536
C7AD  F0 F9     BEQ $C7A8                       A:00 X:FF Y:00 P:26 SP:FF CYC:16538
C7A8  AD 02 20  LDA $2002 = 00                  A:00 X:FF Y:00 P:26 SP:FF CYC:16541
C7AB  29 80     AND #$80                        A:00 X:FF Y:00 P:26 SP:FF CYC:16545
C7AD  F0 F9     BEQ $C7A8                       A:00 X:FF Y:00 P:26 SP:FF CYC:16547
C7A8  AD 02 20  LDA $2002 = 00                  A:00 X:FF Y:00 P:26 SP:FF CYC:16550
C7AB  29 80     AND #$80                        A:00 X:FF Y:00 P:26 SP:FF CYC:16554
C7AD  F0 F9     BEQ $C7A8                       A:00 X:FF Y:00 P:26 SP:FF CYC:16556
C7A8  AD 02 20  LDA $2002 = 00                  A:00 X:FF Y:00 P:26 SP:FF CYC:16559
C7AB  29 80     AND #$80                        A:00 X:FF Y:00 P:26 SP:FF CYC:16563
C7AD  F0 F9     BEQ $C7A8                       A:00 X:FF Y:00 P:26 SP:FF CYC:16565
C7A8  AD 02 20  LDA $2002 = 00                  A:00 X:FF Y:00 P:26 SP:FF CYC:16568
C7AB  29 80     AND #$80                        A:00 X:FF Y:00 P:26 SP:FF CYC:16572
C7AD  F0 F9     BEQ $C7A8                       A:00 X:FF Y:00 P:26 SP:FF CYC:16574
C7A8  AD 02 20  LDA $2002 = 00                  A:00 X:FF Y:00 P:26 SP:FF CYC:16577
C7AB  29 80     AND #$80                        A:00 X:FF Y:00 P:26 SP:FF CYC:16581
C7AD  F0 F9     BEQ $C7A8                       A:00 X:FF Y:00 P:26 SP:FF CYC:16583
C7A8  AD 02 20  LDA $2002 = 00                  A:00 X:FF Y:00 P:26 SP:FF CYC:16586
C7AB  29 80     AND #$80                        A:00 X:FF Y:00 P:26 SP:FF CYC:16590
C7AD  F0 F9     BEQ $C7A8                       A:00 X:FF Y:00 P:26 SP:FF CYC:16592
C7A8  AD 02 20  LDA $2002 = 00                  A:00 X:FF Y:00 P:26 SP:FF CYC:16595
C7AB  29 80     AND #$80                        A:00 X:FF Y:00 P:26 SP:FF CYC:16599
C7AD  F0 F9     BEQ $C7A8                       A:00 X:FF Y:00 P:26 SP:FF CYC:16601
C7A8  AD 02 20  LDA $2002 = 00                  A:00 X:FF Y:00 P:26 SP:FF CYC:16604
C7AB  29 80     AND #$80                        A:00 X:FF Y:00 P:26 SP:FF CYC:16608
C7AD  F0 F9     BEQ $C7A8                       A:00 X:FF Y:00 P:26 SP:FF CYC:16610
C7A8  AD 02 20  LDA $2002 = 00                  A:00 X:FF Y:00 P:26 SP:FF CYC:16613
C7AB  29 80     AND #$80                        A:00 X:FF Y:00 P:26 SP:FF CYC:16617
C7AD  F0 F9     BEQ $C7A8                       A:00 X:FF Y:00 P:26 SP:FF CYC:16619
C7A8  AD 02 20  LDA $2002 = 00                  A:00 X:FF Y:00 P:26 SP:FF CYC:16622
C7AB  29 80     AND #$80                        A:00 X:FF Y:00 P:26 SP:FF CYC:16626
C7AD  F0 F9     BEQ $C7A8                       A:00 X:FF Y:00 P:26 SP:FF CYC:16628
C7A8  AD 02 20  LDA $2002 = 00                  A:00 X:FF Y:00 P:26 SP:FF CYC:16631
C7AB  29 80     AND #$80                        A:00 X:FF Y:00 P:26 SP:FF CYC:16635
C7AD  F0 F9     BEQ $C7A8                       A:00 X:FF Y:00 P:26 SP:FF CYC:16637
C7A8  AD 02 20  LDA $2002 = 00                  A:00 X:FF Y:00 P:26 SP:FF CYC:16640
C7AB  29 80     AND #$80                        A:00 X:FF Y:00 P:26 SP:FF CYC:16644
C7AD  F0 F9     BEQ $C7A8                       A:00 X:FF Y:00 P:26 SP:FF CYC:16646
C7A8  AD 02 20  LDA $2002 = 00                  A:00 X:FF Y:00 P:26 SP:FF CYC:16649
C7AB  29 80     AND #$80                        A:00 X:FF Y:00 P:26 SP:FF CYC:16653
C7AD  F0 F9     BEQ $C7A8                       A:00 X:FF Y:00 P:26 SP:FF CYC:16655
C7A8  AD 02 20  LDA $2002 = 00                  A:00 X:FF Y:00 P:26 SP:FF CYC:16658
C7AB  29 80     AND #$80                        A:00 X:FF Y:00 P:26 SP:FF CYC:16662
C7AD  F0 F9     BEQ $C7A8                       A:00 X:FF Y:00 P:26 SP:FF CYC:16664
C7A8  AD 02 20  LDA $2002 = 00                  A:00 X:FF Y:00 P:26 SP:FF CYC:16667
C7AB  29 80     AND #$80                        A:00 X:FF Y:00 P:26 SP:FF CYC:16671
C7AD  F0 F9     BEQ $C7A8                       A:00 X:FF Y:00 P:26 SP:FF CYC:16673
C7A8  AD 02 20  LDA $2002 = 00                  A:00 X:FF Y:00 P:26 SP:FF CYC:16676
C7AB  29 80     AND #$80                        A:00 X:FF Y:00 P:26 SP:FF CYC:16680
C7AD  F0 F9     BEQ $C7A8                       A:00 X:FF Y:00 P:26 SP:FF CYC:16682
C7A8  AD 02 20  LDA $2002 = 00                  A:00 X:FF Y:00 P:26 SP:FF CYC:16685
C7AB  29 80     AND #$80                        A:00 X:FF Y:00 P:26 SP:FF CYC:16689
C7AD  F0 F9     BEQ $C7A8                       A:00 X:FF Y:00 P:26 SP:FF CYC:16691
C7A8  AD 02 20  LDA $2002 = 00                  A:00 X:FF Y:00 P:26 SP:FF CYC:16694
C7AB  29 80     AND #$80                        A:00 X:FF Y:00 P:26 SP:FF CYC:16698
C7AD  F0 F9     BEQ $C7A8                       A:00 X:FF Y:00 P:26 SP:FF CYC:16700
C7A8  AD 02 20  LDA $2002 = 00                  A:00 X:FF Y:00 P:26 SP:FF CYC:16703
C7AB  29 80     AND #$80                        A:00 X:FF Y:00 P:26 SP:FF CYC:16707
C7AD  F0 F9     BEQ $C7A8                       A:00 X:FF Y:00 P:26 SP:FF CYC:16709
C7A8  AD 02 20  LDA $2002 = 00                  A:00 X:FF Y:00 P:26 SP:FF CYC:16712
C7AB  29 80     AND #$80                        A:00 X:FF Y:00 P:26 SP:FF CYC:16716
C7AD  F0 F9     BEQ $C7A8                       A:00 X:FF Y:00 P:26 SP:FF CYC:16718
C7A8  AD 02 20  LDA $2002 = 00                  A:00 X:FF Y:00 P:26 SP:FF CYC:16721
C7AB  29 80     AND #$80                        A:00 X:FF Y:00 P:26 SP:FF CYC:16725
C7AD  F0 F9     BEQ $C7A8                       A:00 X:FF Y:00 P:26 SP:FF CYC:16727
C7A8  AD 02 20  LDA $2002 = 00                  A:00 X:FF Y:00 P:26 SP:FF CYC:16730
C7AB  29 80     AND #$80                        A:00 X:FF Y:00 P:26 SP:FF CYC:16734
C7AD  F0 F9     BEQ $C7A8                       A:00 X:FF Y:00 P:26 SP:FF CYC:16736
C7A8  AD 02 20  LDA $2002 = 00                  A:00 X:FF Y:00 P:26 SP:FF CYC:16739
C7AB  29 80     AND #$80                        A:00 X:FF Y:00 P:26 SP:FF CYC:16743
C7AD  F0 F9     BEQ $C7A8                       A:00 X:FF Y:00 P:26 SP:FF CYC:16745
C7A8  AD 02 20  LDA $2002 = 00                  A:00 X:FF Y:00 P:26 SP:FF CYC:16748
C7AB  29 80     AND #$80                        A:00 X:FF Y:00 P:26 SP:FF CYC:16752
C7AD  F0 F9     BEQ $C7A8                       A:00 X:FF Y:00 P:26 SP:FF CYC:16754
C7A8  AD 02 20  LDA $2002 = 00                  A:00 X:FF Y:00 P:26 SP:FF CYC:16757
C7AB  29 80     AND #$80                        A:00 X:FF Y:00 P:26 SP:FF CYC:16761
C7AD  F0 F9     BEQ $C7A8                       A:00 X:FF Y:00 P:26 SP:FF CYC:16763
C7A8  AD 02 20  LDA $2002 = 00                  A:00 X:FF Y:00 P:26 SP:FF CYC:16766
C7AB  29 80     AND #$80                        A:00 X:FF Y:00 P:26 SP:FF CYC:16770
C7AD  F0 F9     BEQ $C7A8                       A:00 X:FF Y:00 P:26 SP:FF CYC:16772
C7A8  AD 02 20  LDA $2002 = 00                  A:00 X:FF Y:00 P:26 SP:FF CYC:16775
C7AB  29 80     AND #$80                        A:00 X:FF Y:00 P:26 SP:FF CYC:16779
C7AD  F0 F9     BEQ $C7A8                       A:00 X:FF Y:00 P:26 SP:FF CYC:16781
C7A8  AD 02 20  LDA $2002 = 00                  A:00 X:FF Y:00 P:26 SP:FF CYC:16784
C7AB  29 80     AND #$80                        A:00 X:FF Y:00 P:26 SP:FF CYC:16788
C7AD  F0 F9     BEQ $C7A8                       A:00 X:FF Y:00 P:26 SP:FF CYC:16790
C7A8  AD 02 20  LDA $2002 = 00                  A:00 X:FF Y:00 P:26 SP:FF CYC:16793
C7AB  29 80     AND #$80                        A:00 X:FF Y:00 P:26 SP:FF CYC:16797
C7AD  F0 F9     BEQ $C7A8                       A:00 X:FF Y:00 P:26 SP:FF CYC:16799
C7A8  AD 02 20  LDA $2002 = 00                  A:00 X:FF Y:00 P:26 SP:FF CYC:16802
C7AB  29 80     AND #$80                        A:00 X:FF Y:00 P:26 SP:FF CYC:16806
C7AD  F0 F9     BEQ $C7A8                       A:00 X:FF Y:00 P:26 SP:FF CYC:16808
C7A8  AD 02 20  LDA $2002 = 00                  A:00 X:FF Y:00 P:26 SP:FF CYC:16811
C7AB  29 80     AND #$80                        A:00 X:FF Y:00 P:26 SP:FF CYC:16815
C7AD  F0 F9     BEQ $C7A8                       A:00 X:FF Y:00 P:26 SP:FF CYC:16817
C7A8  AD 02 20  LDA $2002 = 00                  A:00 X:FF Y:00 P:26 SP:FF CYC:16820
C7AB  29 80     AND #$80                        A:00 X:FF Y:00 P:26 SP:FF CYC:16824
C7AD  F0 F9     BEQ $C7A8                       A:00 X:FF Y:00 P:26 SP:FF CYC:16826
C7A8  AD 02 20  LDA $2002 = 00                  A:00 X:FF Y:00 P:26 SP:FF CYC:16829
C7AB  29 80     AND #$80                        A:00 X:FF Y:00 P:26 SP:FF CYC:16833
C7AD  F0 F9     BEQ $C7A8                       A:00 X:FF Y:00 P:26 SP:FF CYC:16835
C7A8  AD 02 20  LDA $2002 = 00                  A:00 X:FF Y:00 P:26 SP:FF CYC:16838
C7AB  29 80     AND #$80                        A:00 X:FF Y:00 P:26 SP:FF CYC:16842
C7AD  F0 F9     BEQ $C7A8                       A:00 X:FF Y:00 P:26 SP:FF CYC:16844
C7A8  AD 02 20  LDA $2002 = 00                  A:00 X:FF Y:00 P:26 SP:FF CYC:16847
C7AB  29 80     AND #$80                        A:00 X:FF Y:00 P:26 SP:FF CYC:16851
C7AD  F0 F9     BEQ $C7A8                       A:00 X:FF Y:00 P:26 SP:FF CYC:16853
C7A8  AD 02 20  LDA $2002 = 00                  A:00 X:FF Y:00 P:26 SP:FF CYC:16856
C7AB  29 80     AND #$80                        A:00 X:FF Y:00 P:26 SP:FF CYC:16860
C7AD  F0 F9     BEQ $C7A8                       A:00 X:FF Y:00 P:26 SP:FF CYC:16862
C7A8  AD 02 20  LDA $2002 = 00                  A:00 X:FF Y:00 P:26 SP:FF CYC:16865
C7AB  29 80     AND #$80                        A:00 X:FF Y:00 P:26 SP:FF CYC:16869
C7AD  F0 F9     BEQ $C7A8                       A:00 X:FF Y:00 P:26 SP:FF CYC:16871
C7A8  AD 02 20  LDA $2002 = 00                  A:00 X:FF Y:00 P:26 SP:FF CYC:16874
C7AB  29 80     AND #$80                        A:00 X:FF Y:00 P:26 SP:FF CYC:16878
C7AD  F0 F9     BEQ $C7A8                       A:00 X:FF Y:00 P:26 SP:FF CYC:16880
C7A8  AD 02 20  LDA $2002 = 00                  A:00 X:FF Y:00 P:26 SP:FF CYC:16883
C7AB  29 80     AND #$80                        A:00 X:FF Y:00 P:26 SP:FF CYC:16887
C7AD  F0 F9     BEQ $C7A8                       A:00 X:FF Y:00 P:26 SP:FF CYC:16889
C7A8  AD 02 20  LDA $2002 = 00                  A:00 X:FF Y:00 P:26 SP:FF CYC:16892
C7AB  29 80     AND #$80                        A:00 X:FF Y:00 P:26 SP:FF CYC:16896
C7AD  F0 F9     BEQ $C7A8                       A:00 X:FF Y:00 P:26 SP:FF CYC:16898
C7A8  AD 02 20  LDA $2002 = 00                  A:00 X:FF Y:00 P:26 SP:FF CYC:16901
C7AB  29 80     AND #$80                        A:00 X:FF Y:00 P:26 SP:FF CYC:16905
C7AD  F0 F9     BEQ $C7A8                       A:00 X:FF Y:00 P:26 SP:FF CYC:16907
C7A8  AD 02 20  LDA $2002 = 00                  A:00 X:FF Y:00 P:26 SP:FF CYC:16910
C7AB  29 80     AND #$80                        A:00 X:FF Y:00 P:26 SP:FF CYC:16914
C7AD  F0 F9     BEQ $C7A8                       A:00 X:FF Y:00 P:26 SP:FF CYC:16916
C7A8  AD 02 20  LDA $2002 = 00                  A:00 X:FF Y:00 P:26 SP:FF CYC:16919
C7AB  29 80     AND #$80                        A:00 X:FF Y:00 P:26 SP:FF CYC:16923
C7AD  F0 F9     BEQ $C7A8                       A:00 X:FF Y:00 P:26 SP:FF CYC:16925
C7A8  AD 02 20  LDA $2002 = 00                  A:00 X:FF Y:00 P:26 SP:FF CYC:16928
C7AB  29 80     AND #$80                        A:00 X:FF Y:00 P:26 SP:FF CYC:16932
C7AD  F0 F9     BEQ $C7A8                       A:00 X:FF Y:00 P:26 SP:FF CYC:16934
C7A8  AD 02 20  LDA $2002 = 00                  A:00 X:FF Y:00 P:26 SP:FF CYC:16937
C7AB  29 80     AND #$80                        A:00 X:FF Y:00 P:26 SP:FF CYC:16941
C7AD  F0 F9     BEQ $C7A8                       A:00 X:FF Y:00 P:26 SP:FF CYC:16943
C7A8  AD 02 20  LDA $2002 = 00                  A:00 X:FF Y:00 P:26 SP:FF CYC:16946
C7AB  29 80     AND #$80                        A:00 X:FF Y:00 P:26 SP:FF CYC:16950
C7AD  F0 F9     BEQ $C7A8                       A:00 X:FF Y:00 P:26 SP:FF CYC:16952
C7A8  AD 02 20  LDA $2002 = 00                  A:00 X:FF Y:00 P:26 SP:FF CYC:16955
C7AB  29 80     AND #$80                        A:00 X:FF Y:00 P:26 SP:FF CYC:16959
C7AD  F0 F9     BEQ $C7A8                       A:00 X:FF Y:00 P:26 SP:FF CYC:16961
C7A8  AD 02 20  LDA $2002 = 00                  A:00 X:FF Y:00 P:26 SP:FF CYC:16964
C7AB  29 80     AND #$80                        A:00 X:FF Y:00 P:26 SP:FF CYC:16968
C7AD  F0 F9     BEQ $C7A8                       A:00 X:FF Y:00 P:26 SP:FF CYC:16970
C7A8  AD 02 20  LDA $2002 = 00                  A:00 X:FF Y:00 P:26 SP:FF CYC:16973
C7AB  29 80     AND #$80                        A:00 X:FF Y:00 P:26 SP:FF CYC:16977
C7AD  F0 F9     BEQ $C7A8                       A:00 X:FF Y:00 P:26 SP:FF CYC:16979
C7A8  AD 02 20  LDA $2002 = 00                  A:00 X:FF Y:00 P:26 SP:FF CYC:16982
C7AB  29 80     AND #$80                        A:00 X:FF Y:00 P:26 SP:FF CYC:16986
C7AD  F0 F9     BEQ $C7A8                       A:00 X:FF Y:00 P:26 SP:FF CYC:16988
C7A8  AD 02 20  LDA $2002 = 00                  A:00 X:FF Y:00 P:26 SP:FF CYC:16991
C7AB  29 80     AND #$80                        A:00 X:FF Y:00 P:26 SP:FF CYC:16995
C7AD  F0 F9     BEQ $C7A8                       A:00 X:FF Y:00 P:26 SP:FF CYC:16997
C7A8  AD 02 20  LDA $2002 = 00                  A:00 X:FF Y:00 P:26 SP:FF CYC:17000
C7AB  29 80     AND #$80                        A:00 X:FF Y:00 P:26 SP:FF CYC:17004
C7AD  F0 F9     BEQ $C7A8                       A:00 X:FF Y:00 P:26 SP:FF CYC:17006
C7A8  AD 02 20  LDA $2002 = 00                  A:00 X:FF Y:00 P:26 SP:FF CYC:17009
C7AB  29 80     AND #$80                        A:00 X:FF Y:00 P:26 SP:FF CYC:17013
C7AD  F0 F9     BEQ $C7A8                       A:00 X:FF Y:00 P:26 SP:FF CYC:17015
C7A8  AD 02 20  LDA $2002 = 00                  A:00 X:FF Y:00 P:26 SP:FF CYC:17018
C7AB  29 80     AND #$80                        A:00 X:FF Y:00 P:26 SP:FF CYC:17022
C7AD  F0 F9     BEQ $C7A8                       A:00 X:FF Y:00 P:26 SP:FF CYC:17024
C7A8  AD 02 20  LDA $2002 = 00                  A:00 X:FF Y:00 P:26 SP:FF CYC:17027
C7AB  29 80     AND #$80                        A:00 X:FF Y:00 P:26 SP:FF CYC:17031
C7AD  F0 F9     BEQ $C7A8                       A:00 X:FF Y:00 P:26 SP:FF CYC:17033
C7A8  AD 02 20  LDA $2002 = 00                  A:00 X:FF Y:00 P:26 SP:FF CYC:17036
C7AB  29 80     AND #$80                        A:00 X:FF Y:00 P:26 SP:FF CYC:17040
C7AD  F0 F9     BEQ $C7A8                       A:00 X:FF Y:00 P:26 SP:FF CYC:17042
C7A8  AD 02 20  LDA $2002 = 00                  A:00 X:FF Y:00 P:26 SP:FF CYC:17045
C7AB  29 80     AND #$80                        A:00 X:FF Y:00 P:26 SP:FF CYC:17049
C7AD  F0 F9     BEQ $C7A8                       A:00 X:FF Y:00 P:26 SP:FF CYC:17051
C7A8  AD 02 20  LDA $2002 = 00                  A:00 X:FF Y:00 P:26 SP:FF CYC:17054
C7AB  29 80     AND #$80                        A:00 X:FF Y:00 P:26 SP:FF CYC:17058
C7AD  F0 F9     BEQ $C7A8                       A:00 X:FF Y:00 P:26 SP:FF CYC:17060
C7A8  AD 02 20  LDA $2002 = 00                  A:00 X:FF Y:00 P:26 SP:FF CYC:17063
C7AB  29 80     AND #$80                        A:00 X:FF Y:00 P:26 SP:FF CYC:17067
C7AD  F0 F9     BEQ $C7A8                       A:00 X:FF Y:00 P:26 SP:FF CYC:17069
C7A8  AD 02 20  LDA $2002 = 00                  A:00 X:FF Y:00 P:26 SP:FF CYC:17072
C7AB  29 80     AND #$80                        A:00 X:FF Y:00 P:26 SP:FF CYC:17076
C7AD  F0 F9     BEQ $C7A8                       A:00 X:FF Y:00 P:26 SP:FF CYC:17078
C7A8  AD 02 20  LDA $2002 = 00                  A:00 X:FF Y:00 P:26 SP:FF CYC:17081
C7AB  29 80     AND #$80                        A:00 X:FF Y:00 P:26 SP:FF CYC:17085
C7AD  F0 F9     BEQ $C7A8                       A:00 X:FF Y:00 P:26 SP:FF CYC:17087
C7A8  AD 02 20  LDA $2002 = 00                  A:00 X:FF Y:00 P:26 SP:FF CYC:17090
C7AB  29 80     AND #$80                        A:00 X:FF Y:00 P:26 SP:FF CYC:17094
C7AD  F0 F9     BEQ $C7A8                       A:00 X:FF Y:00 P:26 SP:FF CYC:17096
C7A8  AD 02 20  LDA $2002 = 00                  A:00 X:FF Y:00 P:26 SP:FF CYC:17099
C7AB  29 80     AND #$80                        A:00 X:FF Y:00 P:26 SP:FF CYC:17103
C7AD  F0 F9     BEQ $C7A8                       A:00 X:FF Y:00 P:26 SP:FF CYC:17105
C7A8  AD 02 20  LDA $2002 = 00                  A:00 X:FF Y:00 P:26 SP:FF CYC:17108
C7AB  29 80     AND #$80                        A:00 X:FF Y:00 P:26 SP:FF CYC:17112
C7AD  F0 F9     BEQ $C7A8                       A:00 X:FF Y:00 P:26 SP:FF CYC:17114
C7A8  AD 02 20  LDA $2002 = 00                  A:00 X:FF Y:00 P:26 SP:FF CYC:17117
C7AB  29 80     AND #$80                        A:00 X:FF Y:00 P:26 SP:FF CYC:17121
C7AD  F0 F9     BEQ $C7A8                       A:00 X:FF Y:00 P:26 SP:FF CYC:17123
C7A8  AD 02 20  LDA $2002 = 00                  A:00 X:FF Y:00 P:26 SP:FF CYC:17126
C7AB  29 80     AND #$80                        A:00 X:FF Y:00 P:26 SP:FF CYC:17130
C7AD  F0 F9     BEQ $C7A8                       A:00 X:FF Y:00 P:26 SP:FF CYC:17132
C7A8  AD 02 20  LDA $2002 = 00                  A:00 X:FF Y:00 P:26 SP:FF CYC:17135
C7AB  29 80     AND #$80                        A:00 X:FF Y:00 P:26 SP:FF CYC:17139
C7AD  F0 F9     BEQ $C7A8                       A:00 X:FF Y:00 P:26 SP:FF CYC:17141
C7A8  AD 02 20  LDA $2002 = 00                  A:00 X:FF Y:00 P:26 SP:FF CYC:17144
C7AB  29 80     AND #$80                        A:00 X:FF Y:00 P:26 SP:FF CYC:17148
C7AD  F0 F9     BEQ $C7A8                       A:00 X:FF Y:00 P:26 SP:FF CYC:17150
C7A8  AD 02 20  LDA $2002 = 00                  A:00 X:FF Y:00 P:26 SP:FF CYC:17153
C7AB  29 80     AND #$80                        A:00 X:FF Y:00 P:26 SP:FF CYC:17157
C7AD  F0 F9     BEQ $C7A8                       A:00 X:FF Y:00 P:26 SP:FF CYC:17159
C7A8  AD 02 20  LDA $2002 = 00                  A:00 X:FF Y:00 P:26 SP:FF CYC:17162
C7AB  29 80     AND #$80                        A:00 X:FF Y:00 P:26 SP:FF CYC:17166
C7AD  F0 F9     BEQ $C7A8                       A:00 X:FF Y:00 P:26 SP:FF CYC:17168
C7A8  AD 02 20  LDA $2002 = 00                  A:00 X:FF Y:00 P:26 SP:FF CYC:17171
C7AB  29 80     AND #$80                        A:00 X:FF Y:00 P:26 SP:FF CYC:17175
C7AD  F0 F9     BEQ $C7A8                       A:00 X:FF Y:00 P:26 SP:FF CYC:17177
C7A8  AD 02 20  LDA $2002 = 00                  A:00 X:FF Y:00 P:26 SP:FF CYC:17180
C7AB  29 80     AND #$80                        A:00 X:FF Y:00 P:26 SP:FF CYC:17184
C7AD  F0 F9     BEQ $C7A8                       A:00 X:FF Y:00 P:26 SP:FF CYC:17186
C7A8  AD 02 20  LDA $2002 = 00                  A:00 X:FF Y:00 P:26 SP:FF CYC:17189
C7AB  29 80     AND #$80                        A:00 X:FF Y:00 P:26 SP:FF CYC:17193
C7AD  F0 F9     BEQ $C7A8                       A:00 X:FF Y:00 P:26 SP:FF CYC:17195
C7A8  AD 02 20  LDA $2002 = 00                  A:00 X:FF Y:00 P:26 SP:FF CYC:17198
C7AB  29 80     AND #$80                        A:00 X:FF Y:00 P:26 SP:FF CYC:17202
C7AD  F0 F9     BEQ $C7A8                       A:00 X:FF Y:00 P:26 SP:FF CYC:17204
C7A8  AD 02 20  LDA $2002 = 00                  A:00 X:FF Y:00 P:26 SP:FF CYC:17207
C7AB  29 80     AND #$80                        A:00 X:FF Y:00 P:26 SP:FF CYC:17211
C7AD  F0 F9     BEQ $C7A8                       A:00 X:FF Y:00 P:26 SP:FF CYC:17213
C7A8  AD 02 20  LDA $2002 = 00                  A:00 X:FF Y:00 P:26 SP:FF CYC:17216
C7AB  29 80     AND #$80                        A:00 X:FF Y:00 P:26 SP:FF CYC:17220
C7AD  F0 F9     BEQ $C7A8                       A:00 X:FF Y:00 P:26 SP:FF CYC:17222
C7A8  AD 02 20  LDA $2002 = 00                  A:00 X:FF Y:00 P:26 SP:FF CYC:17225
C7AB  29 80     AND #$80                        A:00 X:FF Y:00 P:26 SP:FF CYC:17229
C7AD  F0 F9     BEQ $C7A8                       A:00 X:FF Y:00 P:26 SP:FF CYC:17231
C7A8  AD 02 20  LDA $2002 = 00                  A:00 X:FF Y:00 P:26 SP:FF CYC:17234
C7AB  29 80     AND #$80                        A:00 X:FF Y:00 P:26 SP:FF CYC:17238
C7AD  F0 F9     BEQ $C7A8                       A:00 X:FF Y:00 P:26 SP:FF CYC:17240
C7A8  AD 02 20  LDA $2002 = 00                  A:00 X:FF Y:00 P:26 SP:FF CYC:17243
C7AB  29 80     AND #$80                        A:00 X:FF Y:00 P:26 SP:FF CYC:17247
C7AD  F0 F9     BEQ $C7A8                       A:00 X:FF Y:00 P:26 SP:FF CYC:17249
C7A8  AD 02 20  LDA $2002 = 00                  A:00 X:FF Y:00 P:26 SP:FF CYC:17252
C7AB  29 80     AND #$80                        A:00 X:FF Y:00 P:26 SP:FF CYC:17256
C7AD  F0 F9     BEQ $C7A8                       A:00 X:FF Y:00 P:26 SP:FF CYC:17258
C7A8  AD 02 20  LDA $2002 = 00                  A:00 X:FF Y:00 P:26 SP:FF CYC:17261
C7AB  29 80     AND #$80                        A:00 X:FF Y:00 P:26 SP:FF CYC:17265
C7AD  F0 F9     BEQ $C7A8                       A:00 X:FF Y:00 P:26 SP:FF CYC:17267
C7A8  AD 02 20  LDA $2002 = 00                  A:00 X:FF Y:00 P:26 SP:FF CYC:17270
C7AB  29 80     AND #$80                        A:00 X:FF Y:00 P:26 SP:FF CYC:17274
C7AD  F0 F9     BEQ $C7A8                       A:00 X:FF Y:00 P:26 SP:FF CYC:17276
C7A8  AD 02 20  LDA $2002 = 00                  A:00 X:FF Y:00 P:26 SP:FF CYC:17279
C7AB  29 80     AND #$80                        A:00 X:FF Y:00 P:26 SP:FF CYC:17283
C7AD  F0 F9     BEQ $C7A8                       A:00 X:FF Y:00 P:26 SP:FF CYC:17285
C7A8  AD 02 20  LDA $2002 = 00                  A:00 X:FF Y:00 P:26 SP:FF CYC:17288
C7AB  29 80     AND #$80                        A:00 X:FF Y:00 P:26 SP:FF CYC:17292
C7AD  F0 F9     BEQ $C7A8                       A:00 X:FF Y:00 P:26 SP:FF CYC:17294
C7A8  AD 02 20  LDA $2002 = 00                  A:00 X:FF Y:00 P:26 SP:FF CYC:17297
C7AB  29 80     AND #$80                        A:00 X:FF Y:00 P:26 SP:FF CYC:17301
C7AD  F0 F9     BEQ $C7A8                       A:00 X:FF Y:00 P:26 SP:FF CYC:17303
C7A8  AD 02 20  LDA $2002 = 00                  A:00 X:FF Y:00 P:26 SP:FF CYC:17306
C7AB  29 80     AND #$80                        A:00 X:FF Y:00 P:26 SP:FF CYC:17310
C7AD  F0 F9     BEQ $C7A8                       A:00 X:FF Y:00 P:26 SP:FF CYC:17312
C7A8  AD 02 20  LDA $2002 = 00                  A:00 X:FF Y:00 P:26 SP:FF CYC:17315
C7AB  29 80     AND #$80                        A:00 X:FF Y:00 P:26 SP:FF CYC:17319
C7AD  F0 F9     BEQ $C7A8                       A:00 X:FF Y:00 P:26 SP:FF CYC:17321
C7A8  AD 02 20  LDA $2002 = 00                  A:00 X:FF Y:00 P:26 SP:FF CYC:17324
C7AB  29 80     AND #$80                        A:00 X:FF Y:00 P:26 SP:FF CYC:17328
C7AD  F0 F9     BEQ $C7A8                       A:00 X:FF Y:00 P:26 SP:FF CYC:17330
C7A8  AD 02 20  LDA $2002 = 00                  A:00 X:FF Y:00 P:26 SP:FF CYC:17333
C7AB  29 80     AND #$80                        A:00 X:FF Y:00 P:26 SP:FF CYC:17337
C7AD  F0 F9     BEQ $C7A8                       A:00 X:FF Y:00 P:26 SP:FF CYC:17339
C7A8  AD 02 20  LDA $2002 = 00                  A:00 X:FF Y:00 P:26 SP:FF CYC:17342
C7AB  29 80     AND #$80                        A:00 X:FF Y:00 P:26 SP:FF CYC:17346
C7AD  F0 F9     BEQ $C7A8                       A:00 X:FF Y:00 P:26 SP:FF CYC:17348
C7A8  AD 02 20  LDA $2002 = 00                  A:00 X:FF Y:00 P:26 SP:FF CYC:17351
C7AB  29 80     AND #$80                        A:00 X:FF Y:00 P:26 SP:FF CYC:17355
C7AD  F0 F9     BEQ $C7A8                       A:00 X:FF Y:00 P:26 SP:FF CYC:17357
C7A8  AD 02 20  LDA $2002 = 00                  A:00 X:FF Y:00 P:26 SP:FF CYC:17360
C7AB  29 80     AND #$80                        A:00 X:FF Y:00 P:26 SP:FF CYC:17364
C7AD  F0 F9     BEQ $C7A8                       A:00 X:FF Y:00 P:26 SP:FF CYC:17366
C7A8  AD 02 20  LDA $2002 = 00                  A:00 X:FF Y:00 P:26 SP:FF CYC:17369
C7AB  29 80     AND #$80                        A:00 X:FF Y:00 P:26 SP:FF CYC:17373
C7AD  F0 F9     BEQ $C7A8                       A:00 X:FF Y:00 P:26 SP:FF CYC:17375
C7A8  AD 02 20  LDA $2002 = 00                  A:00 X:FF Y:00 P:26 SP:FF CYC:17378
C7AB  29 80     AND #$80                        A:00 X:FF Y:00 P:26 SP:FF CYC:17382
C7AD  F0 F9     BEQ $C7A8                       A:00 X:FF Y:00 P:26 SP:FF CYC:17384
C7A8  AD 02 20  LDA $2002 = 00                  A:00 X:FF Y:00 P:26 SP:FF CYC:17387
C7AB  29 80     AND #$80                        A:00 X:FF Y:00 P:26 SP:FF CYC:17391
C7AD  F0 F9     BEQ $C7A8                       A:00 X:FF Y:00 P:26 SP:FF CYC:17393
C7A8  AD 02 20  LDA $2002 = 00                  A:00 X:FF Y:00 P:26 SP:FF CYC:17396
C7AB  29 80     AND #$80                        A:00 X:FF Y:00 P:26 SP:FF CYC:17400
C7AD  F0 F9     BEQ $C7A8                       A:00 X:FF Y:00 P:26 SP:FF CYC:17402
C7A8  AD 02 20  LDA $2002 = 00                  A:00 X:FF Y:00 P:26 SP:FF CYC:17405
C7AB  29 80     AND #$80                        A:00 X:FF Y:00 P:26 SP:FF CYC:17409
C7AD  F0 F9     BEQ $C7A8                       A:00 X:FF Y:00 P:26 SP:FF CYC:17411
C7A8  AD 02 20  LDA $2002 = 00                  A:00 X:FF Y:00 P:26 SP:FF CYC:17414
C7AB  29 80     AND #$80                        A:00 X:FF Y:00 P:26 SP:FF CYC:17418
C7AD  F0 F9     BEQ $C7A8                       A:00 X:FF Y:00 P:26 SP:FF CYC:17420
C7A8  AD 02 20  LDA $2002 = 00                  A:00 X:FF Y:00 P:26 SP:FF CYC:17423
C7AB  29 80     AND #$80                        A:00 X:FF Y:00 P:26 SP:FF CYC:17427
C7AD  F0 F9     BEQ $C7A8                       A:00 X:FF Y:00 P:26 SP:FF CYC:17429
C7A8  AD 02 20  LDA $2002 = 00                  A:00 X:FF Y:00 P:26 SP:FF CYC:17432
C7AB  29 80     AND #$80                        A:00 X:FF Y:00 P:26 SP:FF CYC:17436
C7AD  F0 F9     BEQ $C7A8                       A:00 X:FF Y:00 P:26 SP:FF CYC:17438
C7A8  AD 02 20  LDA $2002 = 00                  A:00 X:FF Y:00 P:26 SP:FF CYC:17441
C7AB  29 80     AND #$80                        A:00 X:FF Y:00 P:26 SP:FF CYC:17445
C7AD  F0 F9     BEQ $C7A8                       A:00 X:FF Y:00 P:26 SP:FF CYC:17447
C7A8  AD 02 20  LDA $2002 = 00                  A:00 X:FF Y:00 P:26 SP:FF CYC:17450
C7AB  29 80     AND #$80                        A:00 X:FF Y:00 P:26 SP:FF CYC:17454
C7AD  F0 F9     BEQ $C7A8                       A:00 X:FF Y:00 P:26 SP:FF CYC:17456
C7A8  AD 02 20  LDA $2002 = 00                  A:00 X:FF Y:00 P:26 SP:FF CYC:17459
C7AB  29 80     AND #$80                        A:00 X:FF Y:00 P:26 SP:FF CYC:17463
C7AD  F0 F9     BEQ $C7A8                       A:00 X:FF Y:00 P:26 SP:FF CYC:17465
C7A8  AD 02 20  LDA $2002 = 00                  A:00 X:FF Y:00 P:26 SP:FF CYC:17468
C7AB  29 80     AND #$80                        A:00 X:FF Y:00 P:26 SP:FF CYC:17472
C7AD  F0 F9     BEQ $C7A8                       A:00 X:FF Y:00 P:26 SP:FF CYC:17474
C7A8  AD 02 20  LDA $2002 = 00                  A:00 X:FF Y:00 P:26 SP:FF CYC:17477
C7AB  29 80     AND #$80                        A:00 X:FF Y:00 P:26 SP:FF CYC:17481
C7AD  F0 F9     BEQ $C7A8                       A:00 X:FF Y:00 P:26 SP:FF CYC:17483
C7A8  AD 02 20  LDA $2002 = 00                  A:00 X:FF Y:00 P:26 SP:FF CYC:17486
C7AB  29 80     AND #$80                        A:00 X:FF Y:00 P:26 SP:FF CYC:17490
C7AD  F0 F9     BEQ $C7A8                       A:00 X:FF Y:00 P:26 SP:FF CYC:17492
C7A8  AD 02 20  LDA $2002 = 00                  A:00 X:FF Y:00 P:26 SP:FF CYC:17495
C7AB  29 80     AND #$80                        A:00 X:FF Y:00 P:26 SP:FF CYC:17499
C7AD  F0 F9     BEQ $C7A8                       A:00 X:FF Y:00 P:26 SP:FF CYC:17501
C7A8  AD 02 20  LDA $2002 = 00                  A:00 X:FF Y:00 P:26 SP:FF CYC:17504
C7AB  29 80     AND #$80                        A:00 X:FF Y:00 P:26 SP:FF CYC:17508
C7AD  F0 F9     BEQ $C7A8                       A:00 X:FF Y:00 P:26 SP:FF CYC:17510
C7A8  AD 02 20  LDA $2002 = 00                  A:00 X:FF Y:00 P:26 SP:FF CYC:17513
C7AB  29 80     AND #$80                        A:00 X:FF Y:00 P:26 SP:FF CYC:17517
C7AD  F0 F9     BEQ $C7A8                       A:00 X:FF Y:00 P:26 SP:FF CYC:17519
C7A8  AD 02 20  LDA $2002 = 00                  A:00 X:FF Y:00 P:26 SP:FF CYC:17522
C7AB  29 80     AND #$80                        A:00 X:FF Y:00 P:26 SP:FF CYC:17526
C7AD  F0 F9     BEQ $C7A8                       A:00 X:FF Y:00 P:26 SP:FF CYC:17528
C7A8  AD 02 20  LDA $2002 = 00                  A:00 X:FF Y:00 P:26 SP:FF CYC:17531
C7AB  29 80     AND #$80                        A:00 X:FF Y:00 P:26 SP:FF CYC:17535
C7AD  F0 F9     BEQ $C7A8                       A:00 X:FF Y:00 P:26 SP:FF CYC:17537
C7A8  AD 02 20  LDA $2002 = 00                  A:00 X:FF Y:00 P:26 SP:FF CYC:17540
C7AB  29 80     AND #$80                        A:00 X:FF Y:00 P:26 SP:FF CYC:17544
C7AD  F0 F9     BEQ $C7A8                       A:00 X:FF Y:00 P:26 SP:FF CYC:17546
C7A8  AD 02 20  LDA $2002 = 00                  A:00 X:FF Y:00 P:26 SP:FF CYC:17549
C7AB  29 80     AND #$80                        A:00 X:FF Y:00 P:26 SP:FF CYC:17553
C7AD  F0 F9     BEQ $C7A8                       A:00 X:FF Y:00 P:26 SP:FF CYC:17555
C7A8  AD 02 20  LDA $2002 = 00                  A:00 X:FF Y:00 P:26 SP:FF CYC:17558
C7AB  29 80     AND #$80                        A:00 X:FF Y:00 P:26 SP:FF CYC:17562
C7AD  F0 F9     BEQ $C7A8                       A:00 X:FF Y:00 P:26 SP:FF CYC:17564
C7A8  AD 02 20  LDA $2002 = 00                  A:00 X:FF Y:00 P:26 SP:FF CYC:17567
C7AB  29 80     AND #$80                        A:00 X:FF Y:00 P:26 SP:FF CYC:17571
C7AD  F0 F9     BEQ $C7A8                       A:00 X:FF Y:00 P:26 SP:FF CYC:17573
C7A8  AD 02 20  LDA $2002 = 00                  A:00 X:FF Y:00 P:26 SP:FF CYC:17576
C7AB  29 80     AND #$80                        A:00 X:FF Y:00 P:26 SP:FF CYC:17580
C7AD  F0 F9     BEQ $C7A8                       A:00 X:FF Y:00 P:26 SP:FF CYC:17582
C7A8  AD 02 20  LDA $2002 = 00                  A:00 X:FF Y:00 P:26 SP:FF CYC:17585
C7AB  29 80     AND #$80                        A:00 X:FF Y:00 P:26 SP:FF CYC:17589
C7AD  F0 F9     BEQ $C7A8                       A:00 X:FF Y:00 P:26 SP:FF CYC:17591
C7A8  AD 02 20  LDA $2002 = 00                  A:00 X:FF Y:00 P:26 SP:FF CYC:17594
C7AB  29 80     AND #$80                        A:00 X:FF Y:00 P:26 SP:FF CYC:17598
C7AD  F0 F9     BEQ $C7A8                       A:00 X:FF Y:00 P:26 SP:FF CYC:17600
C7A8  AD 02 20  LDA $2002 = 00                  A:00 X:FF Y:00 P:26 SP:FF CYC:17603
C7AB  29 80     AND #$80                        A:00 X:FF Y:00 P:26 SP:FF CYC:17607
C7AD  F0 F9     BEQ $C7A8                       A:00 X:FF Y:00 P:26 SP:FF CYC:17609
C7A8  AD 02 20  LDA $2002 = 00                  A:00 X:FF Y:00 P:26 SP:FF CYC:17612
C7AB  29 80     AND #$80                        A:00 X:FF Y:00 P:26 SP:FF CYC:17616
C7AD  F0 F9     BEQ $C7A8                       A:00 X:FF Y:00 P:26 SP:FF CYC:17618
C7A8  AD 02 20  LDA $2002 = 00                  A:00 X:FF Y:00 P:26 SP:FF CYC:17621
C7AB  29 80     AND #$80                        A:00 X:FF Y:00 P:26 SP:FF CYC:17625
C7AD  F0 F9     BEQ $C7A8                       A:00 X:FF Y:00 P:26 SP:FF CYC:17627
C7A8  AD 02 20  LDA $2002 = 00                  A:00 X:FF Y:00 P:26 SP:FF CYC:17630
C7AB  29 80     AND #$80                        A:00 X:FF Y:00 P:26 SP:FF CYC:17634
C7AD  F0 F9     BEQ $C7A8                       A:00 X:FF Y:00 P:26 SP:FF CYC:17636
C7A8  AD 02 20  LDA $2002 = 00                  A:00 X:FF Y:00 P:26 SP:FF CYC:17639
C7AB  29 80     AND #$80                        A:00 X:FF Y:00 P:26 SP:FF CYC:17643
C7AD  F0 F9     BEQ $C7A8                       A:00 X:FF Y:00 P:26 SP:FF CYC:17645
C7A8  AD 02 20  LDA $2002 = 00                  A:00 X:FF Y:00 P:26 SP:FF CYC:17648
C7AB  29 80     AND #$80                        A:00 X:FF Y:00 P:26 SP:FF CYC:17652
C7AD  F0 F9     BEQ $C7A8                       A:00 X:FF Y:00 P:26 SP:FF CYC:17654
C7A8  AD 02 20  LDA $2002 = 00                  A:00 X:FF Y:00 P:26 SP:FF CYC:17657
C7AB  29 80     AND #$80                        A:00 X:FF Y:00 P:26 SP:FF CYC:17661
C7AD  F0 F9     BEQ $C7A8                       A:00 X:FF Y:00 P:26 SP:FF CYC:17663
C7A8  AD 02 20  LDA $2002 = 00                  A:00 X:FF Y:00 P:26 SP:FF CYC:17666
C7AB  29 80     AND #$80                        A:00 X:FF Y:00 P:26 SP:FF CYC:17670
C7AD  F0 F9     BEQ $C7A8                       A:00 X:FF Y:00 P:26 SP:FF CYC:17672
C7A8  AD 02 20  LDA $2002 = 00                  A:00 X:FF Y:00 P:26 SP:FF CYC:17675
C7AB  29 80     AND #$80                        A:00 X:FF Y:00 P:26 SP:FF CYC:17679
C7AD  F0 F9     BEQ $C7A8                       A:00 X:FF Y:00 P:26 SP:FF CYC:17681
C7A8  AD 02 20  LDA $2002 = 00                  A:00 X:FF Y:00 P:26 SP:FF CYC:17684
C7AB  29 80     AND #$80                        A:00 X:FF Y:00 P:26 SP:FF CYC:17688
C7AD  F0 F9     BEQ $C7A8                       A:00 X:FF Y:00 P:26 SP:FF CYC:17690
C7A8  AD 02 20  LDA $2002 = 00                  A:00 X:FF Y:00 P:26 SP:FF CYC:17693
C7AB  29 80     AND #$80                        A:00 X:FF Y:00 P:26 SP:FF CYC:17697
C7AD  F0 F9     BEQ $C7A8                       A:00 X:FF Y:00 P:26 SP:FF CYC:17699
C7A8  AD 02 20  LDA $2002 = 00                  A:00 X:FF Y:00 P:26 SP:FF CYC:17702
C7AB  29 80     AND #$80                        A:00 X:FF Y:00 P:26 SP:FF CYC:17706
C7AD  F0 F9     BEQ $C7A8                       A:00 X:FF Y:00 P:26 SP:FF CYC:17708
C7A8  AD 02 20  LDA $2002 = 00                  A:00 X:FF Y:00 P:26 SP:FF CYC:17711
C7AB  29 80     AND #$80                        A:00 X:FF Y:00 P:26 SP:FF CYC:17715
C7AD  F0 F9     BEQ $C7A8                       A:00 X:FF Y:00 P:26 SP:FF CYC:17717
C7A8  AD 02 20  LDA $2002 = 00                  A:00 X:FF Y:00 P:26 SP:FF CYC:17720
C7AB  29 80     AND #$80                        A:00 X:FF Y:00 P:26 SP:FF CYC:17724
C7AD  F0 F9     BEQ $C7A8                       A:00 X:FF Y:00 P:26 SP:FF CYC:17726
C7A8  AD 02 20  LDA $2002 = 00                  A:00 X:FF Y:00 P:26 SP:FF CYC:17729
C7AB  29 80     AND #$80                        A:00 X:FF Y:00 P:26 SP:FF CYC:17733
C7AD  F0 F9     BEQ $C7A8                       A:00 X:FF Y:00 P:26 SP:FF CYC:17735
C7A8  AD 02 20  LDA $2002 = 00                  A:00 X:FF Y:00 P:26 SP:FF CYC:17738
C7AB  29 80     AND #$80                        A:00 X:FF Y:00 P:26 SP:FF CYC:17742
C7AD  F0 F9     BEQ $C7A8                       A:00 X:FF Y:00 P:26 SP:FF CYC:17744
C7A8  AD 02 20  LDA $2002 = 00                  A:00 X:FF Y:00 P:26 SP:FF CYC:17747
C7AB  29 80     AND #$80                        A:00 X:FF Y:00 P:26 SP:FF CYC:17751
C7AD  F0 F9     BEQ $C7A8                       A:00 X:FF Y:00 P:26 SP:FF CYC:17753
C7A8  AD 02 20  LDA $2002 = 00                  A:00 X:FF Y:00 P:26 SP:FF CYC:17756
C7AB  29 80     AND #$80                        A:00 X:FF Y:00 P:26 SP:FF CYC:17760
C7AD  F0 F9     BEQ $C7A8                       A:00 X:FF Y:00 P:26 SP:FF CYC:17762
C7A8  AD 02 20  LDA $2002 = 00                  A:00 X:FF Y:00 P:26 SP:FF CYC:17765
C7AB  29 80     AND #$80                        A:00 X:FF Y:00 P:26 SP:FF CYC:17769
C7AD  F0 F9     BEQ $C7A8                       A:00 X:FF Y:00 P:26 SP:FF CYC:17771
C7A8  AD 02 20  LDA $2002 = 00                  A:00 X:FF Y:00 P:26 SP:FF CYC:17774
C7AB  29 80     AND #$80                        A:00 X:FF Y:00 P:26 SP:FF CYC:17778
C7AD  F0 F9     BEQ $C7A8                       A:00 X:FF Y:00 P:26 SP:FF CYC:17780
C7A8  AD 02 20  LDA $2002 = 00                  A:00 X:FF Y:00 P:26 SP:FF CYC:17783
C7AB  29 80     AND #$80                        A:00 X:FF Y:00 P:26 SP:FF CYC:17787
C7AD  F0 F9     BEQ $C7A8                       A:00 X:FF Y:00 P:26 SP:FF CYC:17789
C7A8  AD 02 20  LDA $2002 = 00                  A:00 X:FF Y:00 P:26 SP:FF CYC:17792
C7AB  29 80     AND #$80                        A:00 X:FF Y:00 P:26 SP:FF CYC:17796
C7AD  F0 F9     BEQ $C7A8                       A:00 X:FF Y:00 P:26 SP:FF CYC:17798
C7A8  AD 02 20  LDA $2002 = 00                  A:00 X:FF Y:00 P:26 SP:FF CYC:17801
C7AB  29 80     AND #$80                        A:00 X:FF Y:00 P:26 SP:FF CYC:17805
C7AD  F0 F9     BEQ $C7A8                       A:00 X:FF Y:00 P:26 SP:FF CYC:17807
C7A8  AD 02 20  LDA $2002 = 00                  A:00 X:FF Y:00 P:26 SP:FF CYC:17810
C7AB  29 80     AND #$80                        A:00 X:FF Y:00 P:26 SP:FF CYC:17814
C7AD  F0 F9     BEQ $C7A8                       A:00 X:FF Y:00 P:26 SP:FF CYC:17816
C7A8  AD 02 20  LDA $2002 = 00                  A:00 X:FF Y:00 P:26 SP:FF CYC:17819
C7AB  29 80     AND #$80                        A:00 X:FF Y:00 P:26 SP:FF CYC:17823
C7AD  F0 F9     BEQ $C7A8                       A:00 X:FF Y:00 P:26 SP:FF CYC:17825
C7A8  AD 02 20  LDA $2002 = 00                  A:00 X:FF Y:00 P:26 SP:FF CYC:17828
C7AB  29 80     AND #$80                        A:00 X:FF Y:00 P:26 SP:FF CYC:17832
C7AD  F0 F9     BEQ $C7A8                       A:00 X:FF Y:00 P:26 SP:FF CYC:17834
C7A8  AD 02 20  LDA $2002 = 00                  A:00 X:FF Y:00 P:26 SP:FF CYC:17837
C7AB  29 80     AND #$80                        A:00 X:FF Y:00 P:26 SP:FF CYC:17841
C7AD  F0 F9     BEQ $C7A8                       A:00 X:FF Y:00 P:26 SP:FF CYC:17843
C7A8  AD 02 20  LDA $2002 = 00                  A:00 X:FF Y:00 P:26 SP:FF CYC:17846
C7AB  29 80     AND #$80                        A:00 X:FF Y:00 P:26 SP:FF CYC:17850
C7AD  F0 F9     BEQ $C7A8                       A:00 X:FF Y:00 P:26 SP:FF CYC:17852
C7A8  AD 02 20  LDA $2002 = 00                  A:00 X:FF Y:00 P:26 SP:FF CYC:17855
C7AB  29 80     AND #$80                        A:00 X:FF Y:00 P:26 SP:FF CYC:17859
C7AD  F0 F9     BEQ $C7A8                       A:00 X:FF Y:00 P:26 SP:FF CYC:17861
C7A8  AD 02 20  LDA $2002 = 00                  A:00 X:FF Y:00 P:26 SP:FF CYC:17864
C7AB  29 80     AND #$80                        A:00 X:FF Y:00 P:26 SP:FF CYC:17868
C7AD  F0 F9     BEQ $C7A8                       A:00 X:FF Y:00 P:26 SP:FF CYC:17870
C7A8  AD 02 20  LDA $2002 = 00                  A:00 X:FF Y:00 P:26 SP:FF CYC:17873
C7AB  29 80     AND #$80                        A:00 X:FF Y:00 P:26 SP:FF CYC:17877
C7AD  F0 F9     BEQ $C7A8                       A:00 X:FF Y:00 P:26 SP:FF CYC:17879
C7A8  AD 02 20  LDA $2002 = 00                  A:00 X:FF Y:00 P:26 SP:FF CYC:17882
C7AB  29 80     AND #$80                        A:00 X:FF Y:00 P:26 SP:FF CYC:17886
C7AD  F0 F9     BEQ $C7A8                       A:00 X:FF Y:00 P:26 SP:FF CYC:17888
C7A8  AD 02 20  LDA $2002 = 00                  A:00 X:FF Y:00 P:26 SP:FF CYC:17891
C7AB  29 80     AND #$80                        A:00 X:FF Y:00 P:26 SP:FF CYC:17895
C7AD  F0 F9     BEQ $C7A8                       A:00 X:FF Y:00 P:26 SP:FF CYC:17897
C7A8  AD 02 20  LDA $2002 = 00                  A:00 X:FF Y:00 P:26 SP:FF CYC:17900
C7AB  29 80     AND #$80                        A:00 X:FF Y:00 P:26 SP:FF CYC:17904
C7AD  F0 F9     BEQ $C7A8                       A:00 X:FF Y:00 P:26 SP:FF CYC:17906
C7A8  AD 02 20  LDA $2002 = 00                  A:00 X:FF Y:00 P:26 SP:FF CYC:17909
C7AB  29 80     AND #$80                        A:00 X:FF Y:00 P:26 SP:FF CYC:17913
C7AD  F0 F9     BEQ $C7A8                       A:00 X:FF Y:00 P:26 SP:FF CYC:17915
C7A8  AD 02 20  LDA $2002 = 00                  A:00 X:FF Y:00 P:26 SP:FF CYC:17918
C7AB  29 80     AND #$80                        A:00 X:FF Y:00 P:26 SP:FF CYC:17922
C7AD  F0 F9     BEQ $C7A8                       A:00 X:FF Y:00 P:26 SP:FF CYC:17924
C7A8  AD 02 20  LDA $2002 = 00                  A:00 X:FF Y:00 P:26 SP:FF CYC:17927
C7AB  29 80     AND #$80                        A:00 X:FF Y:00 P:26 SP:FF CYC:17931
C7AD  F0 F9     BEQ $C7A8                       A:00 X:FF Y:00 P:26 SP:FF CYC:17933
C7A8  AD 02 20  LDA $2002 = 00                  A:00 X:FF Y:00 P:26 SP:FF CYC:17936
C7AB  29 80     AND #$80                        A:00 X:FF Y:00 P:26 SP:FF CYC:17940
C7AD  F0 F9     BEQ $C7A8                       A:00 X:FF Y:00 P:26 SP:FF CYC:17942
C7A8  AD 02 20  LDA $2002 = 00                  A:00 X:FF Y:00 P:26 SP:FF CYC:17945
C7AB  29 80     AND #$80                        A:00 X:FF Y:00 P:26 SP:FF CYC:17949
C7AD  F0 F9     BEQ $C7A8                       A:00 X:FF Y:00 P:26 SP:FF CYC:17951
C7A8  AD 02 20  LDA $2002 = 00                  A:00 X:FF Y:00 P:26 SP:FF CYC:17954
C7AB  29 80     AND #$80                        A:00 X:FF Y:00 P:26 SP:FF CYC:17958
C7AD  F0 F9     BEQ $C7A8                       A:00 X:FF Y:00 P:26 SP:FF CYC:17960
C7A8  AD 02 20  LDA $2002 = 00                  A:00 X:FF Y:00 P:26 SP:FF CYC:17963
C7AB  29 80     AND #$80                        A:00 X:FF Y:00 P:26 SP:FF CYC:17967
C7AD  F0 F9     BEQ $C7A8                       A:00 X:FF Y:00 P:26 SP:FF CYC:17969
C7A8  AD 02 20  LDA $2002 = 00                  A:00 X:FF Y:00 P:26 SP:FF CYC:17972
C7AB  29 80     AND #$80                        A:00 X:FF Y:00 P:26 SP:FF CYC:17976
C7AD  F0 F9     BEQ $C7A8                       A:00 X:FF Y:00 P:26 SP:FF CYC:17978
C7A8  AD 02 20  LDA $2002 = 00                  A:00 X:FF Y:00 P:26 SP:FF CYC:17981
C7AB  29 80     AND #$80                        A:00 X:FF Y:00 P:26 SP:FF CYC:17985
C7AD  F0 F9     BEQ $C7A8                       A:00 X:FF Y:00 P:26 SP:FF CYC:17987
C7A8  AD 02 20  LDA $2002 = 00                  A:00 X:FF Y:00 P:26 SP:FF CYC:17990
C7AB  29 80     AND #$80                        A:00 X:FF Y:00 P:26 SP:FF CYC:17994
C7AD  F0 F9     BEQ $C7A8                       A:00 X:FF Y:00 P:26 SP:FF CYC:17996
C7A8  AD 02 20  LDA $2002 = 00                  A:00 X:FF Y:00 P:26 SP:FF CYC:17999
C7AB  29 80     AND #$80                        A:00 X:FF Y:00 P:26 SP:FF CYC:18003
C7AD  F0 F9     BEQ $C7A8                       A:00 X:FF Y:00 P:26 SP:FF CYC:18005
C7A8  AD 02 20  LDA $2002 = 00                  A:00 X:FF Y:00 P:26 SP:FF CYC:18008
C7AB  29 80     AND #$80                        A:00 X:FF Y:00 P:26 SP:FF CYC:18012
C7AD  F0 F9     BEQ $C7A8                       A:00 X:FF Y:00 P:26 SP:FF CYC:18014
C7A8  AD 02 20  LDA $2002 = 00                  A:00 X:FF Y:00 P:26 SP:FF CYC:18017
C7AB  29 80     AND #$80                        A:00 X:FF Y:00 P:26 SP:FF CYC:18021
C7AD  F0 F9     BEQ $C7A8                       A:00 X:FF Y:00 P:26 SP:FF CYC:18023
C7A8  AD 02 20  LDA $2002 = 00                  A:00 X:FF Y:00 P:26 SP:FF CYC:18026
C7AB  29 80     AND #$80                        A:00 X:FF Y:00 P:26 SP:FF CYC:18030
C7AD  F0 F9     BEQ $C7A8                       A:00 X:FF Y:00 P:26 SP:FF CYC:18032
C7A8  AD 02 20  LDA $2002 = 00                  A:00 X:FF Y:00 P:26 SP:FF CYC:18035
C7AB  29 80     AND #$80                        A:00 X:FF Y:00 P:26 SP:FF CYC:18039
C7AD  F0 F9     BEQ $C7A8                       A:00 X:FF Y:00 P:26 SP:FF CYC:18041
C7A8  AD 02 20  LDA $2002 = 00                  A:00 X:FF Y:00 P:26 SP:FF CYC:18044
C7AB  29 80     AND #$80                        A:00 X:FF Y:00 P:26 SP:FF CYC:18048
C7AD  F0 F9     BEQ $C7A8                       A:00 X:FF Y:00 P:26 SP:FF CYC:18050
C7A8  AD 02 20  LDA $2002 = 00                  A:00 X:FF Y:00 P:26 SP:FF CYC:18053
C7AB  29 80     AND #$80                        A:00 X:FF Y:00 P:26 SP:FF CYC:18057
C7AD  F0 F9     BEQ $C7A8                       A:00 X:FF Y:00 P:26 SP:FF CYC:18059
C7A8  AD 02 20  LDA $2002 = 00                  A:00 X:FF Y:00 P:26 SP:FF CYC:18062
C7AB  29 80     AND #$80                        A:00 X:FF Y:00 P:26 SP:FF CYC:18066
C7AD  F0 F9     BEQ $C7A8                       A:00 X:FF Y:00 P:26 SP:FF CYC:18068
C7A8  AD 02 20  LDA $2002 = 00                  A:00 X:FF Y:00 P:26 SP:FF CYC:18071
C7AB  29 80     AND #$80                        A:00 X:FF Y:00 P:26 SP:FF CYC:18075
C7AD  F0 F9     BEQ $C7A8                       A:00 X:FF Y:00 P:26 SP:FF CYC:18077
C7A8  AD 02 20  LDA $2002 = 00                  A:00 X:FF Y:00 P:26 SP:FF CYC:18080
C7AB  29 80     AND #$80                        A:00 X:FF Y:00 P:26 SP:FF CYC:18084
C7AD  F0 F9     BEQ $C7A8                       A:00 X:FF Y:00 P:26 SP:FF CYC:18086
C7A8  AD 02 20  LDA $2002 = 00                  A:00 X:FF Y:00 P:26 SP:FF CYC:18089
C7AB  29 80     AND #$80                        A:00 X:FF Y:00 P:26 SP:FF CYC:18093
C7AD  F0 F9     BEQ $C7A8                       A:00 X:FF Y:00 P:26 SP:FF CYC:18095
C7A8  AD 02 20  LDA $2002 = 00                  A:00 X:FF Y:00 P:26 SP:FF CYC:18098
C7AB  29 80     AND #$80                        A:00 X:FF Y:00 P:26 SP:FF CYC:18102
C7AD  F0 F9     BEQ $C7A8                       A:00 X:FF Y:00 P:26 SP:FF CYC:18104
C7A8  AD 02 20  LDA $2002 = 00                  A:00 X:FF Y:00 P:26 SP:FF CYC:18107
C7AB  29 80     AND #$80                        A:00 X:FF Y:00 P:26 SP:FF CYC:18111
C7AD  F0 F9     BEQ $C7A8                       A:00 X:FF Y:00 P:26 SP:FF CYC:18113
C7A8  AD 02 20  LDA $2002 = 00                  A:00 X:FF Y:00 P:26 SP:FF CYC:18116
C7AB  29 80     AND #$80                        A:00 X:FF Y:00 P:26 SP:FF CYC:18120
C7AD  F0 F9     BEQ $C7A8                       A:00 X:FF Y:00 P:26 SP:FF CYC:18122
C7A8  AD 02 20  LDA $2002 = 00                  A:00 X:FF Y:00 P:26 SP:FF CYC:18125
C7AB  29 80     AND #$80                        A:00 X:FF Y:00 P:26 SP:FF CYC:18129
C7AD  F0 F9     BEQ $C7A8                       A:00 X:FF Y:00 P:26 SP:FF CYC:18131
C7A8  AD 02 20  LDA $2002 = 00                  A:00 X:FF Y:00 P:26 SP:FF CYC:18134
C7AB  29 80     AND #$80                        A:00 X:FF Y:00 P:26 SP:FF CYC:18138
C7AD  F0 F9     BEQ $C7A8                       A:00 X:FF Y:00 P:26 SP:FF CYC:18140
C7A8  AD 02 20  LDA $2002 = 00                  A:00 X:FF Y:00 P:26 SP:FF CYC:18143
C7AB  29 80     AND #$80                        A:00 X:FF Y:00 P:26 SP:FF CYC:18147
C7AD  F0 F9     BEQ $C7A8                       A:00 X:FF Y:00 P:26 SP:FF CYC:18149
C7A8  AD 02 20  LDA $2002 = 00                  A:00 X:FF Y:00 P:26 SP:FF CYC:18152
C7AB  29 80     AND #$80                        A:00 X:FF Y:00 P:26 SP:FF CYC:18156
C7AD  F0 F9     BEQ $C7A8                       A:00 X:FF Y:00 P:26 SP:FF CYC:18158
C7A8  AD 02 20  LDA $2002 = 00                  A:00 X:FF Y:00 P:26 SP:FF CYC:18161
C7AB  29 80     AND #$80                        A:00 X:FF Y:00 P:26 SP:FF CYC:18165
C7AD  F0 F9     BEQ $C7A8                       A:00 X:FF Y:00 P:26 SP:FF CYC:18167
C7A8  AD 02 20  LDA $2002 = 00                  A:00 X:FF Y:00 P:26 SP:FF CYC:18170
C7AB  29 80     AND #$80                        A:00 X:FF Y:00 P:26 SP:FF CYC:18174
C7AD  F0 F9     BEQ $C7A8                       A:00 X:FF Y:00 P:26 SP:FF CYC:18176
C7A8  AD 02 20  LDA $2002 = 00                  A:00 X:FF Y:00 P:26 SP:FF CYC:18179
C7AB  29 80     AND #$80                        A:00 X:FF Y:00 P:26 SP:FF CYC:18183
C7AD  F0 F9     BEQ $C7A8                       A:00 X:FF Y:00 P:26 SP:FF CYC:18185
C7A8  AD 02 20  LDA $2002 = 00                  A:00 X:FF Y:00 P:26 SP:FF CYC:18188
C7AB  29 80     AND #$80                        A:00 X:FF Y:00 P:26 SP:FF CYC:18192
C7AD  F0 F9     BEQ $C7A8                       A:00 X:FF Y:00 P:26 SP:FF CYC:18194
C7A8  AD 02 20  LDA $2002 = 00                  A:00 X:FF Y:00 P:26 SP:FF CYC:18197
C7AB  29 80     AND #$80                        A:00 X:FF Y:00 P:26 SP:FF CYC:18201
C7AD  F0 F9     BEQ $C7A8                       A:00 X:FF Y:00 P:26 SP:FF CYC:18203
C7A8  AD 02 20  LDA $2002 = 00                  A:00 X:FF Y:00 P:26 SP:FF CYC:18206
C7AB  29 80     AND #$80                        A:00 X:FF Y:00 P:26 SP:FF CYC:18210
C7AD  F0 F9     BEQ $C7A8                       A:00 X:FF Y:00 P:26 SP:FF CYC:18212
C7A8  AD 02 20  LDA $2002 = 00                  A:00 X:FF Y:00 P:26 SP:FF CYC:18215
C7AB  29 80     AND #$80                        A:00 X:FF Y:00 P:26 SP:FF CYC:18219
C7AD  F0 F9     BEQ $C7A8                       A:00 X:FF Y:00 P:26 SP:FF CYC:18221
C7A8  AD 02 20  LDA $2002 = 00                  A:00 X:FF Y:00 P:26 SP:FF CYC:18224
C7AB  29 80     AND #$80                        A:00 X:FF Y:00 P:26 SP:FF CYC:18228
C7AD  F0 F9     BEQ $C7A8                       A:00 X:FF Y:00 P:26 SP:FF CYC:18230
C7A8  AD 02 20  LDA $2002 = 00                  A:00 X:FF Y:00 P:26 SP:FF CYC:18233
C7AB  29 80     AND #$80                        A:00 X:FF Y:00 P:26 SP:FF CYC:18237
C7AD  F0 F9     BEQ $C7A8                       A:00 X:FF Y:00 P:26 SP:FF CYC:18239
C7A8  AD 02 20  LDA $2002 = 00                  A:00 X:FF Y:00 P:26 SP:FF CYC:18242
C7AB  29 80     AND #$80                        A:00 X:FF Y:00 P:26 SP:FF CYC:18246
C7AD  F0 F9     BEQ $C7A8                       A:00 X:FF Y:00 P:26 SP:FF CYC:18248
C7A8  AD 02 20  LDA $2002 = 00                  A:00 X:FF Y:00 P:26 SP:FF CYC:18251
C7AB  29 80     AND #$80                        A:00 X:FF Y:00 P:26 SP:FF CYC:18255
C7AD  F0 F9     BEQ $C7A8                       A:00 X:FF Y:00 P:26 SP:FF CYC:18257
C7A8  AD 02 20  LDA $2002 = 00                  A:00 X:FF Y:00 P:26 SP:FF CYC:18260
C7AB  29 80     AND #$80                        A:00 X:FF Y:00 P:26 SP:FF CYC:18264
C7AD  F0 F9     BEQ $C7A8                       A:00 X:FF Y:00 P:26 SP:FF CYC:18266
C7A8  AD 02 20  LDA $2002 = 00                  A:00 X:FF Y:00 P:26 SP:FF CYC:18269
C7AB  29 80     AND #$80                        A:00 X:FF Y:00 P:26 SP:FF CYC:18273
C7AD  F0 F9     BEQ $C7A8                       A:00 X:FF Y:00 P:26 SP:FF CYC:18275
C7A8  AD 02 20  LDA $2002 = 00                  A:00 X:FF Y:00 P:26 SP:FF CYC:18278
C7AB  29 80     AND #$80                        A:00 X:FF Y:00 P:26 SP:FF CYC:18282
C7AD  F0 F9     BEQ $C7A8                       A:00 X:FF Y:00 P:26 SP:FF CYC:18284
C7A8  AD 02 20  LDA $2002 = 00                  A:00 X:FF Y:00 P:26 SP:FF CYC:18287
C7AB  29 80     AND #$80                        A:00 X:FF Y:00 P:26 SP:FF CYC:18291
C7AD  F0 F9     BEQ $C7A8                       A:00 X:FF Y:00 P:26 SP:FF CYC:18293
C7A8  AD 02 20  LDA $2002 = 00                  A:00 X:FF Y:00 P:26 SP:FF CYC:18296
C7AB  29 80     AND #$80                        A:00 X:FF Y:00 P:26 SP:FF CYC:18300
C7AD  F0 F9     BEQ $C7A8                       A:00 X:FF Y:00 P:26 SP:FF CYC:18302
C7A8  AD 02 20  LDA $2002 = 00                  A:00 X:FF Y:00 P:26 SP:FF CYC:18305
C7AB  29 80     AND #$80                        A:00 X:FF Y:00 P:26 SP:FF CYC:18309
C7AD  F0 F9     BEQ $C7A8                       A:00 X:FF Y:00 P:26 SP:FF CYC:18311
C7A8  AD 02 20  LDA $2002 = 00                  A:00 X:FF Y:00 P:26 SP:FF CYC:18314
C7AB  29 80     AND #$80                        A:00 X:FF Y:00 P:26 SP:FF CYC:18318
C7AD  F0 F9     BEQ $C7A8                       A:00 X:FF Y:00 P:26 SP:FF CYC:18320
C7A8  AD 02 20  LDA $2002 = 00                  A:00 X:FF Y:00 P:26 SP:FF CYC:18323
C7AB  29 80     AND #$80                        A:00 X:FF Y:00 P:26 SP:FF CYC:18327
C7AD  F0 F9     BEQ $C7A8                       A:00 X:FF Y:00 P:26 SP:FF CYC:18329
C7A8  AD 02 20  LDA $2002 = 00                  A:00 X:FF Y:00 P:26 SP:FF CYC:18332
C7AB  29 80     AND #$80                        A:00 X:FF Y:00 P:26 SP:FF CYC:18336
C7AD  F0 F9     BEQ $C7A8                       A:00 X:FF Y:00 P:26 SP:FF CYC:18338
C7A8  AD 02 20  LDA $2002 = 00                  A:00 X:FF Y:00 P:26 SP:FF CYC:18341
C7AB  29 80     AND #$80                        A:00 X:FF Y:00 P:26 SP:FF CYC:18345
C7AD  F0 F9     BEQ $C7A8                       A:00 X:FF Y:00 P:26 SP:FF CYC:18347
C7A8  AD 02 20  LDA $2002 = 00                  A:00 X:FF Y:00 P:26 SP:FF CYC:18350
C7AB  29 80     AND #$80                        A:00 X:FF Y:00 P:26 SP:FF CYC:18354
C7AD  F0 F9     BEQ $C7A8                       A:00 X:FF Y:00 P:26 SP:FF CYC:18356
C7A8  AD 02 20  LDA $2002 = 00                  A:00 X:FF Y:00 P:26 SP:FF CYC:18359
C7AB  29 80     AND #$80                        A:00 X:FF Y:00 P:26 SP:FF CYC:18363
C7AD  F0 F9     BEQ $C7A8                       A:00 X:FF Y:00 P:26 SP:FF CYC:18365
C7A8  AD 02 20  LDA $2002 = 00                  A:00 X:FF Y:00 P:26 SP:FF CYC:18368
C7AB  29 80     AND #$80                        A:00 X:FF Y:00 P:26 SP:FF CYC:18372
C7AD  F0 F9     BEQ $C7A8                       A:00 X:FF Y:00 P:26 SP:FF CYC:18374
C7A8  AD 02 20  LDA $2002 = 00                  A:00 X:FF Y:00 P:26 SP:FF CYC:18377
C7AB  29 80     AND #$80                        A:00 X:FF Y:00 P:26 SP:FF CYC:18381
C7AD  F0 F9     BEQ $C7A8                       A:00 X:FF Y:00 P:26 SP:FF CYC:18383
C7A8  AD 02 20  LDA $2002 = 00                  A:00 X:FF Y:00 P:26 SP:FF CYC:18386
C7AB  29 80     AND #$80                        A:00 X:FF Y:00 P:26 SP:FF CYC:18390
C7AD  F0 F9     BEQ $C7A8                       A:00 X:FF Y:00 P:26 SP:FF CYC:18392
C7A8  AD 02 20  LDA $2002 = 00                  A:00 X:FF Y:00 P:26 SP:FF CYC:18395
C7AB  29 80     AND #$80                        A:00 X:FF Y:00 P:26 SP:FF CYC:18399
C7AD  F0 F9     BEQ $C7A8                       A:00 X:FF Y:00 P:26 SP:FF CYC:18401
C7A8  AD 02 20  LDA $2002 = 00                  A:00 X:FF Y:00 P:26 SP:FF CYC:18404
C7AB  29 80     AND #$80                        A:00 X:FF Y:00 P:26 SP:FF CYC:18408
C7AD  F0 F9     BEQ $C7A8                       A:00 X:FF Y:00 P:26 SP:FF CYC:18410
C7A8  AD 02 20  LDA $2002 = 00                  A:00 X:FF Y:00 P:26 SP:FF CYC:18413
C7AB  29 80     AND #$80                        A:00 X:FF Y:00 P:26 SP:FF CYC:18417
C7AD  F0 F9     BEQ $C7A8                       A:00 X:FF Y:00 P:26 SP:FF CYC:18419
C7A8  AD 02 20  LDA $2002 = 00                  A:00 X:FF Y:00 P:26 SP:FF CYC:18422
C7AB  29 80     AND #$80                        A:00 X:FF Y:00 P:26 SP:FF CYC:18426
C7AD  F0 F9     BEQ $C7A8                       A:00 X:FF Y:00 P:26 SP:FF CYC:18428
C7A8  AD 02 20  LDA $2002 = 00                  A:00 X:FF Y:00 P:26 SP:FF CYC:18431
C7AB  29 80     AND #$80                        A:00 X:FF Y:00 P:26 SP:FF CYC:18435
C7AD  F0 F9     BEQ $C7A8                       A:00 X:FF Y:00 P:26 SP:FF CYC:18437
C7A8  AD 02 20  LDA $2002 = 00                  A:00 X:FF Y:00 P:26 SP:FF CYC:18440
C7AB  29 80     AND #$80                        A:00 X:FF Y:00 P:26 SP:FF CYC:18444
C7AD  F0 F9     BEQ $C7A8                       A:00 X:FF Y:00 P:26 SP:FF CYC:18446
C7A8  AD 02 20  LDA $2002 = 00                  A:00 X:FF Y:00 P:26 SP:FF CYC:18449
C7AB  29 80     AND #$80                        A:00 X:FF Y:00 P:26 SP:FF CYC:18453
C7AD  F0 F9     BEQ $C7A8                       A:00 X:FF Y:00 P:26 SP:FF CYC:18455
C7A8  AD 02 20  LDA $2002 = 00                  A:00 X:FF Y:00 P:26 SP:FF CYC:18458
C7AB  29 80     AND #$80                        A:00 X:FF Y:00 P:26 SP:FF CYC:18462
C7AD  F0 F9     BEQ $C7A8                       A:00 X:FF Y:00 P:26 SP:FF CYC:18464
C7A8  AD 02 20  LDA $2002 = 00                  A:00 X:FF Y:00 P:26 SP:FF CYC:18467
C7AB  29 80     AND #$80                        A:00 X:FF Y:00 P:26 SP:FF CYC:18471
C7AD  F0 F9     BEQ $C7A8                       A:00 X:FF Y:00 P:26 SP:FF CYC:18473
C7A8  AD 02 20  LDA $2002 = 00                  A:00 X:FF Y:00 P:26 SP:FF CYC:18476
C7AB  29 80     AND #$80                        A:00 X:FF Y:00 P:26 SP:FF CYC:18480
C7AD  F0 F9     BEQ $C7A8                       A:00 X:FF Y:00 P:26 SP:FF CYC:18482
C7A8  AD 02 20  LDA $2002 = 00                  A:00 X:FF Y:00 P:26 SP:FF CYC:18485
C7AB  29 80     AND #$80                        A:00 X:FF Y:00 P:26 SP:FF CYC:18489
C7AD  F0 F9     BEQ $C7A8                       A:00 X:FF Y:00 P:26 SP:FF CYC:18491
C7A8  AD 02 20  LDA $2002 = 00                  A:00 X:FF Y:00 P:26 SP:FF CYC:18494
C7AB  29 80     AND #$80                        A:00 X:FF Y:00 P:26 SP:FF CYC:18498
C7AD  F0 F9     BEQ $C7A8                       A:00 X:FF Y:00 P:26 SP:FF CYC:18500
C7A8  AD 02 20  LDA $2002 = 00                  A:00 X:FF Y:00 P:26 SP:FF CYC:18503
C7AB  29 80     AND #$80                        A:00 X:FF Y:00 P:26 SP:FF CYC:18507
C7AD  F0 F9     BEQ $C7A8                       A:00 X:FF Y:00 P:26 SP:FF CYC:18509
C7A8  AD 02 20  LDA $2002 = 00                  A:00 X:FF Y:00 P:26 SP:FF CYC:18512
C7AB  29 80     AND #$80                        A:00 X:FF Y:00 P:26 SP:FF CYC:18516
C7AD  F0 F9     BEQ $C7A8                       A:00 X:FF Y:00 P:26 SP:FF CYC:18518
C7A8  AD 02 20  LDA $2002 = 00                  A:00 X:FF Y:00 P:26 SP:FF CYC:18521
C7AB  29 80     AND #$80                        A:00 X:FF Y:00 P:26 SP:FF CYC:18525
C7AD  F0 F9     BEQ $C7A8                       A:00 X:FF Y:00 P:26 SP:FF CYC:18527
C7A8  AD 02 20  LDA $2002 = 00                  A:00 X:FF Y:00 P:26 SP:FF CYC:18530
C7AB  29 80     AND #$80                        A:00 X:FF Y:00 P:26 SP:FF CYC:18534
C7AD  F0 F9     BEQ $C7A8                       A:00 X:FF Y:00 P:26 SP:FF CYC:18536
C7A8  AD 02 20  LDA $2002 = 00                  A:00 X:FF Y:00 P:26 SP:FF CYC:18539
C7AB  29 80     AND #$80                        A:00 X:FF Y:00 P:26 SP:FF CYC:18543
C7AD  F0 F9     BEQ $C7A8                       A:00 X:FF Y:00 P:26 SP:FF CYC:18545
C7A8  AD 02 20  LDA $2002 = 00                  A:00 X:FF Y:00 P:26 SP:FF CYC:18548
C7AB  29 80     AND #$80                        A:00 X:FF Y:00 P:26 SP:FF CYC:18552
C7AD  F0 F9     BEQ $C7A8                       A:00 X:FF Y:00 P:26 SP:FF CYC:18554
C7A8  AD 02 20  LDA $2002 = 00                  A:00 X:FF Y:00 P:26 SP:FF CYC:18557
C7AB  29 80     AND #$80                        A:00 X:FF Y:00 P:26 SP:FF CYC:18561
C7AD  F0 F9     BEQ $C7A8                       A:00 X:FF Y:00 P:26 SP:FF CYC:18563
C7A8  AD 02 20  LDA $2002 = 00                  A:00 X:FF Y:00 P:26 SP:FF CYC:18566
C7AB  29 80     AND #$80                        A:00 X:FF Y:00 P:26 SP:FF CYC:18570
C7AD  F0 F9     BEQ $C7A8                       A:00 X:FF Y:00 P:26 SP:FF CYC:18572
C7A8  AD 02 20  LDA $2002 = 00                  A:00 X:FF Y:00 P:26 SP:FF CYC:18575
C7AB  29 80     AND #$80                        A:00 X:FF Y:00 P:26 SP:FF CYC:18579
C7AD  F0 F9     BEQ $C7A8                       A:00 X:FF Y:00 P:26 SP:FF CYC:18581
C7A8  AD 02 20  LDA $2002 = 00                  A:00 X:FF Y:00 P:26 SP:FF CYC:18584
C7AB  29 80     AND #$80                        A:00 X:FF Y:00 P:26 SP:FF CYC:18588
C7AD  F0 F9     BEQ $C7A8                       A:00 X:FF Y:00 P:26 SP:FF CYC:18590
C7A8  AD 02 20  LDA $2002 = 00                  A:00 X:FF Y:00 P:26 SP:FF CYC:18593
C7AB  29 80     AND #$80                        A:00 X:FF Y:00 P:26 SP:FF CYC:18597
C7AD  F0 F9     BEQ $C7A8                       A:00 X:FF Y:00 P:26 SP:FF CYC:18599
C7A8  AD 02 20  LDA $2002 = 00                  A:00 X:FF Y:00 P:26 SP:FF CYC:18602
C7AB  29 80     AND #$80                        A:00 X:FF Y:00 P:26 SP:FF CYC:18606
C7AD  F0 F9     BEQ $C7A8                       A:00 X:FF Y:00 P:26 SP:FF CYC:18608
C7A8  AD 02 20  LDA $2002 = 00                  A:00 X:FF Y:00 P:26 SP:FF CYC:18611
C7AB  29 80     AND #$80                        A:00 X:FF Y:00 P:26 SP:FF CYC:18615
C7AD  F0 F9     BEQ $C7A8                       A:00 X:FF Y:00 P:26 SP:FF CYC:18617
C7A8  AD 02 20  LDA $2002 = 00                  A:00 X:FF Y:00 P:26 SP:FF CYC:18620
C7AB  29 80     AND #$80                        A:00 X:FF Y:00 P:26 SP:FF CYC:18624
C7AD  F0 F9     BEQ $C7A8                       A:00 X:FF Y:00 P:26 SP:FF CYC:18626
C7A8  AD 02 20  LDA $2002 = 00                  A:00 X:FF Y:00 P:26 SP:FF CYC:18629
C7AB  29 80     AND #$80                        A:00 X:FF Y:00 P:26 SP:FF CYC:18633
C7AD  F0 F9     BEQ $C7A8                       A:00 X:FF Y:00 P:26 SP:FF CYC:18635
C7A8  AD 02 20  LDA $2002 = 00                  A:00 X:FF Y:00 P:26 SP:FF CYC:18638
C7AB  29 80     AND #$80                        A:00 X:FF Y:00 P:26 SP:FF CYC:18642
C7AD  F0 F9     BEQ $C7A8                       A:00 X:FF Y:00 P:26 SP:FF CYC:18644
C7A8  AD 02 20  LDA $2002 = 00                  A:00 X:FF Y:00 P:26 SP:FF CYC:18647
C7AB  29 80     AND #$80                        A:00 X:FF Y:00 P:26 SP:FF CYC:18651
C7AD  F0 F9     BEQ $C7A8                       A:00 X:FF Y:00 P:26 SP:FF CYC:18653
C7A8  AD 02 20  LDA $2002 = 00                  A:00 X:FF Y:00 P:26 SP:FF CYC:18656
C7AB  29 80     AND #$80                        A:00 X:FF Y:00 P:26 SP:FF CYC:18660
C7AD  F0 F9     BEQ $C7A8                       A:00 X:FF Y:00 P:26 SP:FF CYC:18662
C7A8  AD 02 20  LDA $2002 = 00                  A:00 X:FF Y:00 P:26 SP:FF CYC:18665
C7AB  29 80     AND #$80                        A:00 X:FF Y:00 P:26 SP:FF CYC:18669
C7AD  F0 F9     BEQ $C7A8                       A:00 X:FF Y:00 P:26 SP:FF CYC:18671
C7A8  AD 02 20  LDA $2002 = 00                  A:00 X:FF Y:00 P:26 SP:FF CYC:18674
C7AB  29 80     AND #$80                        A:00 X:FF Y:00 P:26 SP:FF CYC:18678
C7AD  F0 F9     BEQ $C7A8                       A:00 X:FF Y:00 P:26 SP:FF CYC:18680
C7A8  AD 02 20  LDA $2002 = 00                  A:00 X:FF Y:00 P:26 SP:FF CYC:18683
C7AB  29 80     AND #$80                        A:00 X:FF Y:00 P:26 SP:FF CYC:18687
C7AD  F0 F9     BEQ $C7A8                       A:00 X:FF Y:00 P:26 SP:FF CYC:18689
C7A8  AD 02 20  LDA $2002 = 00                  A:00 X:FF Y:00 P:26 SP:FF CYC:18692
C7AB  29 80     AND #$80                        A:00 X:FF Y:00 P:26 SP:FF CYC:18696
C7AD  F0 F9     BEQ $C7A8                       A:00 X:FF Y:00 P:26 SP:FF CYC:18698
C7A8  AD 02 20  LDA $2002 = 00                  A:00 X:FF Y:00 P:26 SP:FF CYC:18701
C7AB  29 80     AND #$80                        A:00 X:FF Y:00 P:26 SP:FF CYC:18705
C7AD  F0 F9     BEQ $C7A8                       A:00 X:FF Y:00 P:26 SP:FF CYC:18707
C7A8  AD 02 20  LDA $2002 = 00                  A:00 X:FF Y:00 P:26 SP:FF CYC:18710
C7AB  29 80     AND #$80                        A:00 X:FF Y:00 P:26 SP:FF CYC:18714
C7AD  F0 F9     BEQ $C7A8                       A:00 X:FF Y:00 P:26 SP:FF CYC:18716
C7A8  AD 02 20  LDA $2002 = 00                  A:00 X:FF Y:00 P:26 SP:FF CYC:18719
C7AB  29 80     AND #$80                        A:00 X:FF Y:00 P:26 SP:FF CYC:18723
C7AD  F0 F9     BEQ $C7A8                       A:00 X:FF Y:00 P:26 SP:FF CYC:18725
C7A8  AD 02 20  LDA $2002 = 00                  A:00 X:FF Y:00 P:26 SP:FF CYC:18728
C7AB  29 80     AND #$80                        A:00 X:FF Y:00 P:26 SP:FF CYC:18732
C7AD  F0 F9     BEQ $C7A8                       A:00 X:FF Y:00 P:26 SP:FF CYC:18734
C7A8  AD 02 20  LDA $2002 = 00                  A:00 X:FF Y:00 P:26 SP:FF CYC:18737
C7AB  29 80     AND #$80                        A:00 X:FF Y:00 P:26 SP:FF CYC:18741
C7AD  F0 F9     BEQ $C7A8                       A:00 X:FF Y:00 P:26 SP:FF CYC:18743
C7A8  AD 02 20  LDA $2002 = 00                  A:00 X:FF Y:00 P:26 SP:FF CYC:18746
C7AB  29 80     AND #$80                        A:00 X:FF Y:00 P:26 SP:FF CYC:18750
C7AD  F0 F9     BEQ $C7A8                       A:00 X:FF Y:00 P:26 SP:FF CYC:18752
C7A8  AD 02 20  LDA $2002 = 00                  A:00 X:FF Y:00 P:26 SP:FF CYC:18755
C7AB  29 80     AND #$80                        A:00 X:FF Y:00 P:26 SP:FF CYC:18759
C7AD  F0 F9     BEQ $C7A8                       A:00 X:FF Y:00 P:26 SP:FF CYC:18761
C7A8  AD 02 20  LDA $2002 = 00                  A:00 X:FF Y:00 P:26 SP:FF CYC:18764
C7AB  29 80     AND #$80                        A:00 X:FF Y:00 P:26 SP:FF CYC:18768
C7AD  F0 F9     BEQ $C7A8                       A:00 X:FF Y:00 P:26 SP:FF CYC:18770
C7A8  AD 02 20  LDA $2002 = 00                  A:00 X:FF Y:00 P:26 SP:FF CYC:18773
C7AB  29 80     AND #$80                        A:00 X:FF Y:00 P:26 SP:FF CYC:18777
C7AD  F0 F9     BEQ $C7A8                       A:00 X:FF Y:00 P:26 SP:FF CYC:18779
C7A8  AD 02 20  LDA $2002 = 00                  A:00 X:FF Y:00 P:26 SP:FF CYC:18782
C7AB  29 80     AND #$80                        A:00 X:FF Y:00 P:26 SP:FF CYC:18786
C7AD  F0 F9     BEQ $C7A8                       A:00 X:FF Y:00 P:26 SP:FF CYC:18788
C7A8  AD 02 20  LDA $2002 = 00                  A:00 X:FF Y:00 P:26 SP:FF CYC:18791
C7AB  29 80     AND #$80                        A:00 X:FF Y:00 P:26 SP:FF CYC:18795
C7AD  F0 F9     BEQ $C7A8                       A:00 X:FF Y:00 P:26 SP:FF CYC:18797
C7A8  AD 02 20  LDA $2002 = 00                  A:00 X:FF Y:00 P:26 SP:FF CYC:18800
C7AB  29 80     AND #$80                        A:00 X:FF Y:00 P:26 SP:FF CYC:18804
C7AD  F0 F9     BEQ $C7A8                       A:00 X:FF Y:00 P:26 SP:FF CYC:18806
C7A8  AD 02 20  LDA $2002 = 00                  A:00 X:FF Y:00 P:26 SP:FF CYC:18809
C7AB  29 80     AND #$80                        A:00 X:FF Y:00 P:26 SP:FF CYC:18813
C7AD  F0 F9     BEQ $C7A8                       A:00 X:FF Y:00 P:26 SP:FF CYC:18815
C7A8  AD 02 20  LDA $2002 = 00                  A:00 X:FF Y:00 P:26 SP:FF CYC:18818
C7AB  29 80     AND #$80                        A:00 X:FF Y:00 P:26 SP:FF CYC:18822
C7AD  F0 F9     BEQ $C7A8                       A:00 X:FF Y:00 P:26 SP:FF CYC:18824
C7A8  AD 02 20  LDA $2002 = 00                  A:00 X:FF Y:00 P:26 SP:FF CYC:18827
C7AB  29 80     AND #$80                        A:00 X:FF Y:00 P:26 SP:FF CYC:18831
C7AD  F0 F9     BEQ $C7A8                       A:00 X:FF Y:00 P:26 SP:FF CYC:18833
C7A8  AD 02 20  LDA $2002 = 00                  A:00 X:FF Y:00 P:26 SP:FF CYC:18836
C7AB  29 80     AND #$80                        A:00 X:FF Y:00 P:26 SP:FF CYC:18840
C7AD  F0 F9     BEQ $C7A8                       A:00 X:FF Y:00 P:26 SP:FF CYC:18842
C7A8  AD 02 20  LDA $2002 = 00                  A:00 X:FF Y:00 P:26 SP:FF CYC:18845
C7AB  29 80     AND #$80                        A:00 X:FF Y:00 P:26 SP:FF CYC:18849
C7AD  F0 F9     BEQ $C7A8                       A:00 X:FF Y:00 P:26 SP:FF CYC:18851
C7A8  AD 02 20  LDA $2002 = 00                  A:00 X:FF Y:00 P:26 SP:FF CYC:18854
C7AB  29 80     AND #$80                        A:00 X:FF Y:00 P:26 SP:FF CYC:18858
C7AD  F0 F9     BEQ $C7A8                       A:00 X:FF Y:00 P:26 SP:FF CYC:18860
C7A8  AD 02 20  LDA $2002 = 00                  A:00 X:FF Y:00 P:26 SP:FF CYC:18863
C7AB  29 80     AND #$80                        A:00 X:FF Y:00 P:26 SP:FF CYC:18867
C7AD  F0 F9     BEQ $C7A8                       A:00 X:FF Y:00 P:26 SP:FF CYC:18869
C7A8  AD 02 20  LDA $2002 = 00                  A:00 X:FF Y:00 P:26 SP:FF CYC:18872
C7AB  29 80     AND #$80                        A:00 X:FF Y:00 P:26 SP:FF CYC:18876
C7AD  F0 F9     BEQ $C7A8                       A:00 X:FF Y:00 P:26 SP:FF CYC:18878
C7A8  AD 02 20  LDA $2002 = 00                  A:00 X:FF Y:00 P:26 SP:FF CYC:18881
C7AB  29 80     AND #$80                        A:00 X:FF Y:00 P:26 SP:FF CYC:18885
C7AD  F0 F9     BEQ $C7A8                       A:00 X:FF Y:00 P:26 SP:FF CYC:18887
C7A8  AD 02 20  LDA $2002 = 00                  A:00 X:FF Y:00 P:26 SP:FF CYC:18890
C7AB  29 80     AND #$80                        A:00 X:FF Y:00 P:26 SP:FF CYC:18894
C7AD  F0 F9     BEQ $C7A8                       A:00 X:FF Y:00 P:26 SP:FF CYC:18896
C7A8  AD 02 20  LDA $2002 = 00                  A:00 X:FF Y:00 P:26 SP:FF CYC:18899
C7AB  29 80     AND #$80                        A:00 X:FF Y:00 P:26 SP:FF CYC:18903
C7AD  F0 F9     BEQ $C7A8                       A:00 X:FF Y:00 P:26 SP:FF CYC:18905
C7A8  AD 02 20  LDA $2002 = 00                  A:00 X:FF Y:00 P:26 SP:FF CYC:18908
C7AB  29 80     AND #$80                        A:00 X:FF Y:00 P:26 SP:FF CYC:18912
C7AD  F0 F9     BEQ $C7A8                       A:00 X:FF Y:00 P:26 SP:FF CYC:18914
C7A8  AD 02 20  LDA $2002 = 00                  A:00 X:FF Y:00 P:26 SP:FF CYC:18917
C7AB  29 80     AND #$80                        A:00 X:FF Y:00 P:26 SP:FF CYC:18921
C7AD  F0 F9     BEQ $C7A8                       A:00 X:FF Y:00 P:26 SP:FF CYC:18923
C7A8  AD 02 20  LDA $2002 = 00                  A:00 X:FF Y:00 P:26 SP:FF CYC:18926
C7AB  29 80     AND #$80                        A:00 X:FF Y:00 P:26 SP:FF CYC:18930
C7AD  F0 F9     BEQ $C7A8                       A:00 X:FF Y:00 P:26 SP:FF CYC:18932
C7A8  AD 02 20  LDA $2002 = 00                  A:00 X:FF Y:00 P:26 SP:FF CYC:18935
C7AB  29 80     AND #$80                        A:00 X:FF Y:00 P:26 SP:FF CYC:18939
C7AD  F0 F9     BEQ $C7A8                       A:00 X:FF Y:00 P:26 SP:FF CYC:18941
C7A8  AD 02 20  LDA $2002 = 00                  A:00 X:FF Y:00 P:26 SP:FF CYC:18944
C7AB  29 80     AND #$80                        A:00 X:FF Y:00 P:26 SP:FF CYC:18948
C7AD  F0 F9     BEQ $C7A8                       A:00 X:FF Y:00 P:26 SP:FF CYC:18950
C7A8  AD 02 20  LDA $2002 = 00                  A:00 X:FF Y:00 P:26 SP:FF CYC:18953
C7AB  29 80     AND #$80                        A:00 X:FF Y:00 P:26 SP:FF CYC:18957
C7AD  F0 F9     BEQ $C7A8                       A:00 X:FF Y:00 P:26 SP:FF CYC:18959
C7A8  AD 02 20  LDA $2002 = 00                  A:00 X:FF Y:00 P:26 SP:FF CYC:18962
C7AB  29 80     AND #$80                        A:00 X:FF Y:00 P:26 SP:FF CYC:18966
C7AD  F0 F9     BEQ $C7A8                       A:00 X:FF Y:00 P:26 SP:FF CYC:18968
C7A8  AD 02 20  LDA $2002 = 00                  A:00 X:FF Y:00 P:26 SP:FF CYC:18971
C7AB  29 80     AND #$80                        A:00 X:FF Y:00 P:26 SP:FF CYC:18975
C7AD  F0 F9     BEQ $C7A8                       A:00 X:FF Y:00 P:26 SP:FF CYC:18977
C7A8  AD 02 20  LDA $2002 = 00                  A:00 X:FF Y:00 P:26 SP:FF CYC:18980
C7AB  29 80     AND #$80                        A:00 X:FF Y:00 P:26 SP:FF CYC:18984
C7AD  F0 F9     BEQ $C7A8                       A:00 X:FF Y:00 P:26 SP:FF CYC:18986
C7A8  AD 02 20  LDA $2002 = 00                  A:00 X:FF Y:00 P:26 SP:FF CYC:18989
C7AB  29 80     AND #$80                        A:00 X:FF Y:00 P:26 SP:FF CYC:18993
C7AD  F0 F9     BEQ $C7A8                       A:00 X:FF Y:00 P:26 SP:FF CYC:18995
C7A8  AD 02 20  LDA $2002 = 00                  A:00 X:FF Y:00 P:26 SP:FF CYC:18998
C7AB  29 80     AND #$80                        A:00 X:FF Y:00 P:26 SP:FF CYC:19002
C7AD  F0 F9     BEQ $C7A8                       A:00 X:FF Y:00 P:26 SP:FF CYC:19004
C7A8  AD 02 20  LDA $2002 = 00                  A:00 X:FF Y:00 P:26 SP:FF CYC:19007
C7AB  29 80     AND #$80                        A:00 X:FF Y:00 P:26 SP:FF CYC:19011
C7AD  F0 F9     BEQ $C7A8                       A:00 X:FF Y:00 P:26 SP:FF CYC:19013
C7A8  AD 02 20  LDA $2002 = 00                  A:00 X:FF Y:00 P:26 SP:FF CYC:19016
C7AB  29 80     AND #$80                        A:00 X:FF Y:00 P:26 SP:FF CYC:19020
C7AD  F0 F9     BEQ $C7A8                       A:00 X:FF Y:00 P:26 SP:FF CYC:19022
C7A8  AD 02 20  LDA $2002 = 00                  A:00 X:FF Y:00 P:26 SP:FF CYC:19025
C7AB  29 80     AND #$80                        A:00 X:FF Y:00 P:26 SP:FF CYC:19029
C7AD  F0 F9     BEQ $C7A8                       A:00 X:FF Y:00 P:26 SP:FF CYC:19031
C7A8  AD 02 20  LDA $2002 = 00                  A:00 X:FF Y:00 P:26 SP:FF CYC:19034
C7AB  29 80     AND #$80                        A:00 X:FF Y:00 P:26 SP:FF CYC:19038
C7AD  F0 F9     BEQ $C7A8                       A:00 X:FF Y:00 P:26 SP:FF CYC:19040
C7A8  AD 02 20  LDA $2002 = 00                  A:00 X:FF Y:00 P:26 SP:FF CYC:19043
C7AB  29 80     AND #$80                        A:00 X:FF Y:00 P:26 SP:FF CYC:19047
C7AD  F0 F9     BEQ $C7A8                       A:00 X:FF Y:00 P:26 SP:FF CYC:19049
C7A8  AD 02 20  LDA $2002 = 00                  A:00 X:FF Y:00 P:26 SP:FF CYC:19052
C7AB  29 80     AND #$80                        A:00 X:FF Y:00 P:26 SP:FF CYC:19056
C7AD  F0 F9     BEQ $C7A8                       A:00 X:FF Y:00 P:26 SP:FF CYC:19058
C7A8  AD 02 20  LDA $2002 = 00                  A:00 X:FF Y:00 P:26 SP:FF CYC:19061
C7AB  29 80     AND #$80                        A:00 X:FF Y:00 P:26 SP:FF CYC:19065
C7AD  F0 F9     BEQ $C7A8                       A:00 X:FF Y:00 P:26 SP:FF CYC:19067
C7A8  AD 02 20  LDA $2002 = 00                  A:00 X:FF Y:00 P:26 SP:FF CYC:19070
C7AB  29 80     AND #$80                        A:00 X:FF Y:00 P:26 SP:FF CYC:19074
C7AD  F0 F9     BEQ $C7A8                       A:00 X:FF Y:00 P:26 SP:FF CYC:19076
C7A8  AD 02 20  LDA $2002 = 00                  A:00 X:FF Y:00 P:26 SP:FF CYC:19079
C7AB  29 80     AND #$80                        A:00 X:FF Y:00 P:26 SP:FF CYC:19083
C7AD  F0 F9     BEQ $C7A8                       A:00 X:FF Y:00 P:26 SP:FF CYC:19085
C7A8  AD 02 20  LDA $2002 = 00                  A:00 X:FF Y:00 P:26 SP:FF CYC:19088
C7AB  29 80     AND #$80                        A:00 X:FF Y:00 P:26 SP:FF CYC:19092
C7AD  F0 F9     BEQ $C7A8                       A:00 X:FF Y:00 P:26 SP:FF CYC:19094
C7A8  AD 02 20  LDA $2002 = 00                  A:00 X:FF Y:00 P:26 SP:FF CYC:19097
C7AB  29 80     AND #$80                        A:00 X:FF Y:00 P:26 SP:FF CYC:19101
C7AD  F0 F9     BEQ $C7A8                       A:00 X:FF Y:00 P:26 SP:FF CYC:19103
C7A8  AD 02 20  LDA $2002 = 00                  A:00 X:FF Y:00 P:26 SP:FF CYC:19106
C7AB  29 80     AND #$80                        A:00 X:FF Y:00 P:26 SP:FF CYC:19110
C7AD  F0 F9     BEQ $C7A8                       A:00 X:FF Y:00 P:26 SP:FF CYC:19112
C7A8  AD 02 20  LDA $2002 = 00                  A:00 X:FF Y:00 P:26 SP:FF CYC:19115
C7AB  29 80     AND #$80                        A:00 X:FF Y:00 P:26 SP:FF CYC:19119
C7AD  F0 F9     BEQ $C7A8                       A:00 X:FF Y:00 P:26 SP:FF CYC:19121
C7A8  AD 02 20  LDA $2002 = 00                  A:00 X:FF Y:00 P:26 SP:FF CYC:19124
C7AB  29 80     AND #$80                        A:00 X:FF Y:00 P:26 SP:FF CYC:19128
C7AD  F0 F9     BEQ $C7A8                       A:00 X:FF Y:00 P:26 SP:FF CYC:19130
C7A8  AD 02 20  LDA $2002 = 00                  A:00 X:FF Y:00 P:26 SP:FF CYC:19133
C7AB  29 80     AND #$80                        A:00 X:FF Y:00 P:26 SP:FF CYC:19137
C7AD  F0 F9     BEQ $C7A8                       A:00 X:FF Y:00 P:26 SP:FF CYC:19139
C7A8  AD 02 20  LDA $2002 = 00                  A:00 X:FF Y:00 P:26 SP:FF CYC:19142
C7AB  29 80     AND #$80                        A:00 X:FF Y:00 P:26 SP:FF CYC:19146
C7AD  F0 F9     BEQ $C7A8                       A:00 X:FF Y:00 P:26 SP:FF CYC:19148
C7A8  AD 02 20  LDA $2002 = 00                  A:00 X:FF Y:00 P:26 SP:FF CYC:19151
C7AB  29 80     AND #$80                        A:00 X:FF Y:00 P:26 SP:FF CYC:19155
C7AD  F0 F9     BEQ $C7A8                       A:00 X:FF Y:00 P:26 SP:FF CYC:19157
C7A8  AD 02 20  LDA $2002 = 00                  A:00 X:FF Y:00 P:26 SP:FF CYC:19160
C7AB  29 80     AND #$80                        A:00 X:FF Y:00 P:26 SP:FF CYC:19164
C7AD  F0 F9     BEQ $C7A8                       A:00 X:FF Y:00 P:26 SP:FF CYC:19166
C7A8  AD 02 20  LDA $2002 = 00                  A:00 X:FF Y:00 P:26 SP:FF CYC:19169
C7AB  29 80     AND #$80                        A:00 X:FF Y:00 P:26 SP:FF CYC:19173
C7AD  F0 F9     BEQ $C7A8                       A:00 X:FF Y:00 P:26 SP:FF CYC:19175
C7A8  AD 02 20  LDA $2002 = 00                  A:00 X:FF Y:00 P:26 SP:FF CYC:19178
C7AB  29 80     AND #$80                        A:00 X:FF Y:00 P:26 SP:FF CYC:19182
C7AD  F0 F9     BEQ $C7A8                       A:00 X:FF Y:00 P:26 SP:FF CYC:19184
C7A8  AD 02 20  LDA $2002 = 00                  A:00 X:FF Y:00 P:26 SP:FF CYC:19187
C7AB  29 80     AND #$80                        A:00 X:FF Y:00 P:26 SP:FF CYC:19191
C7AD  F0 F9     BEQ $C7A8                       A:00 X:FF Y:00 P:26 SP:FF CYC:19193
C7A8  AD 02 20  LDA $2002 = 00                  A:00 X:FF Y:00 P:26 SP:FF CYC:19196
C7AB  29 80     AND #$80                        A:00 X:FF Y:00 P:26 SP:FF CYC:19200
C7AD  F0 F9     BEQ $C7A8                       A:00 X:FF Y:00 P:26 SP:FF CYC:19202
C7A8  AD 02 20  LDA $2002 = 00                  A:00 X:FF Y:00 P:26 SP:FF CYC:19205
C7AB  29 80     AND #$80                        A:00 X:FF Y:00 P:26 SP:FF CYC:19209
C7AD  F0 F9     BEQ $C7A8                       A:00 X:FF Y:00 P:26 SP:FF CYC:19211
C7A8  AD 02 20  LDA $2002 = 00                  A:00 X:FF Y:00 P:26 SP:FF CYC:19214
C7AB  29 80     AND #$80                        A:00 X:FF Y:00 P:26 SP:FF CYC:19218
C7AD  F0 F9     BEQ $C7A8                       A:00 X:FF Y:00 P:26 SP:FF CYC:19220
C7A8  AD 02 20  LDA $2002 = 00                  A:00 X:FF Y:00 P:26 SP:FF CYC:19223
C7AB  29 80     AND #$80                        A:00 X:FF Y:00 P:26 SP:FF CYC:19227
C7AD  F0 F9     BEQ $C7A8                       A:00 X:FF Y:00 P:26 SP:FF CYC:19229
C7A8  AD 02 20  LDA $2002 = 00                  A:00 X:FF Y:00 P:26 SP:FF CYC:19232
C7AB  29 80     AND #$80                        A:00 X:FF Y:00 P:26 SP:FF CYC:19236
C7AD  F0 F9     BEQ $C7A8                       A:00 X:FF Y:00 P:26 SP:FF CYC:19238
C7A8  AD 02 20  LDA $2002 = 00                  A:00 X:FF Y:00 P:26 SP:FF CYC:19241
C7AB  29 80     AND #$80                        A:00 X:FF Y:00 P:26 SP:FF CYC:19245
C7AD  F0 F9     BEQ $C7A8                       A:00 X:FF Y:00 P:26 SP:FF CYC:19247
C7A8  AD 02 20  LDA $2002 = 00                  A:00 X:FF Y:00 P:26 SP:FF CYC:19250
C7AB  29 80     AND #$80                        A:00 X:FF Y:00 P:26 SP:FF CYC:19254
C7AD  F0 F9     BEQ $C7A8                       A:00 X:FF Y:00 P:26 SP:FF CYC:19256
C7A8  AD 02 20  LDA $2002 = 00                  A:00 X:FF Y:00 P:26 SP:FF CYC:19259
C7AB  29 80     AND #$80                        A:00 X:FF Y:00 P:26 SP:FF CYC:19263
C7AD  F0 F9     BEQ $C7A8                       A:00 X:FF Y:00 P:26 SP:FF CYC:19265
C7A8  AD 02 20  LDA $2002 = 00                  A:00 X:FF Y:00 P:26 SP:FF CYC:19268
C7AB  29 80     AND #$80                        A:00 X:FF Y:00 P:26 SP:FF CYC:19272
C7AD  F0 F9     BEQ $C7A8                       A:00 X:FF Y:00 P:26 SP:FF CYC:19274
C7A8  AD 02 20  LDA $2002 = 00                  A:00 X:FF Y:00 P:26 SP:FF CYC:19277
C7AB  29 80     AND #$80                        A:00 X:FF Y:00 P:26 SP:FF CYC:19281
C7AD  F0 F9     BEQ $C7A8                       A:00 X:FF Y:00 P:26 SP:FF CYC:19283
C7A8  AD 02 20  LDA $2002 = 00                  A:00 X:FF Y:00 P:26 SP:FF CYC:19286
C7AB  29 80     AND #$80                        A:00 X:FF Y:00 P:26 SP:FF CYC:19290
C7AD  F0 F9     BEQ $C7A8                       A:00 X:FF Y:00 P:26 SP:FF CYC:19292
C7A8  AD 02 20  LDA $2002 = 00                  A:00 X:FF Y:00 P:26 SP:FF CYC:19295
C7AB  29 80     AND #$80                        A:00 X:FF Y:00 P:26 SP:FF CYC:19299
C7AD  F0 F9     BEQ $C7A8                       A:00 X:FF Y:00 P:26 SP:FF CYC:19301
C7A8  AD 02 20  LDA $2002 = 00                  A:00 X:FF Y:00 P:26 SP:FF CYC:19304
C7AB  29 80     AND #$80                        A:00 X:FF Y:00 P:26 SP:FF CYC:19308
C7AD  F0 F9     BEQ $C7A8                       A:00 X:FF Y:00 P:26 SP:FF CYC:19310
C7A8  AD 02 20  LDA $2002 = 00                  A:00 X:FF Y:00 P:26 SP:FF CYC:19313
C7AB  29 80     AND #$80                        A:00 X:FF Y:00 P:26 SP:FF CYC:19317
C7AD  F0 F9     BEQ $C7A8                       A:00 X:FF Y:00 P:26 SP:FF CYC:19319
C7A8  AD 02 20  LDA $2002 = 00                  A:00 X:FF Y:00 P:26 SP:FF CYC:19322
C7AB  29 80     AND #$80                        A:00 X:FF Y:00 P:26 SP:FF CYC:19326
C7AD  F0 F9     BEQ $C7A8                       A:00 X:FF Y:00 P:26 SP:FF CYC:19328
C7A8  AD 02 20  LDA $2002 = 00                  A:00 X:FF Y:00 P:26 SP:FF CYC:19331
C7AB  29 80     AND #$80                        A:00 X:FF Y:00 P:26 SP:FF CYC:19335
C7AD  F0 F9     BEQ $C7A8                       A:00 X:FF Y:00 P:26 SP:FF CYC:19337
C7A8  AD 02 20  LDA $2002 = 00                  A:00 X:FF Y:00 P:26 SP:FF CYC:19340
C7AB  29 80     AND #$80                        A:00 X:FF Y:00 P:26 SP:FF CYC:19344
C7AD  F0 F9     BEQ $C7A8                       A:00 X:FF Y:00 P:26 SP:FF CYC:19346
C7A8  AD 02 20  LDA $2002 = 00                  A:00 X:FF Y:00 P:26 SP:FF CYC:19349
C7AB  29 80     AND #$80                        A:00 X:FF Y:00 P:26 SP:FF CYC:19353
C7AD  F0 F9     BEQ $C7A8                       A:00 X:FF Y:00 P:26 SP:FF CYC:19355
C7A8  AD 02 20  LDA $2002 = 00                  A:00 X:FF Y:00 P:26 SP:FF CYC:19358
C7AB  29 80     AND #$80                        A:00 X:FF Y:00 P:26 SP:FF CYC:19362
C7AD  F0 F9     BEQ $C7A8                       A:00 X:FF Y:00 P:26 SP:FF CYC:19364
C7A8  AD 02 20  LDA $2002 = 00                  A:00 X:FF Y:00 P:26 SP:FF CYC:19367
C7AB  29 80     AND #$80                        A:00 X:FF Y:00 P:26 SP:FF CYC:19371
C7AD  F0 F9     BEQ $C7A8                       A:00 X:FF Y:00 P:26 SP:FF CYC:19373
C7A8  AD 02 20  LDA $2002 = 00                  A:00 X:FF Y:00 P:26 SP:FF CYC:19376
C7AB  29 80     AND #$80                        A:00 X:FF Y:00 P:26 SP:FF CYC:19380
C7AD  F0 F9     BEQ $C7A8                       A:00 X:FF Y:00 P:26 SP:FF CYC:19382
C7A8  AD 02 20  LDA $2002 = 00                  A:00 X:FF Y:00 P:26 SP:FF CYC:19385
C7AB  29 80     AND #$80                        A:00 X:FF Y:00 P:26 SP:FF CYC:19389
C7AD  F0 F9     BEQ $C7A8                       A:00 X:FF Y:00 P:26 SP:FF CYC:19391
C7A8  AD 02 20  LDA $2002 = 00                  A:00 X:FF Y:00 P:26 SP:FF CYC:19394
C7AB  29 80     AND #$80                        A:00 X:FF Y:00 P:26 SP:FF CYC:19398
C7AD  F0 F9     BEQ $C7A8                       A:00 X:FF Y:00 P:26 SP:FF CYC:19400
C7A8  AD 02 20  LDA $2002 = 00                  A:00 X:FF Y:00 P:26 SP:FF CYC:19403
C7AB  29 80     AND #$80                        A:00 X:FF Y:00 P:26 SP:FF CYC:19407
C7AD  F0 F9     BEQ $C7A8                       A:00 X:FF Y:00 P:26 SP:FF CYC:19409
C7A8  AD 02 20  LDA $2002 = 00                  A:00 X:FF Y:00 P:26 SP:FF CYC:19412
C7AB  29 80     AND #$80                        A:00 X:FF Y:00 P:26 SP:FF CYC:19416
C7AD  F0 F9     BEQ $C7A8                       A:00 X:FF Y:00 P:26 SP:FF CYC:19418
C7A8  AD 02 20  LDA $2002 = 00                  A:00 X:FF Y:00 P:26 SP:FF CYC:19421
C7AB  29 80     AND #$80                        A:00 X:FF Y:00 P:26 SP:FF CYC:19425
C7AD  F0 F9     BEQ $C7A8                       A:00 X:FF Y:00 P:26 SP:FF CYC:19427
C7A8  AD 02 20  LDA $2002 = 00                  A:00 X:FF Y:00 P:26 SP:FF CYC:19430
C7AB  29 80     AND #$80                        A:00 X:FF Y:00 P:26 SP:FF CYC:19434
C7AD  F0 F9     BEQ $C7A8                       A:00 X:FF Y:00 P:26 SP:FF CYC:19436
C7A8  AD 02 20  LDA $2002 = 00                  A:00 X:FF Y:00 P:26 SP:FF CYC:19439
C7AB  29 80     AND #$80                        A:00 X:FF Y:00 P:26 SP:FF CYC:19443
C7AD  F0 F9     BEQ $C7A8                       A:00 X:FF Y:00 P:26 SP:FF CYC:19445
C7A8  AD 02 20  LDA $2002 = 00                  A:00 X:FF Y:00 P:26 SP:FF CYC:19448
C7AB  29 80     AND #$80                        A:00 X:FF Y:00 P:26 SP:FF CYC:19452
C7AD  F0 F9     BEQ $C7A8                       A:00 X:FF Y:00 P:26 SP:FF CYC:19454
C7A8  AD 02 20  LDA $2002 = 00                  A:00 X:FF Y:00 P:26 SP:FF CYC:19457
C7AB  29 80     AND #$80                        A:00 X:FF Y:00 P:26 SP:FF CYC:19461
C7AD  F0 F9     BEQ $C7A8                       A:00 X:FF Y:00 P:26 SP:FF CYC:19463
C7A8  AD 02 20  LDA $2002 = 00                  A:00 X:FF Y:00 P:26 SP:FF CYC:19466
C7AB  29 80     AND #$80                        A:00 X:FF Y:00 P:26 SP:FF CYC:19470
C7AD  F0 F9     BEQ $C7A8                       A:00 X:FF Y:00 P:26 SP:FF CYC:19472
C7A8  AD 02 20  LDA $2002 = 00                  A:00 X:FF Y:00 P:26 SP:FF CYC:19475
C7AB  29 80     AND #$80                        A:00 X:FF Y:00 P:26 SP:FF CYC:19479
C7AD  F0 F9     BEQ $C7A8                       A:00 X:FF Y:00 P:26 SP:FF CYC:19481
C7A8  AD 02 20  LDA $2002 = 00                  A:00 X:FF Y:00 P:26 SP:FF CYC:19484
C7AB  29 80     AND #$80                        A:00 X:FF Y:00 P:26 SP:FF CYC:19488
C7AD  F0 F9     BEQ $C7A8                       A:00 X:FF Y:00 P:26 SP:FF CYC:19490
C7A8  AD 02 20  LDA $2002 = 00                  A:00 X:FF Y:00 P:26 SP:FF CYC:19493
C7AB  29 80     AND #$80                        A:00 X:FF Y:00 P:26 SP:FF CYC:19497
C7AD  F0 F9     BEQ $C7A8                       A:00 X:FF Y:00 P:26 SP:FF CYC:19499
C7A8  AD 02 20  LDA $2002 = 00                  A:00 X:FF Y:00 P:26 SP:FF CYC:19502
C7AB  29 80     AND #$80                        A:00 X:FF Y:00 P:26 SP:FF CYC:19506
C7AD  F0 F9     BEQ $C7A8                       A:00 X:FF Y:00 P:26 SP:FF CYC:19508
C7A8  AD 02 20  LDA $2002 = 00                  A:00 X:FF Y:00 P:26 SP:FF CYC:19511
C7AB  29 80     AND #$80                        A:00 X:FF Y:00 P:26 SP:FF CYC:19515
C7AD  F0 F9     BEQ $C7A8                       A:00 X:FF Y:00 P:26 SP:FF CYC:19517
C7A8  AD 02 20  LDA $2002 = 00                  A:00 X:FF Y:00 P:26 SP:FF CYC:19520
C7AB  29 80     AND #$80                        A:00 X:FF Y:00 P:26 SP:FF CYC:19524
C7AD  F0 F9     BEQ $C7A8                       A:00 X:FF Y:00 P:26 SP:FF CYC:19526
C7A8  AD 02 20  LDA $2002 = 00                  A:00 X:FF Y:00 P:26 SP:FF CYC:19529
C7AB  29 80     AND #$80                        A:00 X:FF Y:00 P:26 SP:FF CYC:19533
C7AD  F0 F9     BEQ $C7A8                       A:00 X:FF Y:00 P:26 SP:FF CYC:19535
C7A8  AD 02 20  LDA $2002 = 00                  A:00 X:FF Y:00 P:26 SP:FF CYC:19538
C7AB  29 80     AND #$80                        A:00 X:FF Y:00 P:26 SP:FF CYC:19542
C7AD  F0 F9     BEQ $C7A8                       A:00 X:FF Y:00 P:26 SP:FF CYC:19544
C7A8  AD 02 20  LDA $2002 = 00                  A:00 X:FF Y:00 P:26 SP:FF CYC:19547
C7AB  29 80     AND #$80                        A:00 X:FF Y:00 P:26 SP:FF CYC:19551
C7AD  F0 F9     BEQ $C7A8                       A:00 X:FF Y:00 P:26 SP:FF CYC:19553
C7A8  AD 02 20  LDA $2002 = 00                  A:00 X:FF Y:00 P:26 SP:FF CYC:19556
C7AB  29 80     AND #$80                        A:00 X:FF Y:00 P:26 SP:FF CYC:19560
C7AD  F0 F9     BEQ $C7A8                       A:00 X:FF Y:00 P:26 SP:FF CYC:19562
C7A8  AD 02 20  LDA $2002 = 00                  A:00 X:FF Y:00 P:26 SP:FF CYC:19565
C7AB  29 80     AND #$80                        A:00 X:FF Y:00 P:26 SP:FF CYC:19569
C7AD  F0 F9     BEQ $C7A8                       A:00 X:FF Y:00 P:26 SP:FF CYC:19571
C7A8  AD 02 20  LDA $2002 = 00                  A:00 X:FF Y:00 P:26 SP:FF CYC:19574
C7AB  29 80     AND #$80                        A:00 X:FF Y:00 P:26 SP:FF CYC:19578
C7AD  F0 F9     BEQ $C7A8                       A:00 X:FF Y:00 P:26 SP:FF CYC:19580
C7A8  AD 02 20  LDA $2002 = 00                  A:00 X:FF Y:00 P:26 SP:FF CYC:19583
C7AB  29 80     AND #$80                        A:00 X:FF Y:00 P:26 SP:FF CYC:19587
C7AD  F0 F9     BEQ $C7A8                       A:00 X:FF Y:00 P:26 SP:FF CYC:19589
C7A8  AD 02 20  LDA $2002 = 00                  A:00 X:FF Y:00 P:26 SP:FF CYC:19592
C7AB  29 80     AND #$80                        A:00 X:FF Y:00 P:26 SP:FF CYC:19596
C7AD  F0 F9     BEQ $C7A8                       A:00 X:FF Y:00 P:26 SP:FF CYC:19598
C7A8  AD 02 20  LDA $2002 = 00                  A:00 X:FF Y:00 P:26 SP:FF CYC:19601
C7AB  29 80     AND #$80                        A:00 X:FF Y:00 P:26 SP:FF CYC:19605
C7AD  F0 F9     BEQ $C7A8                       A:00 X:FF Y:00 P:26 SP:FF CYC:19607
C7A8  AD 02 20  LDA $2002 = 00                  A:00 X:FF Y:00 P:26 SP:FF CYC:19610
C7AB  29 80     AND #$80                        A:00 X:FF Y:00 P:26 SP:FF CYC:19614
C7AD  F0 F9     BEQ $C7A8                       A:00 X:FF Y:00 P:26 SP:FF CYC:19616
C7A8  AD 02 20  LDA $2002 = 00                  A:00 X:FF Y:00 P:26 SP:FF CYC:19619
C7AB  29 80     AND #$80                        A:00 X:FF Y:00 P:26 SP:FF CYC:19623
C7AD  F0 F9     BEQ $C7A8                       A:00 X:FF Y:00 P:26 SP:FF CYC:19625
C7A8  AD 02 20  LDA $2002 = 00                  A:00 X:FF Y:00 P:26 SP:FF CYC:19628
C7AB  29 80     AND #$80                        A:00 X:FF Y:00 P:26 SP:FF CYC:19632
C7AD  F0 F9     BEQ $C7A8                       A:00 X:FF Y:00 P:26 SP:FF CYC:19634
C7A8  AD 02 20  LDA $2002 = 00                  A:00 X:FF Y:00 P:26 SP:FF CYC:19637
C7AB  29 80     AND #$80                        A:00 X:FF Y:00 P:26 SP:FF CYC:19641
C7AD  F0 F9     BEQ $C7A8                       A:00 X:FF Y:00 P:26 SP:FF CYC:19643
C7A8  AD 02 20  LDA $2002 = 00                  A:00 X:FF Y:00 P:26 SP:FF CYC:19646
C7AB  29 80     AND #$80                        A:00 X:FF Y:00 P:26 SP:FF CYC:19650
C7AD  F0 F9     BEQ $C7A8                       A:00 X:FF Y:00 P:26 SP:FF CYC:19652
C7A8  AD 02 20  LDA $2002 = 00                  A:00 X:FF Y:00 P:26 SP:FF CYC:19655
C7AB  29 80     AND #$80                        A:00 X:FF Y:00 P:26 SP:FF CYC:19659
C7AD  F0 F9     BEQ $C7A8                       A:00 X:FF Y:00 P:26 SP:FF CYC:19661
C7A8  AD 02 20  LDA $2002 = 00                  A:00 X:FF Y:00 P:26 SP:FF CYC:19664
C7AB  29 80     AND #$80                        A:00 X:FF Y:00 P:26 SP:FF CYC:19668
C7AD  F0 F9     BEQ $C7A8                       A:00 X:FF Y:00 P:26 SP:FF CYC:19670
C7A8  AD 02 20  LDA $2002 = 00                  A:00 X:FF Y:00 P:26 SP:FF CYC:19673
C7AB  29 80     AND #$80                        A:00 X:FF Y:00 P:26 SP:FF CYC:19677
C7AD  F0 F9     BEQ $C7A8                       A:00 X:FF Y:00 P:26 SP:FF CYC:19679
C7A8  AD 02 20  LDA $2002 = 00                  A:00 X:FF Y:00 P:26 SP:FF CYC:19682
C7AB  29 80     AND #$80                        A:00 X:FF Y:00 P:26 SP:FF CYC:19686
C7AD  F0 F9     BEQ $C7A8                       A:00 X:FF Y:00 P:26 SP:FF CYC:19688
C7A8  AD 02 20  LDA $2002 = 00                  A:00 X:FF Y:00 P:26 SP:FF CYC:19691
C7AB  29 80     AND #$80                        A:00 X:FF Y:00 P:26 SP:FF CYC:19695
C7AD  F0 F9     BEQ $C7A8                       A:00 X:FF Y:00 P:26 SP:FF CYC:19697
C7A8  AD 02 20  LDA $2002 = 00                  A:00 X:FF Y:00 P:26 SP:FF CYC:19700
C7AB  29 80     AND #$80                        A:00 X:FF Y:00 P:26 SP:FF CYC:19704
C7AD  F0 F9     BEQ $C7A8                       A:00 X:FF Y:00 P:26 SP:FF CYC:19706
C7A8  AD 02 20  LDA $2002 = 00                  A:00 X:FF Y:00 P:26 SP:FF CYC:19709
C7AB  29 80     AND #$80                        A:00 X:FF Y:00 P:26 SP:FF CYC:19713
C7AD  F0 F9     BEQ $C7A8                       A:00 X:FF Y:00 P:26 SP:FF CYC:19715
C7A8  AD 02 20  LDA $2002 = 00                  A:00 X:FF Y:00 P:26 SP:FF CYC:19718
C7AB  29 80     AND #$80                        A:00 X:FF Y:00 P:26 SP:FF CYC:19722
C7AD  F0 F9     BEQ $C7A8                       A:00 X:FF Y:00 P:26 SP:FF CYC:19724
C7A8  AD 02 20  LDA $2002 = 00                  A:00 X:FF Y:00 P:26 SP:FF CYC:19727
C7AB  29 80     AND #$80                        A:00 X:FF Y:00 P:26 SP:FF CYC:19731
C7AD  F0 F9     BEQ $C7A8                       A:00 X:FF Y:00 P:26 SP:FF CYC:19733
C7A8  AD 02 20  LDA $2002 = 00                  A:00 X:FF Y:00 P:26 SP:FF CYC:19736
C7AB  29 80     AND #$80                        A:00 X:FF Y:00 P:26 SP:FF CYC:19740
C7AD  F0 F9     BEQ $C7A8                       A:00 X:FF Y:00 P:26 SP:FF CYC:19742
C7A8  AD 02 20  LDA $2002 = 00                  A:00 X:FF Y:00 P:26 SP:FF CYC:19745
C7AB  29 80     AND #$80                        A:00 X:FF Y:00 P:26 SP:FF CYC:19749
C7AD  F0 F9     BEQ $C7A8                       A:00 X:FF Y:00 P:26 SP:FF CYC:19751
C7A8  AD 02 20  LDA $2002 = 00                  A:00 X:FF Y:00 P:26 SP:FF CYC:19754
C7AB  29 80     AND #$80                        A:00 X:FF Y:00 P:26 SP:FF CYC:19758
C7AD  F0 F9     BEQ $C7A8                       A:00 X:FF Y:00 P:26 SP:FF CYC:19760
C7A8  AD 02 20  LDA $2002 = 00                  A:00 X:FF Y:00 P:26 SP:FF CYC:19763
C7AB  29 80     AND #$80                        A:00 X:FF Y:00 P:26 SP:FF CYC:19767
C7AD  F0 F9     BEQ $C7A8                       A:00 X:FF Y:00 P:26 SP:FF CYC:19769
C7A8  AD 02 20  LDA $2002 = 00                  A:00 X:FF Y:00 P:26 SP:FF CYC:19772
C7AB  29 80     AND #$80                        A:00 X:FF Y:00 P:26 SP:FF CYC:19776
C7AD  F0 F9     BEQ $C7A8                       A:00 X:FF Y:00 P:26 SP:FF CYC:19778
C7A8  AD 02 20  LDA $2002 = 00                  A:00 X:FF Y:00 P:26 SP:FF CYC:19781
C7AB  29 80     AND #$80                        A:00 X:FF Y:00 P:26 SP:FF CYC:19785
C7AD  F0 F9     BEQ $C7A8                       A:00 X:FF Y:00 P:26 SP:FF CYC:19787
C7A8  AD 02 20  LDA $2002 = 00                  A:00 X:FF Y:00 P:26 SP:FF CYC:19790
C7AB  29 80     AND #$80                        A:00 X:FF Y:00 P:26 SP:FF CYC:19794
C7AD  F0 F9     BEQ $C7A8                       A:00 X:FF Y:00 P:26 SP:FF CYC:19796
C7A8  AD 02 20  LDA $2002 = 00                  A:00 X:FF Y:00 P:26 SP:FF CYC:19799
C7AB  29 80     AND #$80                        A:00 X:FF Y:00 P:26 SP:FF CYC:19803
C7AD  F0 F9     BEQ $C7A8                       A:00 X:FF Y:00 P:26 SP:FF CYC:19805
C7A8  AD 02 20  LDA $2002 = 00                  A:00 X:FF Y:00 P:26 SP:FF CYC:19808
C7AB  29 80     AND #$80                        A:00 X:FF Y:00 P:26 SP:FF CYC:19812
C7AD  F0 F9     BEQ $C7A8                       A:00 X:FF Y:00 P:26 SP:FF CYC:19814
C7A8  AD 02 20  LDA $2002 = 00                  A:00 X:FF Y:00 P:26 SP:FF CYC:19817
C7AB  29 80     AND #$80                        A:00 X:FF Y:00 P:26 SP:FF CYC:19821
C7AD  F0 F9     BEQ $C7A8                       A:00 X:FF Y:00 P:26 SP:FF CYC:19823
C7A8  AD 02 20  LDA $2002 = 00                  A:00 X:FF Y:00 P:26 SP:FF CYC:19826
C7AB  29 80     AND #$80                        A:00 X:FF Y:00 P:26 SP:FF CYC:19830
C7AD  F0 F9     BEQ $C7A8                       A:00 X:FF Y:00 P:26 SP:FF CYC:19832
C7A8  AD 02 20  LDA $2002 = 00                  A:00 X:FF Y:00 P:26 SP:FF CYC:19835
C7AB  29 80     AND #$80                        A:00 X:FF Y:00 P:26 SP:FF CYC:19839
C7AD  F0 F9     BEQ $C7A8                       A:00 X:FF Y:00 P:26 SP:FF CYC:19841
C7A8  AD 02 20  LDA $2002 = 00                  A:00 X:FF Y:00 P:26 SP:FF CYC:19844
C7AB  29 80     AND #$80                        A:00 X:FF Y:00 P:26 SP:FF CYC:19848
C7AD  F0 F9     BEQ $C7A8                       A:00 X:FF Y:00 P:26 SP:FF CYC:19850
C7A8  AD 02 20  LDA $2002 = 00                  A:00 X:FF Y:00 P:26 SP:FF CYC:19853
C7AB  29 80     AND #$80                        A:00 X:FF Y:00 P:26 SP:FF CYC:19857
C7AD  F0 F9     BEQ $C7A8                       A:00 X:FF Y:00 P:26 SP:FF CYC:19859
C7A8  AD 02 20  LDA $2002 = 00                  A:00 X:FF Y:00 P:26 SP:FF CYC:19862
C7AB  29 80     AND #$80                        A:00 X:FF Y:00 P:26 SP:FF CYC:19866
C7AD  F0 F9     BEQ $C7A8                       A:00 X:FF Y:00 P:26 SP:FF CYC:19868
C7A8  AD 02 20  LDA $2002 = 00                  A:00 X:FF Y:00 P:26 SP:FF CYC:19871
C7AB  29 80     AND #$80                        A:00 X:FF Y:00 P:26 SP:FF CYC:19875
C7AD  F0 F9     BEQ $C7A8                       A:00 X:FF Y:00 P:26 SP:FF CYC:19877
C7A8  AD 02 20  LDA $2002 = 00                  A:00 X:FF Y:00 P:26 SP:FF CYC:19880
C7AB  29 80     AND #$80                        A:00 X:FF Y:00 P:26 SP:FF CYC:19884
C7AD  F0 F9     BEQ $C7A8                       A:00 X:FF Y:00 P:26 SP:FF CYC:19886
C7A8  AD 02 20  LDA $2002 = 00                  A:00 X:FF Y:00 P:26 SP:FF CYC:19889
C7AB  29 80     AND #$80                        A:00 X:FF Y:00 P:26 SP:FF CYC:19893
C7AD  F0 F9     BEQ $C7A8                       A:00 X:FF Y:00 P:26 SP:FF CYC:19895
C7A8  AD 02 20  LDA $2002 = 00                  A:00 X:FF Y:00 P:26 SP:FF CYC:19898
C7AB  29 80     AND #$80                        A:00 X:FF Y:00 P:26 SP:FF CYC:19902
C7AD  F0 F9     BEQ $C7A8                       A:00 X:FF Y:00 P:26 SP:FF CYC:19904
C7A8  AD 02 20  LDA $2002 = 00                  A:00 X:FF Y:00 P:26 SP:FF CYC:19907
C7AB  29 80     AND #$80                        A:00 X:FF Y:00 P:26 SP:FF CYC:19911
C7AD  F0 F9     BEQ $C7A8                       A:00 X:FF Y:00 P:26 SP:FF CYC:19913
C7A8  AD 02 20  LDA $2002 = 00                  A:00 X:FF Y:00 P:26 SP:FF CYC:19916
C7AB  29 80     AND #$80                        A:00 X:FF Y:00 P:26 SP:FF CYC:19920
C7AD  F0 F9     BEQ $C7A8                       A:00 X:FF Y:00 P:26 SP:FF CYC:19922
C7A8  AD 02 20  LDA $2002 = 00                  A:00 X:FF Y:00 P:26 SP:FF CYC:19925
C7AB  29 80     AND #$80                        A:00 X:FF Y:00 P:26 SP:FF CYC:19929
C7AD  F0 F9     BEQ $C7A8                       A:00 X:FF Y:00 P:26 SP:FF CYC:19931
C7A8  AD 02 20  LDA $2002 = 00                  A:00 X:FF Y:00 P:26 SP:FF CYC:19934
C7AB  29 80     AND #$80                        A:00 X:FF Y:00 P:26 SP:FF CYC:19938
C7AD  F0 F9     BEQ $C7A8                       A:00 X:FF Y:00 P:26 SP:FF CYC:19940
C7A8  AD 02 20  LDA $2002 = 00                  A:00 X:FF Y:00 P:26 SP:FF CYC:19943
C7AB  29 80     AND #$80                        A:00 X:FF Y:00 P:26 SP:FF CYC:19947
C7AD  F0 F9     BEQ $C7A8                       A:00 X:FF Y:00 P:26 SP:FF CYC:19949
C7A8  AD 02 20  LDA $2002 = 00                  A:00 X:FF Y:00 P:26 SP:FF CYC:19952
C7AB  29 80     AND #$80                        A:00 X:FF Y:00 P:26 SP:FF CYC:19956
C7AD  F0 F9     BEQ $C7A8                       A:00 X:FF Y:00 P:26 SP:FF CYC:19958
C7A8  AD 02 20  LDA $2002 = 00                  A:00 X:FF Y:00 P:26 SP:FF CYC:19961
C7AB  29 80     AND #$80                        A:00 X:FF Y:00 P:26 SP:FF CYC:19965
C7AD  F0 F9     BEQ $C7A8                       A:00 X:FF Y:00 P:26 SP:FF CYC:19967
C7A8  AD 02 20  LDA $2002 = 00                  A:00 X:FF Y:00 P:26 SP:FF CYC:19970
C7AB  29 80     AND #$80                        A:00 X:FF Y:00 P:26 SP:FF CYC:19974
C7AD  F0 F9     BEQ $C7A8                       A:00 X:FF Y:00 P:26 SP:FF CYC:19976
C7A8  AD 02 20  LDA $2002 = 00                  A:00 X:FF Y:00 P:26 SP:FF CYC:19979
C7AB  29 80     AND #$80                        A:00 X:FF Y:00 P:26 SP:FF CYC:19983
C7AD  F0 F9     BEQ $C7A8                       A:00 X:FF Y:00 P:26 SP:FF CYC:19985
C7A8  AD 02 20  LDA $2002 = 00                  A:00 X:FF Y:00 P:26 SP:FF CYC:19988
C7AB  29 80     AND #$80                        A:00 X:FF Y:00 P:26 SP:FF CYC:19992
C7AD  F0 F9     BEQ $C7A8                       A:00 X:FF Y:00 P:26 SP:FF CYC:19994
C7A8  AD 02 20  LDA $2002 = 00                  A:00 X:FF Y:00 P:26 SP:FF CYC:19997
C7AB  29 80     AND #$80                        A:00 X:FF Y:00 P:26 SP:FF CYC:20001
C7AD  F0 F9     BEQ $C7A8                       A:00 X:FF Y:00 P:26 SP:FF CYC:20003
C7A8  AD 02 20  LDA $2002 = 00                  A:00 X:FF Y:00 P:26 SP:FF CYC:20006
C7AB  29 80     AND #$80                        A:00 X:FF Y:00 P:26 SP:FF CYC:20010
C7AD  F0 F9     BEQ $C7A8                       A:00 X:FF Y:00 P:26 SP:FF CYC:20012
C7A8  AD 02 20  LDA $2002 = 00                  A:00 X:FF Y:00 P:26 SP:FF CYC:20015
C7AB  29 80     AND #$80                        A:00 X:FF Y:00 P:26 SP:FF CYC:20019
C7AD  F0 F9     BEQ $C7A8                       A:00 X:FF Y:00 P:26 SP:FF CYC:20021
C7A8  AD 02 20  LDA $2002 = 00                  A:00 X:FF Y:00 P:26 SP:FF CYC:20024
C7AB  29 80     AND #$80                        A:00 X:FF Y:00 P:26 SP:FF CYC:20028
C7AD  F0 F9     BEQ $C7A8                       A:00 X:FF Y:00 P:26 SP:FF CYC:20030
C7A8  AD 02 20  LDA $2002 = 00                  A:00 X:FF Y:00 P:26 SP:FF CYC:20033
C7AB  29 80     AND #$80                        A:00 X:FF Y:00 P:26 SP:FF CYC:20037
C7AD  F0 F9     BEQ $C7A8                       A:00 X:FF Y:00 P:26 SP:FF CYC:20039
C7A8  AD 02 20  LDA $2002 = 00                  A:00 X:FF Y:00 P:26 SP:FF CYC:20042
C7AB  29 80     AND #$80                        A:00 X:FF Y:00 P:26 SP:FF CYC:20046
C7AD  F0 F9     BEQ $C7A8                       A:00 X:FF Y:00 P:26 SP:FF CYC:20048
C7A8  AD 02 20  LDA $2002 = 00                  A:00 X:FF Y:00 P:26 SP:FF CYC:20051
C7AB  29 80     AND #$80                        A:00 X:FF Y:00 P:26 SP:FF CYC:20055
C7AD  F0 F9     BEQ $C7A8                       A:00 X:FF Y:00 P:26 SP:FF CYC:20057
C7A8  AD 02 20  LDA $2002 = 00                  A:00 X:FF Y:00 P:26 SP:FF CYC:20060
C7AB  29 80     AND #$80                        A:00 X:FF Y:00 P:26 SP:FF CYC:20064
C7AD  F0 F9     BEQ $C7A8                       A:00 X:FF Y:00 P:26 SP:FF CYC:20066
C7A8  AD 02 20  LDA $2002 = 00                  A:00 X:FF Y:00 P:26 SP:FF CYC:20069
C7AB  29 80     AND #$80                        A:00 X:FF Y:00 P:26 SP:FF CYC:20073
C7AD  F0 F9     BEQ $C7A8                       A:00 X:FF Y:00 P:26 SP:FF CYC:20075
C7A8  AD 02 20  LDA $2002 = 00                  A:00 X:FF Y:00 P:26 SP:FF CYC:20078
C7AB  29 80     AND #$80                        A:00 X:FF Y:00 P:26 SP:FF CYC:20082
C7AD  F0 F9     BEQ $C7A8                       A:00 X:FF Y:00 P:26 SP:FF CYC:20084
C7A8  AD 02 20  LDA $2002 = 00                  A:00 X:FF Y:00 P:26 SP:FF CYC:20087
C7AB  29 80     AND #$80                        A:00 X:FF Y:00 P:26 SP:FF CYC:20091
C7AD  F0 F9     BEQ $C7A8                       A:00 X:FF Y:00 P:26 SP:FF CYC:20093
C7A8  AD 02 20  LDA $2002 = 00                  A:00 X:FF Y:00 P:26 SP:FF CYC:20096
C7AB  29 80     AND #$80                        A:00 X:FF Y:00 P:26 SP:FF CYC:20100
C7AD  F0 F9     BEQ $C7A8                       A:00 X:FF Y:00 P:26 SP:FF CYC:20102
C7A8  AD 02 20  LDA $2002 = 00                  A:00 X:FF Y:00 P:26 SP:FF CYC:20105
C7AB  29 80     AND #$80                        A:00 X:FF Y:00 P:26 SP:FF CYC:20109
C7AD  F0 F9     BEQ $C7A8                       A:00 X:FF Y:00 P:26 SP:FF CYC:20111
C7A8  AD 02 20  LDA $2002 = 00                  A:00 X:FF Y:00 P:26 SP:FF CYC:20114
C7AB  29 80     AND #$80                        A:00 X:FF Y:00 P:26 SP:FF CYC:20118
C7AD  F0 F9     BEQ $C7A8                       A:00 X:FF Y:00 P:26 SP:FF CYC:20120
C7A8  AD 02 20  LDA $2002 = 00                  A:00 X:FF Y:00 P:26 SP:FF CYC:20123
C7AB  29 80     AND #$80                        A:00 X:FF Y:00 P:26 SP:FF CYC:20127
C7AD  F0 F9     BEQ $C7A8                       A:00 X:FF Y:00 P:26 SP:FF CYC:20129
C7A8  AD 02 20  LDA $2002 = 00                  A:00 X:FF Y:00 P:26 SP:FF CYC:20132
C7AB  29 80     AND #$80                        A:00 X:FF Y:00 P:26 SP:FF CYC:20136
C7AD  F0 F9     BEQ $C7A8                       A:00 X:FF Y:00 P:26 SP:FF CYC:20138
C7A8  AD 02 20  LDA $2002 = 00                  A:00 X:FF Y:00 P:26 SP:FF CYC:20141
C7AB  29 80     AND #$80                        A:00 X:FF Y:00 P:26 SP:FF CYC:20145
C7AD  F0 F9     BEQ $C7A8                       A:00 X:FF Y:00 P:26 SP:FF CYC:20147
C7A8  AD 02 20  LDA $2002 = 00                  A:00 X:FF Y:00 P:26 SP:FF CYC:20150
C7AB  29 80     AND #$80                        A:00 X:FF Y:00 P:26 SP:FF CYC:20154
C7AD  F0 F9     BEQ $C7A8                       A:00 X:FF Y:00 P:26 SP:FF CYC:20156
C7A8  AD 02 20  LDA $2002 = 00                  A:00 X:FF Y:00 P:26 SP:FF CYC:20159
C7AB  29 80     AND #$80                        A:00 X:FF Y:00 P:26 SP:FF CYC:20163
C7AD  F0 F9     BEQ $C7A8                       A:00 X:FF Y:00 P:26 SP:FF CYC:20165
C7A8  AD 02 20  LDA $2002 = 00                  A:00 X:FF Y:00 P:26 SP:FF CYC:20168
C7AB  29 80     AND #$80                        A:00 X:FF Y:00 P:26 SP:FF CYC:20172
C7AD  F0 F9     BEQ $C7A8                       A:00 X:FF Y:00 P:26 SP:FF CYC:20174
C7A8  AD 02 20  LDA $2002 = 00                  A:00 X:FF Y:00 P:26 SP:FF CYC:20177
C7AB  29 80     AND #$80                        A:00 X:FF Y:00 P:26 SP:FF CYC:20181
C7AD  F0 F9     BEQ $C7A8                       A:00 X:FF Y:00 P:26 SP:FF CYC:20183
C7A8  AD 02 20  LDA $2002 = 00                  A:00 X:FF Y:00 P:26 SP:FF CYC:20186
C7AB  29 80     AND #$80                        A:00 X:FF Y:00 P:26 SP:FF CYC:20190
C7AD  F0 F9     BEQ $C7A8                       A:00 X:FF Y:00 P:26 SP:FF CYC:20192
C7A8  AD 02 20  LDA $2002 = 00                  A:00 X:FF Y:00 P:26 SP:FF CYC:20195
C7AB  29 80     AND #$80                        A:00 X:FF Y:00 P:26 SP:FF CYC:20199
C7AD  F0 F9     BEQ $C7A8                       A:00 X:FF Y:00 P:26 SP:FF CYC:20201
C7A8  AD 02 20  LDA $2002 = 00                  A:00 X:FF Y:00 P:26 SP:FF CYC:20204
C7AB  29 80     AND #$80                        A:00 X:FF Y:00 P:26 SP:FF CYC:20208
C7AD  F0 F9     BEQ $C7A8                       A:00 X:FF Y:00 P:26 SP:FF CYC:20210
C7A8  AD 02 20  LDA $2002 = 00                  A:00 X:FF Y:00 P:26 SP:FF CYC:20213
C7AB  29 80     AND #$80                        A:00 X:FF Y:00 P:26 SP:FF CYC:20217
C7AD  F0 F9     BEQ $C7A8                       A:00 X:FF Y:00 P:26 SP:FF CYC:20219
C7A8  AD 02 20  LDA $2002 = 00                  A:00 X:FF Y:00 P:26 SP:FF CYC:20222
C7AB  29 80     AND #$80                        A:00 X:FF Y:00 P:26 SP:FF CYC:20226
C7AD  F0 F9     BEQ $C7A8                       A:00 X:FF Y:00 P:26 SP:FF CYC:20228
C7A8  AD 02 20  LDA $2002 = 00                  A:00 X:FF Y:00 P:26 SP:FF CYC:20231
C7AB  29 80     AND #$80                        A:00 X:FF Y:00 P:26 SP:FF CYC:20235
C7AD  F0 F9     BEQ $C7A8                       A:00 X:FF Y:00 P:26 SP:FF CYC:20237
C7A8  AD 02 20  LDA $2002 = 00                  A:00 X:FF Y:00 P:26 SP:FF CYC:20240
C7AB  29 80     AND #$80                        A:00 X:FF Y:00 P:26 SP:FF CYC:20244
C7AD  F0 F9     BEQ $C7A8                       A:00 X:FF Y:00 P:26 SP:FF CYC:20246
C7A8  AD 02 20  LDA $2002 = 00                  A:00 X:FF Y:00 P:26 SP:FF CYC:20249
C7AB  29 80     AND #$80                        A:00 X:FF Y:00 P:26 SP:FF CYC:20253
C7AD  F0 F9     BEQ $C7A8                       A:00 X:FF Y:00 P:26 SP:FF CYC:20255
C7A8  AD 02 20  LDA $2002 = 00                  A:00 X:FF Y:00 P:26 SP:FF CYC:20258
C7AB  29 80     AND #$80                        A:00 X:FF Y:00 P:26 SP:FF CYC:20262
C7AD  F0 F9     BEQ $C7A8                       A:00 X:FF Y:00 P:26 SP:FF CYC:20264
C7A8  AD 02 20  LDA $2002 = 00                  A:00 X:FF Y:00 P:26 SP:FF CYC:20267
C7AB  29 80     AND #$80                        A:00 X:FF Y:00 P:26 SP:FF CYC:20271
C7AD  F0 F9     BEQ $C7A8                       A:00 X:FF Y:00 P:26 SP:FF CYC:20273
C7A8  AD 02 20  LDA $2002 = 00                  A:00 X:FF Y:00 P:26 SP:FF CYC:20276
C7AB  29 80     AND #$80                        A:00 X:FF Y:00 P:26 SP:FF CYC:20280
C7AD  F0 F9     BEQ $C7A8                       A:00 X:FF Y:00 P:26 SP:FF CYC:20282
C7A8  AD 02 20  LDA $2002 = 00                  A:00 X:FF Y:00 P:26 SP:FF CYC:20285
C7AB  29 80     AND #$80                        A:00 X:FF Y:00 P:26 SP:FF CYC:20289
C7AD  F0 F9     BEQ $C7A8                       A:00 X:FF Y:00 P:26 SP:FF CYC:20291
C7A8  AD 02 20  LDA $2002 = 00                  A:00 X:FF Y:00 P:26 SP:FF CYC:20294
C7AB  29 80     AND #$80                        A:00 X:FF Y:00 P:26 SP:FF CYC:20298
C7AD  F0 F9     BEQ $C7A8                       A:00 X:FF Y:00 P:26 SP:FF CYC:20300
C7A8  AD 02 20  LDA $2002 = 00                  A:00 X:FF Y:00 P:26 SP:FF CYC:20303
C7AB  29 80     AND #$80                        A:00 X:FF Y:00 P:26 SP:FF CYC:20307
C7AD  F0 F9     BEQ $C7A8                       A:00 X:FF Y:00 P:26 SP:FF CYC:20309
C7A8  AD 02 20  LDA $2002 = 00                  A:00 X:FF Y:00 P:26 SP:FF CYC:20312
C7AB  29 80     AND #$80                        A:00 X:FF Y:00 P:26 SP:FF CYC:20316
C7AD  F0 F9     BEQ $C7A8                       A:00 X:FF Y:00 P:26 SP:FF CYC:20318
C7A8  AD 02 20  LDA $2002 = 00                  A:00 X:FF Y:00 P:26 SP:FF CYC:20321
C7AB  29 80     AND #$80                        A:00 X:FF Y:00 P:26 SP:FF CYC:20325
C7AD  F0 F9     BEQ $C7A8                       A:00 X:FF Y:00 P:26 SP:FF CYC:20327
C7A8  AD 02 20  LDA $2002 = 00                  A:00 X:FF Y:00 P:26 SP:FF CYC:20330
C7AB  29 80     AND #$80                        A:00 X:FF Y:00 P:26 SP:FF CYC:20334
C7AD  F0 F9     BEQ $C7A8                       A:00 X:FF Y:00 P:26 SP:FF CYC:20336
C7A8  AD 02 20  LDA $2002 = 00                  A:00 X:FF Y:00 P:26 SP:FF CYC:20339
C7AB  29 80     AND #$80                        A:00 X:FF Y:00 P:26 SP:FF CYC:20343
C7AD  F0 F9     BEQ $C7A8                       A:00 X:FF Y:00 P:26 SP:FF CYC:20345
C7A8  AD 02 20  LDA $2002 = 00                  A:00 X:FF Y:00 P:26 SP:FF CYC:20348
C7AB  29 80     AND #$80                        A:00 X:FF Y:00 P:26 SP:FF CYC:20352
C7AD  F0 F9     BEQ $C7A8                       A:00 X:FF Y:00 P:26 SP:FF CYC:20354
C7A8  AD 02 20  LDA $2002 = 00                  A:00 X:FF Y:00 P:26 SP:FF CYC:20357
C7AB  29 80     AND #$80                        A:00 X:FF Y:00 P:26 SP:FF CYC:20361
C7AD  F0 F9     BEQ $C7A8                       A:00 X:FF Y:00 P:26 SP:FF CYC:20363
C7A8  AD 02 20  LDA $2002 = 00                  A:00 X:FF Y:00 P:26 SP:FF CYC:20366
C7AB  29 80     AND #$80                        A:00 X:FF Y:00 P:26 SP:FF CYC:20370
C7AD  F0 F9     BEQ $C7A8                       A:00 X:FF Y:00 P:26 SP:FF CYC:20372
C7A8  AD 02 20  LDA $2002 = 00                  A:00 X:FF Y:00 P:26 SP:FF CYC:20375
C7AB  29 80     AND #$80                        A:00 X:FF Y:00 P:26 SP:FF CYC:20379
C7AD  F0 F9     BEQ $C7A8                       A:00 X:FF Y:00 P:26 SP:FF CYC:20381
C7A8  AD 02 20  LDA $2002 = 00                  A:00 X:FF Y:00 P:26 SP:FF CYC:20384
C7AB  29 80     AND #$80                        A:00 X:FF Y:00 P:26 SP:FF CYC:20388
C7AD  F0 F9     BEQ $C7A8                       A:00 X:FF Y:00 P:26 SP:FF CYC:20390
C7A8  AD 02 20  LDA $2002 = 00                  A:00 X:FF Y:00 P:26 SP:FF CYC:20393
C7AB  29 80     AND #$80                        A:00 X:FF Y:00 P:26 SP:FF CYC:20397
C7AD  F0 F9     BEQ $C7A8                       A:00 X:FF Y:00 P:26 SP:FF CYC:20399
C7A8  AD 02 20  LDA $2002 = 00                  A:00 X:FF Y:00 P:26 SP:FF CYC:20402
C7AB  29 80     AND #$80                        A:00 X:FF Y:00 P:26 SP:FF CYC:20406
C7AD  F0 F9     BEQ $C7A8                       A:00 X:FF Y:00 P:26 SP:FF CYC:20408
C7A8  AD 02 20  LDA $2002 = 00                  A:00 X:FF Y:00 P:26 SP:FF CYC:20411
C7AB  29 80     AND #$80                        A:00 X:FF Y:00 P:26 SP:FF CYC:20415
C7AD  F0 F9     BEQ $C7A8                       A:00 X:FF Y:00 P:26 SP:FF CYC:20417
C7A8  AD 02 20  LDA $2002 = 00                  A:00 X:FF Y:00 P:26 SP:FF CYC:20420
C7AB  29 80     AND #$80                        A:00 X:FF Y:00 P:26 SP:FF CYC:20424
C7AD  F0 F9     BEQ $C7A8                       A:00 X:FF Y:00 P:26 SP:FF CYC:20426
C7A8  AD 02 20  LDA $2002 = 00                  A:00 X:FF Y:00 P:26 SP:FF CYC:20429
C7AB  29 80     AND #$80                        A:00 X:FF Y:00 P:26 SP:FF CYC:20433
C7AD  F0 F9     BEQ $C7A8                       A:00 X:FF Y:00 P:26 SP:FF CYC:20435
C7A8  AD 02 20  LDA $2002 = 00                  A:00 X:FF Y:00 P:26 SP:FF CYC:20438
C7AB  29 80     AND #$80                        A:00 X:FF Y:00 P:26 SP:FF CYC:20442
C7AD  F0 F9     BEQ $C7A8                       A:00 X:FF Y:00 P:26 SP:FF CYC:20444
C7A8  AD 02 20  LDA $2002 = 00                  A:00 X:FF Y:00 P:26 SP:FF CYC:20447
C7AB  29 80     AND #$80                        A:00 X:FF Y:00 P:26 SP:FF CYC:20451
C7AD  F0 F9     BEQ $C7A8                       A:00 X:FF Y:00 P:26 SP:FF CYC:20453
C7A8  AD 02 20  LDA $2002 = 00                  A:00 X:FF Y:00 P:26 SP:FF CYC:20456
C7AB  29 80     AND #$80                        A:00 X:FF Y:00 P:26 SP:FF CYC:20460
C7AD  F0 F9     BEQ $C7A8                       A:00 X:FF Y:00 P:26 SP:FF CYC:20462
C7A8  AD 02 20  LDA $2002 = 00                  A:00 X:FF Y:00 P:26 SP:FF CYC:20465
C7AB  29 80     AND #$80                        A:00 X:FF Y:00 P:26 SP:FF CYC:20469
C7AD  F0 F9     BEQ $C7A8                       A:00 X:FF Y:00 P:26 SP:FF CYC:20471
C7A8  AD 02 20  LDA $2002 = 00                  A:00 X:FF Y:00 P:26 SP:FF CYC:20474
C7AB  29 80     AND #$80                        A:00 X:FF Y:00 P:26 SP:FF CYC:20478
C7AD  F0 F9     BEQ $C7A8                       A:00 X:FF Y:00 P:26 SP:FF CYC:20480
C7A8  AD 02 20  LDA $2002 = 00                  A:00 X:FF Y:00 P:26 SP:FF CYC:20483
C7AB  29 80     AND #$80                        A:00 X:FF Y:00 P:26 SP:FF CYC:20487
C7AD  F0 F9     BEQ $C7A8                       A:00 X:FF Y:00 P:26 SP:FF CYC:20489
C7A8  AD 02 20  LDA $2002 = 00                  A:00 X:FF Y:00 P:26 SP:FF CYC:20492
C7AB  29 80     AND #$80                        A:00 X:FF Y:00 P:26 SP:FF CYC:20496
C7AD  F0 F9     BEQ $C7A8                       A:00 X:FF Y:00 P:26 SP:FF CYC:20498
C7A8  AD 02 20  LDA $2002 = 00                  A:00 X:FF Y:00 P:26 SP:FF CYC:20501
C7AB  29 80     AND #$80                        A:00 X:FF Y:00 P:26 SP:FF CYC:20505
C7AD  F0 F9     BEQ $C7A8                       A:00 X:FF Y:00 P:26 SP:FF CYC:20507
C7A8  AD 02 20  LDA $2002 = 00                  A:00 X:FF Y:00 P:26 SP:FF CYC:20510
C7AB  29 80     AND #$80                        A:00 X:FF Y:00 P:26 SP:FF CYC:20514
C7AD  F0 F9     BEQ $C7A8                       A:00 X:FF Y:00 P:26 SP:FF CYC:20516
C7A8  AD 02 20  LDA $2002 = 00                  A:00 X:FF Y:00 P:26 SP:FF CYC:20519
C7AB  29 80     AND #$80                        A:00 X:FF Y:00 P:26 SP:FF CYC:20523
C7AD  F0 F9     BEQ $C7A8                       A:00 X:FF Y:00 P:26 SP:FF CYC:20525
C7A8  AD 02 20  LDA $2002 = 00                  A:00 X:FF Y:00 P:26 SP:FF CYC:20528
C7AB  29 80     AND #$80                        A:00 X:FF Y:00 P:26 SP:FF CYC:20532
C7AD  F0 F9     BEQ $C7A8                       A:00 X:FF Y:00 P:26 SP:FF CYC:20534
C7A8  AD 02 20  LDA $2002 = 00                  A:00 X:FF Y:00 P:26 SP:FF CYC:20537
C7AB  29 80     AND #$80                        A:00 X:FF Y:00 P:26 SP:FF CYC:20541
C7AD  F0 F9     BEQ $C7A8                       A:00 X:FF Y:00 P:26 SP:FF CYC:20543
C7A8  AD 02 20  LDA $2002 = 00                  A:00 X:FF Y:00 P:26 SP:FF CYC:20546
C7AB  29 80     AND #$80                        A:00 X:FF Y:00 P:26 SP:FF CYC:20550
C7AD  F0 F9     BEQ $C7A8                       A:00 X:FF Y:00 P:26 SP:FF CYC:20552
C7A8  AD 02 20  LDA $2002 = 00                  A:00 X:FF Y:00 P:26 SP:FF CYC:20555
C7AB  29 80     AND #$80                        A:00 X:FF Y:00 P:26 SP:FF CYC:20559
C7AD  F0 F9     BEQ $C7A8                       A:00 X:FF Y:00 P:26 SP:FF CYC:20561
C7A8  AD 02 20  LDA $2002 = 00                  A:00 X:FF Y:00 P:26 SP:FF CYC:20564
C7AB  29 80     AND #$80                        A:00 X:FF Y:00 P:26 SP:FF CYC:20568
C7AD  F0 F9     BEQ $C7A8                       A:00 X:FF Y:00 P:26 SP:FF CYC:20570
C7A8  AD 02 20  LDA $2002 = 00                  A:00 X:FF Y:00 P:26 SP:FF CYC:20573
C7AB  29 80     AND #$80                        A:00 X:FF Y:00 P:26 SP:FF CYC:20577
C7AD  F0 F9     BEQ $C7A8                       A:00 X:FF Y:00 P:26 SP:FF CYC:20579
C7A8  AD 02 20  LDA $2002 = 00                  A:00 X:FF Y:00 P:26 SP:FF CYC:20582
C7AB  29 80     AND #$80                        A:00 X:FF Y:00 P:26 SP:FF CYC:20586
C7AD  F0 F9     BEQ $C7A8                       A:00 X:FF Y:00 P:26 SP:FF CYC:20588
C7A8  AD 02 20  LDA $2002 = 00                  A:00 X:FF Y:00 P:26 SP:FF CYC:20591
C7AB  29 80     AND #$80                        A:00 X:FF Y:00 P:26 SP:FF CYC:20595
C7AD  F0 F9     BEQ $C7A8                       A:00 X:FF Y:00 P:26 SP:FF CYC:20597
C7A8  AD 02 20  LDA $2002 = 00                  A:00 X:FF Y:00 P:26 SP:FF CYC:20600
C7AB  29 80     AND #$80                        A:00 X:FF Y:00 P:26 SP:FF CYC:20604
C7AD  F0 F9     BEQ $C7A8                       A:00 X:FF Y:00 P:26 SP:FF CYC:20606
C7A8  AD 02 20  LDA $2002 = 00                  A:00 X:FF Y:00 P:26 SP:FF CYC:20609
C7AB  29 80     AND #$80                        A:00 X:FF Y:00 P:26 SP:FF CYC:20613
C7AD  F0 F9     BEQ $C7A8                       A:00 X:FF Y:00 P:26 SP:FF CYC:20615
C7A8  AD 02 20  LDA $2002 = 00                  A:00 X:FF Y:00 P:26 SP:FF CYC:20618
C7AB  29 80     AND #$80                        A:00 X:FF Y:00 P:26 SP:FF CYC:20622
C7AD  F0 F9     BEQ $C7A8                       A:00 X:FF Y:00 P:26 SP:FF CYC:20624
C7A8  AD 02 20  LDA $2002 = 00                  A:00 X:FF Y:00 P:26 SP:FF CYC:20627
C7AB  29 80     AND #$80                        A:00 X:FF Y:00 P:26 SP:FF CYC:20631
C7AD  F0 F9     BEQ $C7A8                       A:00 X:FF Y:00 P:26 SP:FF CYC:20633
C7A8  AD 02 20  LDA $2002 = 00                  A:00 X:FF Y:00 P:26 SP:FF CYC:20636
C7AB  29 80     AND #$80                        A:00 X:FF Y:00 P:26 SP:FF CYC:20640
C7AD  F0 F9     BEQ $C7A8                       A:00 X:FF Y:00 P:26 SP:FF CYC:20642
C7A8  AD 02 20  LDA $2002 = 00                  A:00 X:FF Y:00 P:26 SP:FF CYC:20645
C7AB  29 80     AND #$80                        A:00 X:FF Y:00 P:26 SP:FF CYC:20649
C7AD  F0 F9     BEQ $C7A8                       A:00 X:FF Y:00 P:26 SP:FF CYC:20651
C7A8  AD 02 20  LDA $2002 = 00                  A:00 X:FF Y:00 P:26 SP:FF CYC:20654
C7AB  29 80     AND #$80                        A:00 X:FF Y:00 P:26 SP:FF CYC:20658
C7AD  F0 F9     BEQ $C7A8                       A:00 X:FF Y:00 P:26 SP:FF CYC:20660
C7A8  AD 02 20  LDA $2002 = 00                  A:00 X:FF Y:00 P:26 SP:FF CYC:20663
C7AB  29 80     AND #$80                        A:00 X:FF Y:00 P:26 SP:FF CYC:20667
C7AD  F0 F9     BEQ $C7A8                       A:00 X:FF Y:00 P:26 SP:FF CYC:20669
C7A8  AD 02 20  LDA $2002 = 00                  A:00 X:FF Y:00 P:26 SP:FF CYC:20672
C7AB  29 80     AND #$80                        A:00 X:FF Y:00 P:26 SP:FF CYC:20676
C7AD  F0 F9     BEQ $C7A8                       A:00 X:FF Y:00 P:26 SP:FF CYC:20678
C7A8  AD 02 20  LDA $2002 = 00                  A:00 X:FF Y:00 P:26 SP:FF CYC:20681
C7AB  29 80     AND #$80                        A:00 X:FF Y:00 P:26 SP:FF CYC:20685
C7AD  F0 F9     BEQ $C7A8                       A:00 X:FF Y:00 P:26 SP:FF CYC:20687
C7A8  AD 02 20  LDA $2002 = 00                  A:00 X:FF Y:00 P:26 SP:FF CYC:20690
C7AB  29 80     AND #$80                        A:00 X:FF Y:00 P:26 SP:FF CYC:20694
C7AD  F0 F9     BEQ $C7A8                       A:00 X:FF Y:00 P:26 SP:FF CYC:20696
C7A8  AD 02 20  LDA $2002 = 00                  A:00 X:FF Y:00 P:26 SP:FF CYC:20699
C7AB  29 80     AND #$80                        A:00 X:FF Y:00 P:26 SP:FF CYC:20703
C7AD  F0 F9     BEQ $C7A8                       A:00 X:FF Y:00 P:26 SP:FF CYC:20705
C7A8  AD 02 20  LDA $2002 = 00                  A:00 X:FF Y:00 P:26 SP:FF CYC:20708
C7AB  29 80     AND #$80                        A:00 X:FF Y:00 P:26 SP:FF CYC:20712
C7AD  F0 F9     BEQ $C7A8                       A:00 X:FF Y:00 P:26 SP:FF CYC:20714
C7A8  AD 02 20  LDA $2002 = 00                  A:00 X:FF Y:00 P:26 SP:FF CYC:20717
C7AB  29 80     AND #$80                        A:00 X:FF Y:00 P:26 SP:FF CYC:20721
C7AD  F0 F9     BEQ $C7A8                       A:00 X:FF Y:00 P:26 SP:FF CYC:20723
C7A8  AD 02 20  LDA $2002 = 00                  A:00 X:FF Y:00 P:26 SP:FF CYC:20726
C7AB  29 80     AND #$80                        A:00 X:FF Y:00 P:26 SP:FF CYC:20730
C7AD  F0 F9     BEQ $C7A8                       A:00 X:FF Y:00 P:26 SP:FF CYC:20732
C7A8  AD 02 20  LDA $2002 = 00                  A:00 X:FF Y:00 P:26 SP:FF CYC:20735
C7AB  29 80     AND #$80                        A:00 X:FF Y:00 P:26 SP:FF CYC:20739
C7AD  F0 F9     BEQ $C7A8                       A:00 X:FF Y:00 P:26 SP:FF CYC:20741
C7A8  AD 02 20  LDA $2002 = 00                  A:00 X:FF Y:00 P:26 SP:FF CYC:20744
C7AB  29 80     AND #$80                        A:00 X:FF Y:00 P:26 SP:FF CYC:20748
C7AD  F0 F9     BEQ $C7A8                       A:00 X:FF Y:00 P:26 SP:FF CYC:20750
C7A8  AD 02 20  LDA $2002 = 00                  A:00 X:FF Y:00 P:26 SP:FF CYC:20753
C7AB  29 80     AND #$80                        A:00 X:FF Y:00 P:26 SP:FF CYC:20757
C7AD  F0 F9     BEQ $C7A8                       A:00 X:FF Y:00 P:26 SP:FF CYC:20759
C7A8  AD 02 20  LDA $2002 = 00                  A:00 X:FF Y:00 P:26 SP:FF CYC:20762
C7AB  29 80     AND #$80                        A:00 X:FF Y:00 P:26 SP:FF CYC:20766
C7AD  F0 F9     BEQ $C7A8                       A:00 X:FF Y:00 P:26 SP:FF CYC:20768
C7A8  AD 02 20  LDA $2002 = 00                  A:00 X:FF Y:00 P:26 SP:FF CYC:20771
C7AB  29 80     AND #$80                        A:00 X:FF Y:00 P:26 SP:FF CYC:20775
C7AD  F0 F9     BEQ $C7A8                       A:00 X:FF Y:00 P:26 SP:FF CYC:20777
C7A8  AD 02 20  LDA $2002 = 00                  A:00 X:FF Y:00 P:26 SP:FF CYC:20780
C7AB  29 80     AND #$80                        A:00 X:FF Y:00 P:26 SP:FF CYC:20784
C7AD  F0 F9     BEQ $C7A8                       A:00 X:FF Y:00 P:26 SP:FF CYC:20786
C7A8  AD 02 20  LDA $2002 = 00                  A:00 X:FF Y:00 P:26 SP:FF CYC:20789
C7AB  29 80     AND #$80                        A:00 X:FF Y:00 P:26 SP:FF CYC:20793
C7AD  F0 F9     BEQ $C7A8                       A:00 X:FF Y:00 P:26 SP:FF CYC:20795
C7A8  AD 02 20  LDA $2002 = 00                  A:00 X:FF Y:00 P:26 SP:FF CYC:20798
C7AB  29 80     AND #$80                        A:00 X:FF Y:00 P:26 SP:FF CYC:20802
C7AD  F0 F9     BEQ $C7A8                       A:00 X:FF Y:00 P:26 SP:FF CYC:20804
C7A8  AD 02 20  LDA $2002 = 00                  A:00 X:FF Y:00 P:26 SP:FF CYC:20807
C7AB  29 80     AND #$80                        A:00 X:FF Y:00 P:26 SP:FF CYC:20811
C7AD  F0 F9     BEQ $C7A8                       A:00 X:FF Y:00 P:26 SP:FF CYC:20813
C7A8  AD 02 20  LDA $2002 = 00                  A:00 X:FF Y:00 P:26 SP:FF CYC:20816
C7AB  29 80     AND #$80                        A:00 X:FF Y:00 P:26 SP:FF CYC:20820
C7AD  F0 F9     BEQ $C7A8                       A:00 X:FF Y:00 P:26 SP:FF CYC:20822
C7A8  AD 02 20  LDA $2002 = 00                  A:00 X:FF Y:00 P:26 SP:FF CYC:20825
C7AB  29 80     AND #$80                        A:00 X:FF Y:00 P:26 SP:FF CYC:20829
C7AD  F0 F9     BEQ $C7A8                       A:00 X:FF Y:00 P:26 SP:FF CYC:20831
C7A8  AD 02 20  LDA $2002 = 00                  A:00 X:FF Y:00 P:26 SP:FF CYC:20834
C7AB  29 80     AND #$80                        A:00 X:FF Y:00 P:26 SP:FF CYC:20838
C7AD  F0 F9     BEQ $C7A8                       A:00 X:FF Y:00 P:26 SP:FF CYC:20840
C7A8  AD 02 20  LDA $2002 = 00                  A:00 X:FF Y:00 P:26 SP:FF CYC:20843
C7AB  29 80     AND #$80                        A:00 X:FF Y:00 P:26 SP:FF CYC:20847
C7AD  F0 F9     BEQ $C7A8                       A:00 X:FF Y:00 P:26 SP:FF CYC:20849
C7A8  AD 02 20  LDA $2002 = 00                  A:00 X:FF Y:00 P:26 SP:FF CYC:20852
C7AB  29 80     AND #$80                        A:00 X:FF Y:00 P:26 SP:FF CYC:20856
C7AD  F0 F9     BEQ $C7A8                       A:00 X:FF Y:00 P:26 SP:FF CYC:20858
C7A8  AD 02 20  LDA $2002 = 00                  A:00 X:FF Y:00 P:26 SP:FF CYC:20861
C7AB  29 80     AND #$80                        A:00 X:FF Y:00 P:26 SP:FF CYC:20865
C7AD  F0 F9     BEQ $C7A8                       A:00 X:FF Y:00 P:26 SP:FF CYC:20867
C7A8  AD 02 20  LDA $2002 = 00                  A:00 X:FF Y:00 P:26 SP:FF CYC:20870
C7AB  29 80     AND #$80                        A:00 X:FF Y:00 P:26 SP:FF CYC:20874
C7AD  F0 F9     BEQ $C7A8                       A:00 X:FF Y:00 P:26 SP:FF CYC:20876
C7A8  AD 02 20  LDA $2002 = 00                  A:00 X:FF Y:00 P:26 SP:FF CYC:20879
C7AB  29 80     AND #$80                        A:00 X:FF Y:00 P:26 SP:FF CYC:20883
C7AD  F0 F9     BEQ $C7A8                       A:00 X:FF Y:00 P:26 SP:FF CYC:20885
C7A8  AD 02 20  LDA $2002 = 00                  A:00 X:FF Y:00 P:26 SP:FF CYC:20888
C7AB  29 80     AND #$80                        A:00 X:FF Y:00 P:26 SP:FF CYC:20892
C7AD  F0 F9     BEQ $C7A8                       A:00 X:FF Y:00 P:26 SP:FF CYC:20894
C7A8  AD 02 20  LDA $2002 = 00                  A:00 X:FF Y:00 P:26 SP:FF CYC:20897
C7AB  29 80     AND #$80                        A:00 X:FF Y:00 P:26 SP:FF CYC:20901
C7AD  F0 F9     BEQ $C7A8                       A:00 X:FF Y:00 P:26 SP:FF CYC:20903
C7A8  AD 02 20  LDA $2002 = 00                  A:00 X:FF Y:00 P:26 SP:FF CYC:20906
C7AB  29 80     AND #$80                        A:00 X:FF Y:00 P:26 SP:FF CYC:20910
C7AD  F0 F9     BEQ $C7A8                       A:00 X:FF Y:00 P:26 SP:FF CYC:20912
C7A8  AD 02 20  LDA $2002 = 00                  A:00 X:FF Y:00 P:26 SP:FF CYC:20915
C7AB  29 80     AND #$80                        A:00 X:FF Y:00 P:26 SP:FF CYC:20919
C7AD  F0 F9     BEQ $C7A8                       A:00 X:FF Y:00 P:26 SP:FF CYC:20921
C7A8  AD 02 20  LDA $2002 = 00                  A:00 X:FF Y:00 P:26 SP:FF CYC:20924
C7AB  29 80     AND #$80                        A:00 X:FF Y:00 P:26 SP:FF CYC:20928
C7AD  F0 F9     BEQ $C7A8                       A:00 X:FF Y:00 P:26 SP:FF CYC:20930
C7A8  AD 02 20  LDA $2002 = 00                  A:00 X:FF Y:00 P:26 SP:FF CYC:20933
C7AB  29 80     AND #$80                        A:00 X:FF Y:00 P:26 SP:FF CYC:20937
C7AD  F0 F9     BEQ $C7A8                       A:00 X:FF Y:00 P:26 SP:FF CYC:20939
C7A8  AD 02 20  LDA $2002 = 00                  A:00 X:FF Y:00 P:26 SP:FF CYC:20942
C7AB  29 80     AND #$80                        A:00 X:FF Y:00 P:26 SP:FF CYC:20946
C7AD  F0 F9     BEQ $C7A8                       A:00 X:FF Y:00 P:26 SP:FF CYC:20948
C7A8  AD 02 20  LDA $2002 = 00                  A:00 X:FF Y:00 P:26 SP:FF CYC:20951
C7AB  29 80     AND #$80                        A:00 X:FF Y:00 P:26 SP:FF CYC:20955
C7AD  F0 F9     BEQ $C7A8                       A:00 X:FF Y:00 P:26 SP:FF CYC:20957
C7A8  AD 02 20  LDA $2002 = 00                  A:00 X:FF Y:00 P:26 SP:FF CYC:20960
C7AB  29 80     AND #$80                        A:00 X:FF Y:00 P:26 SP:FF CYC:20964
C7AD  F0 F9     BEQ $C7A8                       A:00 X:FF Y:00 P:26 SP:FF CYC:20966
C7A8  AD 02 20  LDA $2002 = 00                  A:00 X:FF Y:00 P:26 SP:FF CYC:20969
C7AB  29 80     AND #$80                        A:00 X:FF Y:00 P:26 SP:FF CYC:20973
C7AD  F0 F9     BEQ $C7A8                       A:00 X:FF Y:00 P:26 SP:FF CYC:20975
C7A8  AD 02 20  LDA $2002 = 00                  A:00 X:FF Y:00 P:26 SP:FF CYC:20978
C7AB  29 80     AND #$80                        A:00 X:FF Y:00 P:26 SP:FF CYC:20982
C7AD  F0 F9     BEQ $C7A8                       A:00 X:FF Y:00 P:26 SP:FF CYC:20984
C7A8  AD 02 20  LDA $2002 = 00                  A:00 X:FF Y:00 P:26 SP:FF CYC:20987
C7AB  29 80     AND #$80                        A:00 X:FF Y:00 P:26 SP:FF CYC:20991
C7AD  F0 F9     BEQ $C7A8                       A:00 X:FF Y:00 P:26 SP:FF CYC:20993
C7A8  AD 02 20  LDA $2002 = 00                  A:00 X:FF Y:00 P:26 SP:FF CYC:20996
C7AB  29 80     AND #$80                        A:00 X:FF Y:00 P:26 SP:FF CYC:21000
C7AD  F0 F9     BEQ $C7A8                       A:00 X:FF Y:00 P:26 SP:FF CYC:21002
C7A8  AD 02 20  LDA $2002 = 00                  A:00 X:FF Y:00 P:26 SP:FF CYC:21005
C7AB  29 80     AND #$80                        A:00 X:FF Y:00 P:26 SP:FF CYC:21009
C7AD  F0 F9     BEQ $C7A8                       A:00 X:FF Y:00 P:26 SP:FF CYC:21011
C7A8  AD 02 20  LDA $2002 = 00                  A:00 X:FF Y:00 P:26 SP:FF CYC:21014
C7AB  29 80     AND #$80                        A:00 X:FF Y:00 P:26 SP:FF CYC:21018
C7AD  F0 F9     BEQ $C7A8                       A:00 X:FF Y:00 P:26 SP:FF CYC:21020
C7A8  AD 02 20  LDA $2002 = 00                  A:00 X:FF Y:00 P:26 SP:FF CYC:21023
C7AB  29 80     AND #$80                        A:00 X:FF Y:00 P:26 SP:FF CYC:21027
C7AD  F0 F9     BEQ $C7A8                       A:00 X:FF Y:00 P:26 SP:FF CYC:21029
C7A8  AD 02 20  LDA $2002 = 00                  A:00 X:FF Y:00 P:26 SP:FF CYC:21032
C7AB  29 80     AND #$80                        A:00 X:FF Y:00 P:26 SP:FF CYC:21036
C7AD  F0 F9     BEQ $C7A8                       A:00 X:FF Y:00 P:26 SP:FF CYC:21038
C7A8  AD 02 20  LDA $2002 = 00                  A:00 X:FF Y:00 P:26 SP:FF CYC:21041
C7AB  29 80     AND #$80                        A:00 X:FF Y:00 P:26 SP:FF CYC:21045
C7AD  F0 F9     BEQ $C7A8                       A:00 X:FF Y:00 P:26 SP:FF CYC:21047
C7A8  AD 02 20  LDA $2002 = 00                  A:00 X:FF Y:00 P:26 SP:FF CYC:21050
C7AB  29 80     AND #$80                        A:00 X:FF Y:00 P:26 SP:FF CYC:21054
C7AD  F0 F9     BEQ $C7A8                       A:00 X:FF Y:00 P:26 SP:FF CYC:21056
C7A8  AD 02 20  LDA $2002 = 00                  A:00 X:FF Y:00 P:26 SP:FF CYC:21059
C7AB  29 80     AND #$80                        A:00 X:FF Y:00 P:26 SP:FF CYC:21063
C7AD  F0 F9     BEQ $C7A8                       A:00 X:FF Y:00 P:26 SP:FF CYC:21065
C7A8  AD 02 20  LDA $2002 = 00                  A:00 X:FF Y:00 P:26 SP:FF CYC:21068
C7AB  29 80     AND #$80                        A:00 X:FF Y:00 P:26 SP:FF CYC:21072
C7AD  F0 F9     BEQ $C7A8                       A:00 X:FF Y:00 P:26 SP:FF CYC:21074
C7A8  AD 02 20  LDA $2002 = 00                  A:00 X:FF Y:00 P:26 SP:FF CYC:21077
C7AB  29 80     AND #$80                        A:00 X:FF Y:00 P:26 SP:FF CYC:21081
C7AD  F0 F9     BEQ $C7A8                       A:00 X:FF Y:00 P:26 SP:FF CYC:21083
C7A8  AD 02 20  LDA $2002 = 00                  A:00 X:FF Y:00 P:26 SP:FF CYC:21086
C7AB  29 80     AND #$80                        A:00 X:FF Y:00 P:26 SP:FF CYC:21090
C7AD  F0 F9     BEQ $C7A8                       A:00 X:FF Y:00 P:26 SP:FF CYC:21092
C7A8  AD 02 20  LDA $2002 = 00                  A:00 X:FF Y:00 P:26 SP:FF CYC:21095
C7AB  29 80     AND #$80                        A:00 X:FF Y:00 P:26 SP:FF CYC:21099
C7AD  F0 F9     BEQ $C7A8                       A:00 X:FF Y:00 P:26 SP:FF CYC:21101
C7A8  AD 02 20  LDA $2002 = 00                  A:00 X:FF Y:00 P:26 SP:FF CYC:21104
C7AB  29 80     AND #$80                        A:00 X:FF Y:00 P:26 SP:FF CYC:21108
C7AD  F0 F9     BEQ $C7A8                       A:00 X:FF Y:00 P:26 SP:FF CYC:21110
C7A8  AD 02 20  LDA $2002 = 00                  A:00 X:FF Y:00 P:26 SP:FF CYC:21113
C7AB  29 80     AND #$80                        A:00 X:FF Y:00 P:26 SP:FF CYC:21117
C7AD  F0 F9     BEQ $C7A8                       A:00 X:FF Y:00 P:26 SP:FF CYC:21119
C7A8  AD 02 20  LDA $2002 = 00                  A:00 X:FF Y:00 P:26 SP:FF CYC:21122
C7AB  29 80     AND #$80                        A:00 X:FF Y:00 P:26 SP:FF CYC:21126
C7AD  F0 F9     BEQ $C7A8                       A:00 X:FF Y:00 P:26 SP:FF CYC:21128
C7A8  AD 02 20  LDA $2002 = 00                  A:00 X:FF Y:00 P:26 SP:FF CYC:21131
C7AB  29 80     AND #$80                        A:00 X:FF Y:00 P:26 SP:FF CYC:21135
C7AD  F0 F9     BEQ $C7A8                       A:00 X:FF Y:00 P:26 SP:FF CYC:21137
C7A8  AD 02 20  LDA $2002 = 00                  A:00 X:FF Y:00 P:26 SP:FF CYC:21140
C7AB  29 80     AND #$80                        A:00 X:FF Y:00 P:26 SP:FF CYC:21144
C7AD  F0 F9     BEQ $C7A8                       A:00 X:FF Y:00 P:26 SP:FF CYC:21146
C7A8  AD 02 20  LDA $2002 = 00                  A:00 X:FF Y:00 P:26 SP:FF CYC:21149
C7AB  29 80     AND #$80                        A:00 X:FF Y:00 P:26 SP:FF CYC:21153
C7AD  F0 F9     BEQ $C7A8                       A:00 X:FF Y:00 P:26 SP:FF CYC:21155
C7A8  AD 02 20  LDA $2002 = 00                  A:00 X:FF Y:00 P:26 SP:FF CYC:21158
C7AB  29 80     AND #$80                        A:00 X:FF Y:00 P:26 SP:FF CYC:21162
C7AD  F0 F9     BEQ $C7A8                       A:00 X:FF Y:00 P:26 SP:FF CYC:21164
C7A8  AD 02 20  LDA $2002 = 00                  A:00 X:FF Y:00 P:26 SP:FF CYC:21167
C7AB  29 80     AND #$80                        A:00 X:FF Y:00 P:26 SP:FF CYC:21171
C7AD  F0 F9     BEQ $C7A8                       A:00 X:FF Y:00 P:26 SP:FF CYC:21173
C7A8  AD 02 20  LDA $2002 = 00                  A:00 X:FF Y:00 P:26 SP:FF CYC:21176
C7AB  29 80     AND #$80                        A:00 X:FF Y:00 P:26 SP:FF CYC:21180
C7AD  F0 F9     BEQ $C7A8                       A:00 X:FF Y:00 P:26 SP:FF CYC:21182
C7A8  AD 02 20  LDA $2002 = 00                  A:00 X:FF Y:00 P:26 SP:FF CYC:21185
C7AB  29 80     AND #$80                        A:00 X:FF Y:00 P:26 SP:FF CYC:21189
C7AD  F0 F9     BEQ $C7A8                       A:00 X:FF Y:00 P:26 SP:FF CYC:21191
C7A8  AD 02 20  LDA $2002 = 00                  A:00 X:FF Y:00 P:26 SP:FF CYC:21194
C7AB  29 80     AND #$80                        A:00 X:FF Y:00 P:26 SP:FF CYC:21198
C7AD  F0 F9     BEQ $C7A8                       A:00 X:FF Y:00 P:26 SP:FF CYC:21200
C7A8  AD 02 20  LDA $2002 = 00                  A:00 X:FF Y:00 P:26 SP:FF CYC:21203
C7AB  29 80     AND #$80                        A:00 X:FF Y:00 P:26 SP:FF CYC:21207
C7AD  F0 F9     BEQ $C7A8                       A:00 X:FF Y:00 P:26 SP:FF CYC:21209
C7A8  AD 02 20  LDA $2002 = 00                  A:00 X:FF Y:00 P:26 SP:FF CYC:21212
C7AB  29 80     AND #$80                        A:00 X:FF Y:00 P:26 SP:FF CYC:21216
C7AD  F0 F9     BEQ $C7A8                       A:00 X:FF Y:00 P:26 SP:FF CYC:21218
C7A8  AD 02 20  LDA $2002 = 00                  A:00 X:FF Y:00 P:26 SP:FF CYC:21221
C7AB  29 80     AND #$80                        A:00 X:FF Y:00 P:26 SP:FF CYC:21225
C7AD  F0 F9     BEQ $C7A8                       A:00 X:FF Y:00 P:26 SP:FF CYC:21227
C7A8  AD 02 20  LDA $2002 = 00                  A:00 X:FF Y:00 P:26 SP:FF CYC:21230
C7AB  29 80     AND #$80                        A:00 X:FF Y:00 P:26 SP:FF CYC:21234
C7AD  F0 F9     BEQ $C7A8                       A:00 X:FF Y:00 P:26 SP:FF CYC:21236
C7A8  AD 02 20  LDA $2002 = 00                  A:00 X:FF Y:00 P:26 SP:FF CYC:21239
C7AB  29 80     AND #$80                        A:00 X:FF Y:00 P:26 SP:FF CYC:21243
C7AD  F0 F9     BEQ $C7A8                       A:00 X:FF Y:00 P:26 SP:FF CYC:21245
C7A8  AD 02 20  LDA $2002 = 00                  A:00 X:FF Y:00 P:26 SP:FF CYC:21248
C7AB  29 80     AND #$80                        A:00 X:FF Y:00 P:26 SP:FF CYC:21252
C7AD  F0 F9     BEQ $C7A8                       A:00 X:FF Y:00 P:26 SP:FF CYC:21254
C7A8  AD 02 20  LDA $2002 = 00                  A:00 X:FF Y:00 P:26 SP:FF CYC:21257
C7AB  29 80     AND #$80                        A:00 X:FF Y:00 P:26 SP:FF CYC:21261
C7AD  F0 F9     BEQ $C7A8                       A:00 X:FF Y:00 P:26 SP:FF CYC:21263
C7A8  AD 02 20  LDA $2002 = 00                  A:00 X:FF Y:00 P:26 SP:FF CYC:21266
C7AB  29 80     AND #$80                        A:00 X:FF Y:00 P:26 SP:FF CYC:21270
C7AD  F0 F9     BEQ $C7A8                       A:00 X:FF Y:00 P:26 SP:FF CYC:21272
C7A8  AD 02 20  LDA $2002 = 00                  A:00 X:FF Y:00 P:26 SP:FF CYC:21275
C7AB  29 80     AND #$80                        A:00 X:FF Y:00 P:26 SP:FF CYC:21279
C7AD  F0 F9     BEQ $C7A8                       A:00 X:FF Y:00 P:26 SP:FF CYC:21281
C7A8  AD 02 20  LDA $2002 = 00                  A:00 X:FF Y:00 P:26 SP:FF CYC:21284
C7AB  29 80     AND #$80                        A:00 X:FF Y:00 P:26 SP:FF CYC:21288
C7AD  F0 F9     BEQ $C7A8                       A:00 X:FF Y:00 P:26 SP:FF CYC:21290
C7A8  AD 02 20  LDA $2002 = 00                  A:00 X:FF Y:00 P:26 SP:FF CYC:21293
C7AB  29 80     AND #$80                        A:00 X:FF Y:00 P:26 SP:FF CYC:21297
C7AD  F0 F9     BEQ $C7A8                       A:00 X:FF Y:00 P:26 SP:FF CYC:21299
C7A8  AD 02 20  LDA $2002 = 00                  A:00 X:FF Y:00 P:26 SP:FF CYC:21302
C7AB  29 80     AND #$80                        A:00 X:FF Y:00 P:26 SP:FF CYC:21306
C7AD  F0 F9     BEQ $C7A8                       A:00 X:FF Y:00 P:26 SP:FF CYC:21308
C7A8  AD 02 20  LDA $2002 = 00                  A:00 X:FF Y:00 P:26 SP:FF CYC:21311
C7AB  29 80     AND #$80                        A:00 X:FF Y:00 P:26 SP:FF CYC:21315
C7AD  F0 F9     BEQ $C7A8                       A:00 X:FF Y:00 P:26 SP:FF CYC:21317
C7A8  AD 02 20  LDA $2002 = 00                  A:00 X:FF Y:00 P:26 SP:FF CYC:21320
C7AB  29 80     AND #$80                        A:00 X:FF Y:00 P:26 SP:FF CYC:21324
C7AD  F0 F9     BEQ $C7A8                       A:00 X:FF Y:00 P:26 SP:FF CYC:21326
C7A8  AD 02 20  LDA $2002 = 00                  A:00 X:FF Y:00 P:26 SP:FF CYC:21329
C7AB  29 80     AND #$80                        A:00 X:FF Y:00 P:26 SP:FF CYC:21333
C7AD  F0 F9     BEQ $C7A8                       A:00 X:FF Y:00 P:26 SP:FF CYC:21335
C7A8  AD 02 20  LDA $2002 = 00                  A:00 X:FF Y:00 P:26 SP:FF CYC:21338
C7AB  29 80     AND #$80                        A:00 X:FF Y:00 P:26 SP:FF CYC:21342
C7AD  F0 F9     BEQ $C7A8                       A:00 X:FF Y:00 P:26 SP:FF CYC:21344
C7A8  AD 02 20  LDA $2002 = 00                  A:00 X:FF Y:00 P:26 SP:FF CYC:21347
C7AB  29 80     AND #$80                        A:00 X:FF Y:00 P:26 SP:FF CYC:21351
C7AD  F0 F9     BEQ $C7A8                       A:00 X:FF Y:00 P:26 SP:FF CYC:21353
C7A8  AD 02 20  LDA $2002 = 00                  A:00 X:FF Y:00 P:26 SP:FF CYC:21356
C7AB  29 80     AND #$80                        A:00 X:FF Y:00 P:26 SP:FF CYC:21360
C7AD  F0 F9     BEQ $C7A8                       A:00 X:FF Y:00 P:26 SP:FF CYC:21362
C7A8  AD 02 20  LDA $2002 = 00                  A:00 X:FF Y:00 P:26 SP:FF CYC:21365
C7AB  29 80     AND #$80                        A:00 X:FF Y:00 P:26 SP:FF CYC:21369
C7AD  F0 F9     BEQ $C7A8                       A:00 X:FF Y:00 P:26 SP:FF CYC:21371
C7A8  AD 02 20  LDA $2002 = 00                  A:00 X:FF Y:00 P:26 SP:FF CYC:21374
C7AB  29 80     AND #$80                        A:00 X:FF Y:00 P:26 SP:FF CYC:21378
C7AD  F0 F9     BEQ $C7A8                       A:00 X:FF Y:00 P:26 SP:FF CYC:21380
C7A8  AD 02 20  LDA $2002 = 00                  A:00 X:FF Y:00 P:26 SP:FF CYC:21383
C7AB  29 80     AND #$80                        A:00 X:FF Y:00 P:26 SP:FF CYC:21387
C7AD  F0 F9     BEQ $C7A8                       A:00 X:FF Y:00 P:26 SP:FF CYC:21389
C7A8  AD 02 20  LDA $2002 = 00                  A:00 X:FF Y:00 P:26 SP:FF CYC:21392
C7AB  29 80     AND #$80                        A:00 X:FF Y:00 P:26 SP:FF CYC:21396
C7AD  F0 F9     BEQ $C7A8                       A:00 X:FF Y:00 P:26 SP:FF CYC:21398
C7A8  AD 02 20  LDA $2002 = 00                  A:00 X:FF Y:00 P:26 SP:FF CYC:21401
C7AB  29 80     AND #$80                        A:00 X:FF Y:00 P:26 SP:FF CYC:21405
C7AD  F0 F9     BEQ $C7A8                       A:00 X:FF Y:00 P:26 SP:FF CYC:21407
C7A8  AD 02 20  LDA $2002 = 00                  A:00 X:FF Y:00 P:26 SP:FF CYC:21410
C7AB  29 80     AND #$80                        A:00 X:FF Y:00 P:26 SP:FF CYC:21414
C7AD  F0 F9     BEQ $C7A8                       A:00 X:FF Y:00 P:26 SP:FF CYC:21416
C7A8  AD 02 20  LDA $2002 = 00                  A:00 X:FF Y:00 P:26 SP:FF CYC:21419
C7AB  29 80     AND #$80                        A:00 X:FF Y:00 P:26 SP:FF CYC:21423
C7AD  F0 F9     BEQ $C7A8                       A:00 X:FF Y:00 P:26 SP:FF CYC:21425
C7A8  AD 02 20  LDA $2002 = 00                  A:00 X:FF Y:00 P:26 SP:FF CYC:21428
C7AB  29 80     AND #$80                        A:00 X:FF Y:00 P:26 SP:FF CYC:21432
C7AD  F0 F9     BEQ $C7A8                       A:00 X:FF Y:00 P:26 SP:FF CYC:21434
C7A8  AD 02 20  LDA $2002 = 00                  A:00 X:FF Y:00 P:26 SP:FF CYC:21437
C7AB  29 80     AND #$80                        A:00 X:FF Y:00 P:26 SP:FF CYC:21441
C7AD  F0 F9     BEQ $C7A8                       A:00 X:FF Y:00 P:26 SP:FF CYC:21443
C7A8  AD 02 20  LDA $2002 = 00                  A:00 X:FF Y:00 P:26 SP:FF CYC:21446
C7AB  29 80     AND #$80                        A:00 X:FF Y:00 P:26 SP:FF CYC:21450
C7AD  F0 F9     BEQ $C7A8                       A:00 X:FF Y:00 P:26 SP:FF CYC:21452
C7A8  AD 02 20  LDA $2002 = 00                  A:00 X:FF Y:00 P:26 SP:FF CYC:21455
C7AB  29 80     AND #$80                        A:00 X:FF Y:00 P:26 SP:FF CYC:21459
C7AD  F0 F9     BEQ $C7A8                       A:00 X:FF Y:00 P:26 SP:FF CYC:21461
C7A8  AD 02 20  LDA $2002 = 00                  A:00 X:FF Y:00 P:26 SP:FF CYC:21464
C7AB  29 80     AND #$80                        A:00 X:FF Y:00 P:26 SP:FF CYC:21468
C7AD  F0 F9     BEQ $C7A8                       A:00 X:FF Y:00 P:26 SP:FF CYC:21470
C7A8  AD 02 20  LDA $2002 = 00                  A:00 X:FF Y:00 P:26 SP:FF CYC:21473
C7AB  29 80     AND #$80                        A:00 X:FF Y:00 P:26 SP:FF CYC:21477
C7AD  F0 F9     BEQ $C7A8                       A:00 X:FF Y:00 P:26 SP:FF CYC:21479
C7A8  AD 02 20  LDA $2002 = 00                  A:00 X:FF Y:00 P:26 SP:FF CYC:21482
C7AB  29 80     AND #$80                        A:00 X:FF Y:00 P:26 SP:FF CYC:21486
C7AD  F0 F9     BEQ $C7A8                       A:00 X:FF Y:00 P:26 SP:FF CYC:21488
C7A8  AD 02 20  LDA $2002 = 00                  A:00 X:FF Y:00 P:26 SP:FF CYC:21491
C7AB  29 80     AND #$80                        A:00 X:FF Y:00 P:26 SP:FF CYC:21495
C7AD  F0 F9     BEQ $C7A8                       A:00 X:FF Y:00 P:26 SP:FF CYC:21497
C7A8  AD 02 20  LDA $2002 = 00                  A:00 X:FF Y:00 P:26 SP:FF CYC:21500
C7AB  29 80     AND #$80                        A:00 X:FF Y:00 P:26 SP:FF CYC:21504
C7AD  F0 F9     BEQ $C7A8                       A:00 X:FF Y:00 P:26 SP:FF CYC:21506
C7A8  AD 02 20  LDA $2002 = 00                  A:00 X:FF Y:00 P:26 SP:FF CYC:21509
C7AB  29 80     AND #$80                        A:00 X:FF Y:00 P:26 SP:FF CYC:21513
C7AD  F0 F9     BEQ $C7A8                       A:00 X:FF Y:00 P:26 SP:FF CYC:21515
C7A8  AD 02 20  LDA $2002 = 00                  A:00 X:FF Y:00 P:26 SP:FF CYC:21518
C7AB  29 80     AND #$80                        A:00 X:FF Y:00 P:26 SP:FF CYC:21522
C7AD  F0 F9     BEQ $C7A8                       A:00 X:FF Y:00 P:26 SP:FF CYC:21524
C7A8  AD 02 20  LDA $2002 = 00                  A:00 X:FF Y:00 P:26 SP:FF CYC:21527
C7AB  29 80     AND #$80                        A:00 X:FF Y:00 P:26 SP:FF CYC:21531
C7AD  F0 F9     BEQ $C7A8                       A:00 X:FF Y:00 P:26 SP:FF CYC:21533
C7A8  AD 02 20  LDA $2002 = 00                  A:00 X:FF Y:00 P:26 SP:FF CYC:21536
C7AB  29 80     AND #$80                        A:00 X:FF Y:00 P:26 SP:FF CYC:21540
C7AD  F0 F9     BEQ $C7A8                       A:00 X:FF Y:00 P:26 SP:FF CYC:21542
C7A8  AD 02 20  LDA $2002 = 00                  A:00 X:FF Y:00 P:26 SP:FF CYC:21545
C7AB  29 80     AND #$80                        A:00 X:FF Y:00 P:26 SP:FF CYC:21549
C7AD  F0 F9     BEQ $C7A8                       A:00 X:FF Y:00 P:26 SP:FF CYC:21551
C7A8  AD 02 20  LDA $2002 = 00                  A:00 X:FF Y:00 P:26 SP:FF CYC:21554
C7AB  29 80     AND #$80                        A:00 X:FF Y:00 P:26 SP:FF CYC:21558
C7AD  F0 F9     BEQ $C7A8                       A:00 X:FF Y:00 P:26 SP:FF CYC:21560
C7A8  AD 02 20  LDA $2002 = 00                  A:00 X:FF Y:00 P:26 SP:FF CYC:21563
C7AB  29 80     AND #$80                        A:00 X:FF Y:00 P:26 SP:FF CYC:21567
C7AD  F0 F9     BEQ $C7A8                       A:00 X:FF Y:00 P:26 SP:FF CYC:21569
C7A8  AD 02 20  LDA $2002 = 00                  A:00 X:FF Y:00 P:26 SP:FF CYC:21572
C7AB  29 80     AND #$80                        A:00 X:FF Y:00 P:26 SP:FF CYC:21576
C7AD  F0 F9     BEQ $C7A8                       A:00 X:FF Y:00 P:26 SP:FF CYC:21578
C7A8  AD 02 20  LDA $2002 = 00                  A:00 X:FF Y:00 P:26 SP:FF CYC:21581
C7AB  29 80     AND #$80                        A:00 X:FF Y:00 P:26 SP:FF CYC:21585
C7AD  F0 F9     BEQ $C7A8                       A:00 X:FF Y:00 P:26 SP:FF CYC:21587
C7A8  AD 02 20  LDA $2002 = 00                  A:00 X:FF Y:00 P:26 SP:FF CYC:21590
C7AB  29 80     AND #$80                        A:00 X:FF Y:00 P:26 SP:FF CYC:21594
C7AD  F0 F9     BEQ $C7A8                       A:00 X:FF Y:00 P:26 SP:FF CYC:21596
C7A8  AD 02 20  LDA $2002 = 00                  A:00 X:FF Y:00 P:26 SP:FF CYC:21599
C7AB  29 80     AND #$80                        A:00 X:FF Y:00 P:26 SP:FF CYC:21603
C7AD  F0 F9     BEQ $C7A8                       A:00 X:FF Y:00 P:26 SP:FF CYC:21605
C7A8  AD 02 20  LDA $2002 = 00                  A:00 X:FF Y:00 P:26 SP:FF CYC:21608
C7AB  29 80     AND #$80                        A:00 X:FF Y:00 P:26 SP:FF CYC:21612
C7AD  F0 F9     BEQ $C7A8                       A:00 X:FF Y:00 P:26 SP:FF CYC:21614
C7A8  AD 02 20  LDA $2002 = 00                  A:00 X:FF Y:00 P:26 SP:FF CYC:21617
C7AB  29 80     AND #$80                        A:00 X:FF Y:00 P:26 SP:FF CYC:21621
C7AD  F0 F9     BEQ $C7A8                       A:00 X:FF Y:00 P:26 SP:FF CYC:21623
C7A8  AD 02 20  LDA $2002 = 00                  A:00 X:FF Y:00 P:26 SP:FF CYC:21626
C7AB  29 80     AND #$80                        A:00 X:FF Y:00 P:26 SP:FF CYC:21630
C7AD  F0 F9     BEQ $C7A8                       A:00 X:FF Y:00 P:26 SP:FF CYC:21632
C7A8  AD 02 20  LDA $2002 = 00                  A:00 X:FF Y:00 P:26 SP:FF CYC:21635
C7AB  29 80     AND #$80                        A:00 X:FF Y:00 P:26 SP:FF CYC:21639
C7AD  F0 F9     BEQ $C7A8                       A:00 X:FF Y:00 P:26 SP:FF CYC:21641
C7A8  AD 02 20  LDA $2002 = 00                  A:00 X:FF Y:00 P:26 SP:FF CYC:21644
C7AB  29 80     AND #$80                        A:00 X:FF Y:00 P:26 SP:FF CYC:21648
C7AD  F0 F9     BEQ $C7A8                       A:00 X:FF Y:00 P:26 SP:FF CYC:21650
C7A8  AD 02 20  LDA $2002 = 00                  A:00 X:FF Y:00 P:26 SP:FF CYC:21653
C7AB  29 80     AND #$80                        A:00 X:FF Y:00 P:26 SP:FF CYC:21657
C7AD  F0 F9     BEQ $C7A8                       A:00 X:FF Y:00 P:26 SP:FF CYC:21659
C7A8  AD 02 20  LDA $2002 = 00                  A:00 X:FF Y:00 P:26 SP:FF CYC:21662
C7AB  29 80     AND #$80                        A:00 X:FF Y:00 P:26 SP:FF CYC:21666
C7AD  F0 F9     BEQ $C7A8                       A:00 X:FF Y:00 P:26 SP:FF CYC:21668
C7A8  AD 02 20  LDA $2002 = 00                  A:00 X:FF Y:00 P:26 SP:FF CYC:21671
C7AB  29 80     AND #$80                        A:00 X:FF Y:00 P:26 SP:FF CYC:21675
C7AD  F0 F9     BEQ $C7A8                       A:00 X:FF Y:00 P:26 SP:FF CYC:21677
C7A8  AD 02 20  LDA $2002 = 00                  A:00 X:FF Y:00 P:26 SP:FF CYC:21680
C7AB  29 80     AND #$80                        A:00 X:FF Y:00 P:26 SP:FF CYC:21684
C7AD  F0 F9     BEQ $C7A8                       A:00 X:FF Y:00 P:26 SP:FF CYC:21686
C7A8  AD 02 20  LDA $2002 = 00                  A:00 X:FF Y:00 P:26 SP:FF CYC:21689
C7AB  29 80     AND #$80                        A:00 X:FF Y:00 P:26 SP:FF CYC:21693
C7AD  F0 F9     BEQ $C7A8                       A:00 X:FF Y:00 P:26 SP:FF CYC:21695
C7A8  AD 02 20  LDA $2002 = 00                  A:00 X:FF Y:00 P:26 SP:FF CYC:21698
C7AB  29 80     AND #$80                        A:00 X:FF Y:00 P:26 SP:FF CYC:21702
C7AD  F0 F9     BEQ $C7A8                       A:00 X:FF Y:00 P:26 SP:FF CYC:21704
C7A8  AD 02 20  LDA $2002 = 00                  A:00 X:FF Y:00 P:26 SP:FF CYC:21707
C7AB  29 80     AND #$80                        A:00 X:FF Y:00 P:26 SP:FF CYC:21711
C7AD  F0 F9     BEQ $C7A8                       A:00 X:FF Y:00 P:26 SP:FF CYC:21713
C7A8  AD 02 20  LDA $2002 = 00                  A:00 X:FF Y:00 P:26 SP:FF CYC:21716
C7AB  29 80     AND #$80                        A:00 X:FF Y:00 P:26 SP:FF CYC:21720
C7AD  F0 F9     BEQ $C7A8                       A:00 X:FF Y:00 P:26 SP:FF CYC:21722
C7A8  AD 02 20  LDA $2002 = 00                  A:00 X:FF Y:00 P:26 SP:FF CYC:21725
C7AB  29 80     AND #$80                        A:00 X:FF Y:00 P:26 SP:FF CYC:21729
C7AD  F0 F9     BEQ $C7A8                       A:00 X:FF Y:00 P:26 SP:FF CYC:21731
C7A8  AD 02 20  LDA $2002 = 00                  A:00 X:FF Y:00 P:26 SP:FF CYC:21734
C7AB  29 80     AND #$80                        A:00 X:FF Y:00 P:26 SP:FF CYC:21738
C7AD  F0 F9     BEQ $C7A8                       A:00 X:FF Y:00 P:26 SP:FF CYC:21740
C7A8  AD 02 20  LDA $2002 = 00                  A:00 X:FF Y:00 P:26 SP:FF CYC:21743
C7AB  29 80     AND #$80                        A:00 X:FF Y:00 P:26 SP:FF CYC:21747
C7AD  F0 F9     BEQ $C7A8                       A:00 X:FF Y:00 P:26 SP:FF CYC:21749
C7A8  AD 02 20  LDA $2002 = 00                  A:00 X:FF Y:00 P:26 SP:FF CYC:21752
C7AB  29 80     AND #$80                        A:00 X:FF Y:00 P:26 SP:FF CYC:21756
C7AD  F0 F9     BEQ $C7A8                       A:00 X:FF Y:00 P:26 SP:FF CYC:21758
C7A8  AD 02 20  LDA $2002 = 00                  A:00 X:FF Y:00 P:26 SP:FF CYC:21761
C7AB  29 80     AND #$80                        A:00 X:FF Y:00 P:26 SP:FF CYC:21765
C7AD  F0 F9     BEQ $C7A8                       A:00 X:FF Y:00 P:26 SP:FF CYC:21767
C7A8  AD 02 20  LDA $2002 = 00                  A:00 X:FF Y:00 P:26 SP:FF CYC:21770
C7AB  29 80     AND #$80                        A:00 X:FF Y:00 P:26 SP:FF CYC:21774
C7AD  F0 F9     BEQ $C7A8                       A:00 X:FF Y:00 P:26 SP:FF CYC:21776
C7A8  AD 02 20  LDA $2002 = 00                  A:00 X:FF Y:00 P:26 SP:FF CYC:21779
C7AB  29 80     AND #$80                        A:00 X:FF Y:00 P:26 SP:FF CYC:21783
C7AD  F0 F9     BEQ $C7A8                       A:00 X:FF Y:00 P:26 SP:FF CYC:21785
C7A8  AD 02 20  LDA $2002 = 00                  A:00 X:FF Y:00 P:26 SP:FF CYC:21788
C7AB  29 80     AND #$80                        A:00 X:FF Y:00 P:26 SP:FF CYC:21792
C7AD  F0 F9     BEQ $C7A8                       A:00 X:FF Y:00 P:26 SP:FF CYC:21794
C7A8  AD 02 20  LDA $2002 = 00                  A:00 X:FF Y:00 P:26 SP:FF CYC:21797
C7AB  29 80     AND #$80                        A:00 X:FF Y:00 P:26 SP:FF CYC:21801
C7AD  F0 F9     BEQ $C7A8                       A:00 X:FF Y:00 P:26 SP:FF CYC:21803
C7A8  AD 02 20  LDA $2002 = 00                  A:00 X:FF Y:00 P:26 SP:FF CYC:21806
C7AB  29 80     AND #$80                        A:00 X:FF Y:00 P:26 SP:FF CYC:21810
C7AD  F0 F9     BEQ $C7A8                       A:00 X:FF Y:00 P:26 SP:FF CYC:21812
C7A8  AD 02 20  LDA $2002 = 00                  A:00 X:FF Y:00 P:26 SP:FF CYC:21815
C7AB  29 80     AND #$80                        A:00 X:FF Y:00 P:26 SP:FF CYC:21819
C7AD  F0 F9     BEQ $C7A8                       A:00 X:FF Y:00 P:26 SP:FF CYC:21821
C7A8  AD 02 20  LDA $2002 = 00                  A:00 X:FF Y:00 P:26 SP:FF CYC:21824
C7AB  29 80     AND #$80                        A:00 X:FF Y:00 P:26 SP:FF CYC:21828
C7AD  F0 F9     BEQ $C7A8                       A:00 X:FF Y:00 P:26 SP:FF CYC:21830
C7A8  AD 02 20  LDA $2002 = 00                  A:00 X:FF Y:00 P:26 SP:FF CYC:21833
C7AB  29 80     AND #$80                        A:00 X:FF Y:00 P:26 SP:FF CYC:21837
C7AD  F0 F9     BEQ $C7A8                       A:00 X:FF Y:00 P:26 SP:FF CYC:21839
C7A8  AD 02 20  LDA $2002 = 00                  A:00 X:FF Y:00 P:26 SP:FF CYC:21842
C7AB  29 80     AND #$80                        A:00 X:FF Y:00 P:26 SP:FF CYC:21846
C7AD  F0 F9     BEQ $C7A8                       A:00 X:FF Y:00 P:26 SP:FF CYC:21848
C7A8  AD 02 20  LDA $2002 = 00                  A:00 X:FF Y:00 P:26 SP:FF CYC:21851
C7AB  29 80     AND #$80                        A:00 X:FF Y:00 P:26 SP:FF CYC:21855
C7AD  F0 F9     BEQ $C7A8                       A:00 X:FF Y:00 P:26 SP:FF CYC:21857
C7A8  AD 02 20  LDA $2002 = 00                  A:00 X:FF Y:00 P:26 SP:FF CYC:21860
C7AB  29 80     AND #$80                        A:00 X:FF Y:00 P:26 SP:FF CYC:21864
C7AD  F0 F9     BEQ $C7A8                       A:00 X:FF Y:00 P:26 SP:FF CYC:21866
C7A8  AD 02 20  LDA $2002 = 00                  A:00 X:FF Y:00 P:26 SP:FF CYC:21869
C7AB  29 80     AND #$80                        A:00 X:FF Y:00 P:26 SP:FF CYC:21873
C7AD  F0 F9     BEQ $C7A8                       A:00 X:FF Y:00 P:26 SP:FF CYC:21875
C7A8  AD 02 20  LDA $2002 = 00                  A:00 X:FF Y:00 P:26 SP:FF CYC:21878
C7AB  29 80     AND #$80                        A:00 X:FF Y:00 P:26 SP:FF CYC:21882
C7AD  F0 F9     BEQ $C7A8                       A:00 X:FF Y:00 P:26 SP:FF CYC:21884
C7A8  AD 02 20  LDA $2002 = 00                  A:00 X:FF Y:00 P:26 SP:FF CYC:21887
C7AB  29 80     AND #$80                        A:00 X:FF Y:00 P:26 SP:FF CYC:21891
C7AD  F0 F9     BEQ $C7A8                       A:00 X:FF Y:00 P:26 SP:FF CYC:21893
C7A8  AD 02 20  LDA $2002 = 00                  A:00 X:FF Y:00 P:26 SP:FF CYC:21896
C7AB  29 80     AND #$80                        A:00 X:FF Y:00 P:26 SP:FF CYC:21900
C7AD  F0 F9     BEQ $C7A8                       A:00 X:FF Y:00 P:26 SP:FF CYC:21902
C7A8  AD 02 20  LDA $2002 = 00                  A:00 X:FF Y:00 P:26 SP:FF CYC:21905
C7AB  29 80     AND #$80                        A:00 X:FF Y:00 P:26 SP:FF CYC:21909
C7AD  F0 F9     BEQ $C7A8                       A:00 X:FF Y:00 P:26 SP:FF CYC:21911
C7A8  AD 02 20  LDA $2002 = 00                  A:00 X:FF Y:00 P:26 SP:FF CYC:21914
C7AB  29 80     AND #$80                        A:00 X:FF Y:00 P:26 SP:FF CYC:21918
C7AD  F0 F9     BEQ $C7A8                       A:00 X:FF Y:00 P:26 SP:FF CYC:21920
C7A8  AD 02 20  LDA $2002 = 00                  A:00 X:FF Y:00 P:26 SP:FF CYC:21923
C7AB  29 80     AND #$80                        A:00 X:FF Y:00 P:26 SP:FF CYC:21927
C7AD  F0 F9     BEQ $C7A8                       A:00 X:FF Y:00 P:26 SP:FF CYC:21929
C7A8  AD 02 20  LDA $2002 = 00                  A:00 X:FF Y:00 P:26 SP:FF CYC:21932
C7AB  29 80     AND #$80                        A:00 X:FF Y:00 P:26 SP:FF CYC:21936
C7AD  F0 F9     BEQ $C7A8                       A:00 X:FF Y:00 P:26 SP:FF CYC:21938
C7A8  AD 02 20  LDA $2002 = 00                  A:00 X:FF Y:00 P:26 SP:FF CYC:21941
C7AB  29 80     AND #$80                        A:00 X:FF Y:00 P:26 SP:FF CYC:21945
C7AD  F0 F9     BEQ $C7A8                       A:00 X:FF Y:00 P:26 SP:FF CYC:21947
C7A8  AD 02 20  LDA $2002 = 00                  A:00 X:FF Y:00 P:26 SP:FF CYC:21950
C7AB  29 80     AND #$80                        A:00 X:FF Y:00 P:26 SP:FF CYC:21954
C7AD  F0 F9     BEQ $C7A8                       A:00 X:FF Y:00 P:26 SP:FF CYC:21956
C7A8  AD 02 20  LDA $2002 = 00                  A:00 X:FF Y:00 P:26 SP:FF CYC:21959
C7AB  29 80     AND #$80                        A:00 X:FF Y:00 P:26 SP:FF CYC:21963
C7AD  F0 F9     BEQ $C7A8                       A:00 X:FF Y:00 P:26 SP:FF CYC:21965
C7A8  AD 02 20  LDA $2002 = 00                  A:00 X:FF Y:00 P:26 SP:FF CYC:21968
C7AB  29 80     AND #$80                        A:00 X:FF Y:00 P:26 SP:FF CYC:21972
C7AD  F0 F9     BEQ $C7A8                       A:00 X:FF Y:00 P:26 SP:FF CYC:21974
C7A8  AD 02 20  LDA $2002 = 00                  A:00 X:FF Y:00 P:26 SP:FF CYC:21977
C7AB  29 80     AND #$80                        A:00 X:FF Y:00 P:26 SP:FF CYC:21981
C7AD  F0 F9     BEQ $C7A8                       A:00 X:FF Y:00 P:26 SP:FF CYC:21983
C7A8  AD 02 20  LDA $2002 = 00                  A:00 X:FF Y:00 P:26 SP:FF CYC:21986
C7AB  29 80     AND #$80                        A:00 X:FF Y:00 P:26 SP:FF CYC:21990
C7AD  F0 F9     BEQ $C7A8                       A:00 X:FF Y:00 P:26 SP:FF CYC:21992
C7A8  AD 02 20  LDA $2002 = 00                  A:00 X:FF Y:00 P:26 SP:FF CYC:21995
C7AB  29 80     AND #$80                        A:00 X:FF Y:00 P:26 SP:FF CYC:21999
C7AD  F0 F9     BEQ $C7A8                       A:00 X:FF Y:00 P:26 SP:FF CYC:22001
C7A8  AD 02 20  LDA $2002 = 00                  A:00 X:FF Y:00 P:26 SP:FF CYC:22004
C7AB  29 80     AND #$80                        A:00 X:FF Y:00 P:26 SP:FF CYC:22008
C7AD  F0 F9     BEQ $C7A8                       A:00 X:FF Y:00 P:26 SP:FF CYC:22010
C7A8  AD 02 20  LDA $2002 = 00                  A:00 X:FF Y:00 P:26 SP:FF CYC:22013
C7AB  29 80     AND #$80                        A:00 X:FF Y:00 P:26 SP:FF CYC:22017
C7AD  F0 F9     BEQ $C7A8                       A:00 X:FF Y:00 P:26 SP:FF CYC:22019
C7A8  AD 02 20  LDA $2002 = 00                  A:00 X:FF Y:00 P:26 SP:FF CYC:22022
C7AB  29 80     AND #$80                        A:00 X:FF Y:00 P:26 SP:FF CYC:22026
C7AD  F0 F9     BEQ $C7A8                       A:00 X:FF Y:00 P:26 SP:FF CYC:22028
C7A8  AD 02 20  LDA $2002 = 00                  A:00 X:FF Y:00 P:26 SP:FF CYC:22031
C7AB  29 80     AND #$80                        A:00 X:FF Y:00 P:26 SP:FF CYC:22035
C7AD  F0 F9     BEQ $C7A8                       A:00 X:FF Y:00 P:26 SP:FF CYC:22037
C7A8  AD 02 20  LDA $2002 = 00                  A:00 X:FF Y:00 P:26 SP:FF CYC:22040
C7AB  29 80     AND #$80                        A:00 X:FF Y:00 P:26 SP:FF CYC:22044
C7AD  F0 F9     BEQ $C7A8                       A:00 X:FF Y:00 P:26 SP:FF CYC:22046
C7A8  AD 02 20  LDA $2002 = 00                  A:00 X:FF Y:00 P:26 SP:FF CYC:22049
C7AB  29 80     AND #$80                        A:00 X:FF Y:00 P:26 SP:FF CYC:22053
C7AD  F0 F9     BEQ $C7A8                       A:00 X:FF Y:00 P:26 SP:FF CYC:22055
C7A8  AD 02 20  LDA $2002 = 00                  A:00 X:FF Y:00 P:26 SP:FF CYC:22058
C7AB  29 80     AND #$80                        A:00 X:FF Y:00 P:26 SP:FF CYC:22062
C7AD  F0 F9     BEQ $C7A8                       A:00 X:FF Y:00 P:26 SP:FF CYC:22064
C7A8  AD 02 20  LDA $2002 = 00                  A:00 X:FF Y:00 P:26 SP:FF CYC:22067
C7AB  29 80     AND #$80                        A:00 X:FF Y:00 P:26 SP:FF CYC:22071
C7AD  F0 F9     BEQ $C7A8                       A:00 X:FF Y:00 P:26 SP:FF CYC:22073
C7A8  AD 02 20  LDA $2002 = 00                  A:00 X:FF Y:00 P:26 SP:FF CYC:22076
C7AB  29 80     AND #$80                        A:00 X:FF Y:00 P:26 SP:FF CYC:22080
C7AD  F0 F9     BEQ $C7A8                       A:00 X:FF Y:00 P:26 SP:FF CYC:22082
C7A8  AD 02 20  LDA $2002 = 00                  A:00 X:FF Y:00 P:26 SP:FF CYC:22085
C7AB  29 80     AND #$80                        A:00 X:FF Y:00 P:26 SP:FF CYC:22089
C7AD  F0 F9     BEQ $C7A8                       A:00 X:FF Y:00 P:26 SP:FF CYC:22091
C7A8  AD 02 20  LDA $2002 = 00                  A:00 X:FF Y:00 P:26 SP:FF CYC:22094
C7AB  29 80     AND #$80                        A:00 X:FF Y:00 P:26 SP:FF CYC:22098
C7AD  F0 F9     BEQ $C7A8                       A:00 X:FF Y:00 P:26 SP:FF CYC:22100
C7A8  AD 02 20  LDA $2002 = 00                  A:00 X:FF Y:00 P:26 SP:FF CYC:22103
C7AB  29 80     AND #$80                        A:00 X:FF Y:00 P:26 SP:FF CYC:22107
C7AD  F0 F9     BEQ $C7A8                       A:00 X:FF Y:00 P:26 SP:FF CYC:22109
C7A8  AD 02 20  LDA $2002 = 00                  A:00 X:FF Y:00 P:26 SP:FF CYC:22112
C7AB  29 80     AND #$80                        A:00 X:FF Y:00 P:26 SP:FF CYC:22116
C7AD  F0 F9     BEQ $C7A8                       A:00 X:FF Y:00 P:26 SP:FF CYC:22118
C7A8  AD 02 20  LDA $2002 = 00                  A:00 X:FF Y:00 P:26 SP:FF CYC:22121
C7AB  29 80     AND #$80                        A:00 X:FF Y:00 P:26 SP:FF CYC:22125
C7AD  F0 F9     BEQ $C7A8                       A:00 X:FF Y:00 P:26 SP:FF CYC:22127
C7A8  AD 02 20  LDA $2002 = 00                  A:00 X:FF Y:00 P:26 SP:FF CYC:22130
C7AB  29 80     AND #$80                        A:00 X:FF Y:00 P:26 SP:FF CYC:22134
C7AD  F0 F9     BEQ $C7A8                       A:00 X:FF Y:00 P:26 SP:FF CYC:22136
C7A8  AD 02 20  LDA $2002 = 00                  A:00 X:FF Y:00 P:26 SP:FF CYC:22139
C7AB  29 80     AND #$80                        A:00 X:FF Y:00 P:26 SP:FF CYC:22143
C7AD  F0 F9     BEQ $C7A8                       A:00 X:FF Y:00 P:26 SP:FF CYC:22145
C7A8  AD 02 20  LDA $2002 = 00                  A:00 X:FF Y:00 P:26 SP:FF CYC:22148
C7AB  29 80     AND #$80                        A:00 X:FF Y:00 P:26 SP:FF CYC:22152
C7AD  F0 F9     BEQ $C7A8                       A:00 X:FF Y:00 P:26 SP:FF CYC:22154
C7A8  AD 02 20  LDA $2002 = 00                  A:00 X:FF Y:00 P:26 SP:FF CYC:22157
C7AB  29 80     AND #$80                        A:00 X:FF Y:00 P:26 SP:FF CYC:22161
C7AD  F0 F9     BEQ $C7A8                       A:00 X:FF Y:00 P:26 SP:FF CYC:22163
C7A8  AD 02 20  LDA $2002 = 00                  A:00 X:FF Y:00 P:26 SP:FF CYC:22166
C7AB  29 80     AND #$80                        A:00 X:FF Y:00 P:26 SP:FF CYC:22170
C7AD  F0 F9     BEQ $C7A8                       A:00 X:FF Y:00 P:26 SP:FF CYC:22172
C7A8  AD 02 20  LDA $2002 = 00                  A:00 X:FF Y:00 P:26 SP:FF CYC:22175
C7AB  29 80     AND #$80                        A:00 X:FF Y:00 P:26 SP:FF CYC:22179
C7AD  F0 F9     BEQ $C7A8                       A:00 X:FF Y:00 P:26 SP:FF CYC:22181
C7A8  AD 02 20  LDA $2002 = 00                  A:00 X:FF Y:00 P:26 SP:FF CYC:22184
C7AB  29 80     AND #$80                        A:00 X:FF Y:00 P:26 SP:FF CYC:22188
C7AD  F0 F9     BEQ $C7A8                       A:00 X:FF Y:00 P:26 SP:FF CYC:22190
C7A8  AD 02 20  LDA $2002 = 00                  A:00 X:FF Y:00 P:26 SP:FF CYC:22193
C7AB  29 80     AND #$80                        A:00 X:FF Y:00 P:26 SP:FF CYC:22197
C7AD  F0 F9     BEQ $C7A8                       A:00 X:FF Y:00 P:26 SP:FF CYC:22199
C7A8  AD 02 20  LDA $2002 = 00                  A:00 X:FF Y:00 P:26 SP:FF CYC:22202
C7AB  29 80     AND #$80                        A:00 X:FF Y:00 P:26 SP:FF CYC:22206
C7AD  F0 F9     BEQ $C7A8                       A:00 X:FF Y:00 P:26 SP:FF CYC:22208
C7A8  AD 02 20  LDA $2002 = 00                  A:00 X:FF Y:00 P:26 SP:FF CYC:22211
C7AB  29 80     AND #$80                        A:00 X:FF Y:00 P:26 SP:FF CYC:22215
C7AD  F0 F9     BEQ $C7A8                       A:00 X:FF Y:00 P:26 SP:FF CYC:22217
C7A8  AD 02 20  LDA $2002 = 00                  A:00 X:FF Y:00 P:26 SP:FF CYC:22220
C7AB  29 80     AND #$80                        A:00 X:FF Y:00 P:26 SP:FF CYC:22224
C7AD  F0 F9     BEQ $C7A8                       A:00 X:FF Y:00 P:26 SP:FF CYC:22226
C7A8  AD 02 20  LDA $2002 = 00                  A:00 X:FF Y:00 P:26 SP:FF CYC:22229
C7AB  29 80     AND #$80                        A:00 X:FF Y:00 P:26 SP:FF CYC:22233
C7AD  F0 F9     BEQ $C7A8                       A:00 X:FF Y:00 P:26 SP:FF CYC:22235
C7A8  AD 02 20  LDA $2002 = 00                  A:00 X:FF Y:00 P:26 SP:FF CYC:22238
C7AB  29 80     AND #$80                        A:00 X:FF Y:00 P:26 SP:FF CYC:22242
C7AD  F0 F9     BEQ $C7A8                       A:00 X:FF Y:00 P:26 SP:FF CYC:22244
C7A8  AD 02 20  LDA $2002 = 00                  A:00 X:FF Y:00 P:26 SP:FF CYC:22247
C7AB  29 80     AND #$80                        A:00 X:FF Y:00 P:26 SP:FF CYC:22251
C7AD  F0 F9     BEQ $C7A8                       A:00 X:FF Y:00 P:26 SP:FF CYC:22253
C7A8  AD 02 20  LDA $2002 = 00                  A:00 X:FF Y:00 P:26 SP:FF CYC:22256
C7AB  29 80     AND #$80                        A:00 X:FF Y:00 P:26 SP:FF CYC:22260
C7AD  F0 F9     BEQ $C7A8                       A:00 X:FF Y:00 P:26 SP:FF CYC:22262
C7A8  AD 02 20  LDA $2002 = 00                  A:00 X:FF Y:00 P:26 SP:FF CYC:22265
C7AB  29 80     AND #$80                        A:00 X:FF Y:00 P:26 SP:FF CYC:22269
C7AD  F0 F9     BEQ $C7A8                       A:00 X:FF Y:00 P:26 SP:FF CYC:22271
C7A8  AD 02 20  LDA $2002 = 00                  A:00 X:FF Y:00 P:26 SP:FF CYC:22274
C7AB  29 80     AND #$80                        A:00 X:FF Y:00 P:26 SP:FF CYC:22278
C7AD  F0 F9     BEQ $C7A8                       A:00 X:FF Y:00 P:26 SP:FF CYC:22280
C7A8  AD 02 20  LDA $2002 = 00                  A:00 X:FF Y:00 P:26 SP:FF CYC:22283
C7AB  29 80     AND #$80                        A:00 X:FF Y:00 P:26 SP:FF CYC:22287
C7AD  F0 F9     BEQ $C7A8                       A:00 X:FF Y:00 P:26 SP:FF CYC:22289
C7A8  AD 02 20  LDA $2002 = 00                  A:00 X:FF Y:00 P:26 SP:FF CYC:22292
C7AB  29 80     AND #$80                        A:00 X:FF Y:00 P:26 SP:FF CYC:22296
C7AD  F0 F9     BEQ $C7A8                       A:00 X:FF Y:00 P:26 SP:FF CYC:22298
C7A8  AD 02 20  LDA $2002 = 00                  A:00 X:FF Y:00 P:26 SP:FF CYC:22301
C7AB  29 80     AND #$80                        A:00 X:FF Y:00 P:26 SP:FF CYC:22305
C7AD  F0 F9     BEQ $C7A8                       A:00 X:FF Y:00 P:26 SP:FF CYC:22307
C7A8  AD 02 20  LDA $2002 = 00                  A:00 X:FF Y:00 P:26 SP:FF CYC:22310
C7AB  29 80     AND #$80                        A:00 X:FF Y:00 P:26 SP:FF CYC:22314
C7AD  F0 F9     BEQ $C7A8                       A:00 X:FF Y:00 P:26 SP:FF CYC:22316
C7A8  AD 02 20  LDA $2002 = 00                  A:00 X:FF Y:00 P:26 SP:FF CYC:22319
C7AB  29 80     AND #$80                        A:00 X:FF Y:00 P:26 SP:FF CYC:22323
C7AD  F0 F9     BEQ $C7A8                       A:00 X:FF Y:00 P:26 SP:FF CYC:22325
C7A8  AD 02 20  LDA $2002 = 00                  A:00 X:FF Y:00 P:26 SP:FF CYC:22328
C7AB  29 80     AND #$80                        A:00 X:FF Y:00 P:26 SP:FF CYC:22332
C7AD  F0 F9     BEQ $C7A8                       A:00 X:FF Y:00 P:26 SP:FF CYC:22334
C7A8  AD 02 20  LDA $2002 = 00                  A:00 X:FF Y:00 P:26 SP:FF CYC:22337
C7AB  29 80     AND #$80                        A:00 X:FF Y:00 P:26 SP:FF CYC:22341
C7AD  F0 F9     BEQ $C7A8                       A:00 X:FF Y:00 P:26 SP:FF CYC:22343
C7A8  AD 02 20  LDA $2002 = 00                  A:00 X:FF Y:00 P:26 SP:FF CYC:22346
C7AB  29 80     AND #$80                        A:00 X:FF Y:00 P:26 SP:FF CYC:22350
C7AD  F0 F9     BEQ $C7A8                       A:00 X:FF Y:00 P:26 SP:FF CYC:22352
C7A8  AD 02 20  LDA $2002 = 00                  A:00 X:FF Y:00 P:26 SP:FF CYC:22355
C7AB  29 80     AND #$80                        A:00 X:FF Y:00 P:26 SP:FF CYC:22359
C7AD  F0 F9     BEQ $C7A8                       A:00 X:FF Y:00 P:26 SP:FF CYC:22361
C7A8  AD 02 20  LDA $2002 = 00                  A:00 X:FF Y:00 P:26 SP:FF CYC:22364
C7AB  29 80     AND #$80                        A:00 X:FF Y:00 P:26 SP:FF CYC:22368
C7AD  F0 F9     BEQ $C7A8                       A:00 X:FF Y:00 P:26 SP:FF CYC:22370
C7A8  AD 02 20  LDA $2002 = 00                  A:00 X:FF Y:00 P:26 SP:FF CYC:22373
C7AB  29 80     AND #$80                        A:00 X:FF Y:00 P:26 SP:FF CYC:22377
C7AD  F0 F9     BEQ $C7A8                       A:00 X:FF Y:00 P:26 SP:FF CYC:22379
C7A8  AD 02 20  LDA $2002 = 00                  A:00 X:FF Y:00 P:26 SP:FF CYC:22382
C7AB  29 80     AND #$80                        A:00 X:FF Y:00 P:26 SP:FF CYC:22386
C7AD  F0 F9     BEQ $C7A8                       A:00 X:FF Y:00 P:26 SP:FF CYC:22388
C7A8  AD 02 20  LDA $2002 = 00                  A:00 X:FF Y:00 P:26 SP:FF CYC:22391
C7AB  29 80     AND #$80                        A:00 X:FF Y:00 P:26 SP:FF CYC:22395
C7AD  F0 F9     BEQ $C7A8                       A:00 X:FF Y:00 P:26 SP:FF CYC:22397
C7A8  AD 02 20  LDA $2002 = 00                  A:00 X:FF Y:00 P:26 SP:FF CYC:22400
C7AB  29 80     AND #$80                        A:00 X:FF Y:00 P:26 SP:FF CYC:22404
C7AD  F0 F9     BEQ $C7A8                       A:00 X:FF Y:00 P:26 SP:FF CYC:22406
C7A8  AD 02 20  LDA $2002 = 00                  A:00 X:FF Y:00 P:26 SP:FF CYC:22409
C7AB  29 80     AND #$80                        A:00 X:FF Y:00 P:26 SP:FF CYC:22413
C7AD  F0 F9     BEQ $C7A8                       A:00 X:FF Y:00 P:26 SP:FF CYC:22415
C7A8  AD 02 20  LDA $2002 = 00                  A:00 X:FF Y:00 P:26 SP:FF CYC:22418
C7AB  29 80     AND #$80                        A:00 X:FF Y:00 P:26 SP:FF CYC:22422
C7AD  F0 F9     BEQ $C7A8                       A:00 X:FF Y:00 P:26 SP:FF CYC:22424
C7A8  AD 02 20  LDA $2002 = 00                  A:00 X:FF Y:00 P:26 SP:FF CYC:22427
C7AB  29 80     AND #$80                        A:00 X:FF Y:00 P:26 SP:FF CYC:22431
C7AD  F0 F9     BEQ $C7A8                       A:00 X:FF Y:00 P:26 SP:FF CYC:22433
C7A8  AD 02 20  LDA $2002 = 00                  A:00 X:FF Y:00 P:26 SP:FF CYC:22436
C7AB  29 80     AND #$80                        A:00 X:FF Y:00 P:26 SP:FF CYC:22440
C7AD  F0 F9     BEQ $C7A8                       A:00 X:FF Y:00 P:26 SP:FF CYC:22442
C7A8  AD 02 20  LDA $2002 = 00                  A:00 X:FF Y:00 P:26 SP:FF CYC:22445
C7AB  29 80     AND #$80                        A:00 X:FF Y:00 P:26 SP:FF CYC:22449
C7AD  F0 F9     BEQ $C7A8                       A:00 X:FF Y:00 P:26 SP:FF CYC:22451
C7A8  AD 02 20  LDA $2002 = 00                  A:00 X:FF Y:00 P:26 SP:FF CYC:22454
C7AB  29 80     AND #$80                        A:00 X:FF Y:00 P:26 SP:FF CYC:22458
C7AD  F0 F9     BEQ $C7A8                       A:00 X:FF Y:00 P:26 SP:FF CYC:22460
C7A8  AD 02 20  LDA $2002 = 00                  A:00 X:FF Y:00 P:26 SP:FF CYC:22463
C7AB  29 80     AND #$80                        A:00 X:FF Y:00 P:26 SP:FF CYC:22467
C7AD  F0 F9     BEQ $C7A8                       A:00 X:FF Y:00 P:26 SP:FF CYC:22469
C7A8  AD 02 20  LDA $2002 = 00                  A:00 X:FF Y:00 P:26 SP:FF CYC:22472
C7AB  29 80     AND #$80                        A:00 X:FF Y:00 P:26 SP:FF CYC:22476
C7AD  F0 F9     BEQ $C7A8                       A:00 X:FF Y:00 P:26 SP:FF CYC:22478
C7A8  AD 02 20  LDA $2002 = 00                  A:00 X:FF Y:00 P:26 SP:FF CYC:22481
C7AB  29 80     AND #$80                        A:00 X:FF Y:00 P:26 SP:FF CYC:22485
C7AD  F0 F9     BEQ $C7A8                       A:00 X:FF Y:00 P:26 SP:FF CYC:22487
C7A8  AD 02 20  LDA $2002 = 00                  A:00 X:FF Y:00 P:26 SP:FF CYC:22490
C7AB  29 80     AND #$80                        A:00 X:FF Y:00 P:26 SP:FF CYC:22494
C7AD  F0 F9     BEQ $C7A8                       A:00 X:FF Y:00 P:26 SP:FF CYC:22496
C7A8  AD 02 20  LDA $2002 = 00                  A:00 X:FF Y:00 P:26 SP:FF CYC:22499
C7AB  29 80     AND #$80                        A:00 X:FF Y:00 P:26 SP:FF CYC:22503
C7AD  F0 F9     BEQ $C7A8                       A:00 X:FF Y:00 P:26 SP:FF CYC:22505
C7A8  AD 02 20  LDA $2002 = 00                  A:00 X:FF Y:00 P:26 SP:FF CYC:22508
C7AB  29 80     AND #$80                        A:00 X:FF Y:00 P:26 SP:FF CYC:22512
C7AD  F0 F9     BEQ $C7A8                       A:00 X:FF Y:00 P:26 SP:FF CYC:22514
C7A8  AD 02 20  LDA $2002 = 00                  A:00 X:FF Y:00 P:26 SP:FF CYC:22517
C7AB  29 80     AND #$80                        A:00 X:FF Y:00 P:26 SP:FF CYC:22521
C7AD  F0 F9     BEQ $C7A8                       A:00 X:FF Y:00 P:26 SP:FF CYC:22523
C7A8  AD 02 20  LDA $2002 = 00                  A:00 X:FF Y:00 P:26 SP:FF CYC:22526
C7AB  29 80     AND #$80                        A:00 X:FF Y:00 P:26 SP:FF CYC:22530
C7AD  F0 F9     BEQ $C7A8                       A:00 X:FF Y:00 P:26 SP:FF CYC:22532
C7A8  AD 02 20  LDA $2002 = 00                  A:00 X:FF Y:00 P:26 SP:FF CYC:22535
C7AB  29 80     AND #$80                        A:00 X:FF Y:00 P:26 SP:FF CYC:22539
C7AD  F0 F9     BEQ $C7A8                       A:00 X:FF Y:00 P:26 SP:FF CYC:22541
C7A8  AD 02 20  LDA $2002 = 00                  A:00 X:FF Y:00 P:26 SP:FF CYC:22544
C7AB  29 80     AND #$80                        A:00 X:FF Y:00 P:26 SP:FF CYC:22548
C7AD  F0 F9     BEQ $C7A8                       A:00 X:FF Y:00 P:26 SP:FF CYC:22550
C7A8  AD 02 20  LDA $2002 = 00                  A:00 X:FF Y:00 P:26 SP:FF CYC:22553
C7AB  29 80     AND #$80                        A:00 X:FF Y:00 P:26 SP:FF CYC:22557
C7AD  F0 F9     BEQ $C7A8                       A:00 X:FF Y:00 P:26 SP:FF CYC:22559
C7A8  AD 02 20  LDA $2002 = 00                  A:00 X:FF Y:00 P:26 SP:FF CYC:22562
C7AB  29 80     AND #$80                        A:00 X:FF Y:00 P:26 SP:FF CYC:22566
C7AD  F0 F9     BEQ $C7A8                       A:00 X:FF Y:00 P:26 SP:FF CYC:22568
C7A8  AD 02 20  LDA $2002 = 00                  A:00 X:FF Y:00 P:26 SP:FF CYC:22571
C7AB  29 80     AND #$80                        A:00 X:FF Y:00 P:26 SP:FF CYC:22575
C7AD  F0 F9     BEQ $C7A8                       A:00 X:FF Y:00 P:26 SP:FF CYC:22577
C7A8  AD 02 20  LDA $2002 = 00                  A:00 X:FF Y:00 P:26 SP:FF CYC:22580
C7AB  29 80     AND #$80                        A:00 X:FF Y:00 P:26 SP:FF CYC:22584
C7AD  F0 F9     BEQ $C7A8                       A:00 X:FF Y:00 P:26 SP:FF CYC:22586
C7A8  AD 02 20  LDA $2002 = 00                  A:00 X:FF Y:00 P:26 SP:FF CYC:22589
C7AB  29 80     AND #$80                        A:00 X:FF Y:00 P:26 SP:FF CYC:22593
C7AD  F0 F9     BEQ $C7A8                       A:00 X:FF Y:00 P:26 SP:FF CYC:22595
C7A8  AD 02 20  LDA $2002 = 00                  A:00 X:FF Y:00 P:26 SP:FF CYC:22598
C7AB  29 80     AND #$80                        A:00 X:FF Y:00 P:26 SP:FF CYC:22602
C7AD  F0 F9     BEQ $C7A8                       A:00 X:FF Y:00 P:26 SP:FF CYC:22604
C7A8  AD 02 20  LDA $2002 = 00                  A:00 X:FF Y:00 P:26 SP:FF CYC:22607
C7AB  29 80     AND #$80                        A:00 X:FF Y:00 P:26 SP:FF CYC:22611
C7AD  F0 F9     BEQ $C7A8                       A:00 X:FF Y:00 P:26 SP:FF CYC:22613
C7A8  AD 02 20  LDA $2002 = 00                  A:00 X:FF Y:00 P:26 SP:FF CYC:22616
C7AB  29 80     AND #$80                        A:00 X:FF Y:00 P:26 SP:FF CYC:22620
C7AD  F0 F9     BEQ $C7A8                       A:00 X:FF Y:00 P:26 SP:FF CYC:22622
C7A8  AD 02 20  LDA $2002 = 00                  A:00 X:FF Y:00 P:26 SP:FF CYC:22625
C7AB  29 80     AND #$80                        A:00 X:FF Y:00 P:26 SP:FF CYC:22629
C7AD  F0 F9     BEQ $C7A8                       A:00 X:FF Y:00 P:26 SP:FF CYC:22631
C7A8  AD 02 20  LDA $2002 = 00                  A:00 X:FF Y:00 P:26 SP:FF CYC:22634
C7AB  29 80     AND #$80                        A:00 X:FF Y:00 P:26 SP:FF CYC:22638
C7AD  F0 F9     BEQ $C7A8                       A:00 X:FF Y:00 P:26 SP:FF CYC:22640
C7A8  AD 02 20  LDA $2002 = 00                  A:00 X:FF Y:00 P:26 SP:FF CYC:22643
C7AB  29 80     AND #$80                        A:00 X:FF Y:00 P:26 SP:FF CYC:22647
C7AD  F0 F9     BEQ $C7A8                       A:00 X:FF Y:00 P:26 SP:FF CYC:22649
C7A8  AD 02 20  LDA $2002 = 00                  A:00 X:FF Y:00 P:26 SP:FF CYC:22652
C7AB  29 80     AND #$80                        A:00 X:FF Y:00 P:26 SP:FF CYC:22656
C7AD  F0 F9     BEQ $C7A8                       A:00 X:FF Y:00 P:26 SP:FF CYC:22658
C7A8  AD 02 20  LDA $2002 = 00                  A:00 X:FF Y:00 P:26 SP:FF CYC:22661
C7AB  29 80     AND #$80                        A:00 X:FF Y:00 P:26 SP:FF CYC:22665
C7AD  F0 F9     BEQ $C7A8                       A:00 X:FF Y:00 P:26 SP:FF CYC:22667
C7A8  AD 02 20  LDA $2002 = 00                  A:00 X:FF Y:00 P:26 SP:FF CYC:22670
C7AB  29 80     AND #$80                        A:00 X:FF Y:00 P:26 SP:FF CYC:22674
C7AD  F0 F9     BEQ $C7A8                       A:00 X:FF Y:00 P:26 SP:FF CYC:22676
C7A8  AD 02 20  LDA $2002 = 00                  A:00 X:FF Y:00 P:26 SP:FF CYC:22679
C7AB  29 80     AND #$80                        A:00 X:FF Y:00 P:26 SP:FF CYC:22683
C7AD  F0 F9     BEQ $C7A8                       A:00 X:FF Y:00 P:26 SP:FF CYC:22685
C7A8  AD 02 20  LDA $2002 = 00                  A:00 X:FF Y:00 P:26 SP:FF CYC:22688
C7AB  29 80     AND #$80                        A:00 X:FF Y:00 P:26 SP:FF CYC:22692
C7AD  F0 F9     BEQ $C7A8                       A:00 X:FF Y:00 P:26 SP:FF CYC:22694
C7A8  AD 02 20  LDA $2002 = 00                  A:00 X:FF Y:00 P:26 SP:FF CYC:22697
C7AB  29 80     AND #$80                        A:00 X:FF Y:00 P:26 SP:FF CYC:22701
C7AD  F0 F9     BEQ $C7A8                       A:00 X:FF Y:00 P:26 SP:FF CYC:22703
C7A8  AD 02 20  LDA $2002 = 00                  A:00 X:FF Y:00 P:26 SP:FF CYC:22706
C7AB  29 80     AND #$80                        A:00 X:FF Y:00 P:26 SP:FF CYC:22710
C7AD  F0 F9     BEQ $C7A8                       A:00 X:FF Y:00 P:26 SP:FF CYC:22712
C7A8  AD 02 20  LDA $2002 = 00                  A:00 X:FF Y:00 P:26 SP:FF CYC:22715
C7AB  29 80     AND #$80                        A:00 X:FF Y:00 P:26 SP:FF CYC:22719
C7AD  F0 F9     BEQ $C7A8                       A:00 X:FF Y:00 P:26 SP:FF CYC:22721
C7A8  AD 02 20  LDA $2002 = 00                  A:00 X:FF Y:00 P:26 SP:FF CYC:22724
C7AB  29 80     AND #$80                        A:00 X:FF Y:00 P:26 SP:FF CYC:22728
C7AD  F0 F9     BEQ $C7A8                       A:00 X:FF Y:00 P:26 SP:FF CYC:22730
C7A8  AD 02 20  LDA $2002 = 00                  A:00 X:FF Y:00 P:26 SP:FF CYC:22733
C7AB  29 80     AND #$80                        A:00 X:FF Y:00 P:26 SP:FF CYC:22737
C7AD  F0 F9     BEQ $C7A8                       A:00 X:FF Y:00 P:26 SP:FF CYC:22739
C7A8  AD 02 20  LDA $2002 = 00                  A:00 X:FF Y:00 P:26 SP:FF CYC:22742
C7AB  29 80     AND #$80                        A:00 X:FF Y:00 P:26 SP:FF CYC:22746
C7AD  F0 F9     BEQ $C7A8                       A:00 X:FF Y:00 P:26 SP:FF CYC:22748
C7A8  AD 02 20  LDA $2002 = 00                  A:00 X:FF Y:00 P:26 SP:FF CYC:22751
C7AB  29 80     AND #$80                        A:00 X:FF Y:00 P:26 SP:FF CYC:22755
C7AD  F0 F9     BEQ $C7A8                       A:00 X:FF Y:00 P:26 SP:FF CYC:22757
C7A8  AD 02 20  LDA $2002 = 00                  A:00 X:FF Y:00 P:26 SP:FF CYC:22760
C7AB  29 80     AND #$80                        A:00 X:FF Y:00 P:26 SP:FF CYC:22764
C7AD  F0 F9     BEQ $C7A8                       A:00 X:FF Y:00 P:26 SP:FF CYC:22766
C7A8  AD 02 20  LDA $2002 = 00                  A:00 X:FF Y:00 P:26 SP:FF CYC:22769
C7AB  29 80     AND #$80                        A:00 X:FF Y:00 P:26 SP:FF CYC:22773
C7AD  F0 F9     BEQ $C7A8                       A:00 X:FF Y:00 P:26 SP:FF CYC:22775
C7A8  AD 02 20  LDA $2002 = 00                  A:00 X:FF Y:00 P:26 SP:FF CYC:22778
C7AB  29 80     AND #$80                        A:00 X:FF Y:00 P:26 SP:FF CYC:22782
C7AD  F0 F9     BEQ $C7A8                       A:00 X:FF Y:00 P:26 SP:FF CYC:22784
C7A8  AD 02 20  LDA $2002 = 00                  A:00 X:FF Y:00 P:26 SP:FF CYC:22787
C7AB  29 80     AND #$80                        A:00 X:FF Y:00 P:26 SP:FF CYC:22791
C7AD  F0 F9     BEQ $C7A8                       A:00 X:FF Y:00 P:26 SP:FF CYC:22793
C7A8  AD 02 20  LDA $2002 = 00                  A:00 X:FF Y:00 P:26 SP:FF CYC:22796
C7AB  29 80     AND #$80                        A:00 X:FF Y:00 P:26 SP:FF CYC:22800
C7AD  F0 F9     BEQ $C7A8                       A:00 X:FF Y:00 P:26 SP:FF CYC:22802
C7A8  AD 02 20  LDA $2002 = 00                  A:00 X:FF Y:00 P:26 SP:FF CYC:22805
C7AB  29 80     AND #$80                        A:00 X:FF Y:00 P:26 SP:FF CYC:22809
C7AD  F0 F9     BEQ $C7A8                       A:00 X:FF Y:00 P:26 SP:FF CYC:22811
C7A8  AD 02 20  LDA $2002 = 00                  A:00 X:FF Y:00 P:26 SP:FF CYC:22814
C7AB  29 80     AND #$80                        A:00 X:FF Y:00 P:26 SP:FF CYC:22818
C7AD  F0 F9     BEQ $C7A8                       A:00 X:FF Y:00 P:26 SP:FF CYC:22820
C7A8  AD 02 20  LDA $2002 = 00                  A:00 X:FF Y:00 P:26 SP:FF CYC:22823
C7AB  29 80     AND #$80                        A:00 X:FF Y:00 P:26 SP:FF CYC:22827
C7AD  F0 F9     BEQ $C7A8                       A:00 X:FF Y:00 P:26 SP:FF CYC:22829
C7A8  AD 02 20  LDA $2002 = 00                  A:00 X:FF Y:00 P:26 SP:FF CYC:22832
C7AB  29 80     AND #$80                        A:00 X:FF Y:00 P:26 SP:FF CYC:22836
C7AD  F0 F9     BEQ $C7A8                       A:00 X:FF Y:00 P:26 SP:FF CYC:22838
C7A8  AD 02 20  LDA $2002 = 00                  A:00 X:FF Y:00 P:26 SP:FF CYC:22841
C7AB  29 80     AND #$80                        A:00 X:FF Y:00 P:26 SP:FF CYC:22845
C7AD  F0 F9     BEQ $C7A8                       A:00 X:FF Y:00 P:26 SP:FF CYC:22847
C7A8  AD 02 20  LDA $2002 = 00                  A:00 X:FF Y:00 P:26 SP:FF CYC:22850
C7AB  29 80     AND #$80                        A:00 X:FF Y:00 P:26 SP:FF CYC:22854
C7AD  F0 F9     BEQ $C7A8                       A:00 X:FF Y:00 P:26 SP:FF CYC:22856
C7A8  AD 02 20  LDA $2002 = 00                  A:00 X:FF Y:00 P:26 SP:FF CYC:22859
C7AB  29 80     AND #$80                        A:00 X:FF Y:00 P:26 SP:FF CYC:22863
C7AD  F0 F9     BEQ $C7A8                       A:00 X:FF Y:00 P:26 SP:FF CYC:22865
C7A8  AD 02 20  LDA $2002 = 00                  A:00 X:FF Y:00 P:26 SP:FF CYC:22868
C7AB  29 80     AND #$80                        A:00 X:FF Y:00 P:26 SP:FF CYC:22872
C7AD  F0 F9     BEQ $C7A8                       A:00 X:FF Y:00 P:26 SP:FF CYC:22874
C7A8  AD 02 20  LDA $2002 = 00                  A:00 X:FF Y:00 P:26 SP:FF CYC:22877
C7AB  29 80     AND #$80                        A:00 X:FF Y:00 P:26 SP:FF CYC:22881
C7AD  F0 F9     BEQ $C7A8                       A:00 X:FF Y:00 P:26 SP:FF CYC:22883
C7A8  AD 02 20  LDA $2002 = 00                  A:00 X:FF Y:00 P:26 SP:FF CYC:22886
C7AB  29 80     AND #$80                        A:00 X:FF Y:00 P:26 SP:FF CYC:22890
C7AD  F0 F9     BEQ $C7A8                       A:00 X:FF Y:00 P:26 SP:FF CYC:22892
C7A8  AD 02 20  LDA $2002 = 00                  A:00 X:FF Y:00 P:26 SP:FF CYC:22895
C7AB  29 80     AND #$80                        A:00 X:FF Y:00 P:26 SP:FF CYC:22899
C7AD  F0 F9     BEQ $C7A8                       A:00 X:FF Y:00 P:26 SP:FF CYC:22901
C7A8  AD 02 20  LDA $2002 = 00                  A:00 X:FF Y:00 P:26 SP:FF CYC:22904
C7AB  29 80     AND #$80                        A:00 X:FF Y:00 P:26 SP:FF CYC:22908
C7AD  F0 F9     BEQ $C7A8                       A:00 X:FF Y:00 P:26 SP:FF CYC:22910
C7A8  AD 02 20  LDA $2002 = 00                  A:00 X:FF Y:00 P:26 SP:FF CYC:22913
C7AB  29 80     AND #$80                        A:00 X:FF Y:00 P:26 SP:FF CYC:22917
C7AD  F0 F9     BEQ $C7A8                       A:00 X:FF Y:00 P:26 SP:FF CYC:22919
C7A8  AD 02 20  LDA $2002 = 00                  A:00 X:FF Y:00 P:26 SP:FF CYC:22922
C7AB  29 80     AND #$80                        A:00 X:FF Y:00 P:26 SP:FF CYC:22926
C7AD  F0 F9     BEQ $C7A8                       A:00 X:FF Y:00 P:26 SP:FF CYC:22928
C7A8  AD 02 20  LDA $2002 = 00                  A:00 X:FF Y:00 P:26 SP:FF CYC:22931
C7AB  29 80     AND #$80                        A:00 X:FF Y:00 P:26 SP:FF CYC:22935
C7AD  F0 F9     BEQ $C7A8                       A:00 X:FF Y:00 P:26 SP:FF CYC:22937
C7A8  AD 02 20  LDA $2002 = 00                  A:00 X:FF Y:00 P:26 SP:FF CYC:22940
C7AB  29 80     AND #$80                        A:00 X:FF Y:00 P:26 SP:FF CYC:22944
C7AD  F0 F9     BEQ $C7A8                       A:00 X:FF Y:00 P:26 SP:FF CYC:22946
C7A8  AD 02 20  LDA $2002 = 00                  A:00 X:FF Y:00 P:26 SP:FF CYC:22949
C7AB  29 80     AND #$80                        A:00 X:FF Y:00 P:26 SP:FF CYC:22953
C7AD  F0 F9     BEQ $C7A8                       A:00 X:FF Y:00 P:26 SP:FF CYC:22955
C7A8  AD 02 20  LDA $2002 = 00                  A:00 X:FF Y:00 P:26 SP:FF CYC:22958
C7AB  29 80     AND #$80                        A:00 X:FF Y:00 P:26 SP:FF CYC:22962
C7AD  F0 F9     BEQ $C7A8                       A:00 X:FF Y:00 P:26 SP:FF CYC:22964
C7A8  AD 02 20  LDA $2002 = 00                  A:00 X:FF Y:00 P:26 SP:FF CYC:22967
C7AB  29 80     AND #$80                        A:00 X:FF Y:00 P:26 SP:FF CYC:22971
C7AD  F0 F9     BEQ $C7A8                       A:00 X:FF Y:00 P:26 SP:FF CYC:22973
C7A8  AD 02 20  LDA $2002 = 00                  A:00 X:FF Y:00 P:26 SP:FF CYC:22976
C7AB  29 80     AND #$80                        A:00 X:FF Y:00 P:26 SP:FF CYC:22980
C7AD  F0 F9     BEQ $C7A8                       A:00 X:FF Y:00 P:26 SP:FF CYC:22982
C7A8  AD 02 20  LDA $2002 = 00                  A:00 X:FF Y:00 P:26 SP:FF CYC:22985
C7AB  29 80     AND #$80                        A:00 X:FF Y:00 P:26 SP:FF CYC:22989
C7AD  F0 F9     BEQ $C7A8                       A:00 X:FF Y:00 P:26 SP:FF CYC:22991
C7A8  AD 02 20  LDA $2002 = 00                  A:00 X:FF Y:00 P:26 SP:FF CYC:22994
C7AB  29 80     AND #$80                        A:00 X:FF Y:00 P:26 SP:FF CYC:22998
C7AD  F0 F9     BEQ $C7A8                       A:00 X:FF Y:00 P:26 SP:FF CYC:23000
C7A8  AD 02 20  LDA $2002 = 00                  A:00 X:FF Y:00 P:26 SP:FF CYC:23003
C7AB  29 80     AND #$80                        A:00 X:FF Y:00 P:26 SP:FF CYC:23007
C7AD  F0 F9     BEQ $C7A8                       A:00 X:FF Y:00 P:26 SP:FF CYC:23009
C7A8  AD 02 20  LDA $2002 = 00                  A:00 X:FF Y:00 P:26 SP:FF CYC:23012
C7AB  29 80     AND #$80                        A:00 X:FF Y:00 P:26 SP:FF CYC:23016
C7AD  F0 F9     BEQ $C7A8                       A:00 X:FF Y:00 P:26 SP:FF CYC:23018
C7A8  AD 02 20  LDA $2002 = 00                  A:00 X:FF Y:00 P:26 SP:FF CYC:23021
C7AB  29 80     AND #$80                        A:00 X:FF Y:00 P:26 SP:FF CYC:23025
C7AD  F0 F9     BEQ $C7A8                       A:00 X:FF Y:00 P:26 SP:FF CYC:23027
C7A8  AD 02 20  LDA $2002 = 00                  A:00 X:FF Y:00 P:26 SP:FF CYC:23030
C7AB  29 80     AND #$80                        A:00 X:FF Y:00 P:26 SP:FF CYC:23034
C7AD  F0 F9     BEQ $C7A8                       A:00 X:FF Y:00 P:26 SP:FF CYC:23036
C7A8  AD 02 20  LDA $2002 = 00                  A:00 X:FF Y:00 P:26 SP:FF CYC:23039
C7AB  29 80     AND #$80                        A:00 X:FF Y:00 P:26 SP:FF CYC:23043
C7AD  F0 F9     BEQ $C7A8                       A:00 X:FF Y:00 P:26 SP:FF CYC:23045
C7A8  AD 02 20  LDA $2002 = 00                  A:00 X:FF Y:00 P:26 SP:FF CYC:23048
C7AB  29 80     AND #$80                        A:00 X:FF Y:00 P:26 SP:FF CYC:23052
C7AD  F0 F9     BEQ $C7A8                       A:00 X:FF Y:00 P:26 SP:FF CYC:23054
C7A8  AD 02 20  LDA $2002 = 00                  A:00 X:FF Y:00 P:26 SP:FF CYC:23057
C7AB  29 80     AND #$80                        A:00 X:FF Y:00 P:26 SP:FF CYC:23061
C7AD  F0 F9     BEQ $C7A8                       A:00 X:FF Y:00 P:26 SP:FF CYC:23063
C7A8  AD 02 20  LDA $2002 = 00                  A:00 X:FF Y:00 P:26 SP:FF CYC:23066
C7AB  29 80     AND #$80                        A:00 X:FF Y:00 P:26 SP:FF CYC:23070
C7AD  F0 F9     BEQ $C7A8                       A:00 X:FF Y:00 P:26 SP:FF CYC:23072
C7A8  AD 02 20  LDA $2002 = 00                  A:00 X:FF Y:00 P:26 SP:FF CYC:23075
C7AB  29 80     AND #$80                        A:00 X:FF Y:00 P:26 SP:FF CYC:23079
C7AD  F0 F9     BEQ $C7A8                       A:00 X:FF Y:00 P:26 SP:FF CYC:23081
C7A8  AD 02 20  LDA $2002 = 00                  A:00 X:FF Y:00 P:26 SP:FF CYC:23084
C7AB  29 80     AND #$80                        A:00 X:FF Y:00 P:26 SP:FF CYC:23088
C7AD  F0 F9     BEQ $C7A8                       A:00 X:FF Y:00 P:26 SP:FF CYC:23090
C7A8  AD 02 20  LDA $2002 = 00                  A:00 X:FF Y:00 P:26 SP:FF CYC:23093
C7AB  29 80     AND #$80                        A:00 X:FF Y:00 P:26 SP:FF CYC:23097
C7AD  F0 F9     BEQ $C7A8                       A:00 X:FF Y:00 P:26 SP:FF CYC:23099
C7A8  AD 02 20  LDA $2002 = 00                  A:00 X:FF Y:00 P:26 SP:FF CYC:23102
C7AB  29 80     AND #$80                        A:00 X:FF Y:00 P:26 SP:FF CYC:23106
C7AD  F0 F9     BEQ $C7A8                       A:00 X:FF Y:00 P:26 SP:FF CYC:23108
C7A8  AD 02 20  LDA $2002 = 00                  A:00 X:FF Y:00 P:26 SP:FF CYC:23111
C7AB  29 80     AND #$80                        A:00 X:FF Y:00 P:26 SP:FF CYC:23115
C7AD  F0 F9     BEQ $C7A8                       A:00 X:FF Y:00 P:26 SP:FF CYC:23117
C7A8  AD 02 20  LDA $2002 = 00                  A:00 X:FF Y:00 P:26 SP:FF CYC:23120
C7AB  29 80     AND #$80                        A:00 X:FF Y:00 P:26 SP:FF CYC:23124
C7AD  F0 F9     BEQ $C7A8                       A:00 X:FF Y:00 P:26 SP:FF CYC:23126
C7A8  AD 02 20  LDA $2002 = 00                  A:00 X:FF Y:00 P:26 SP:FF CYC:23129
C7AB  29 80     AND #$80                        A:00 X:FF Y:00 P:26 SP:FF CYC:23133
C7AD  F0 F9     BEQ $C7A8                       A:00 X:FF Y:00 P:26 SP:FF CYC:23135
C7A8  AD 02 20  LDA $2002 = 00                  A:00 X:FF Y:00 P:26 SP:FF CYC:23138
C7AB  29 80     AND #$80                        A:00 X:FF Y:00 P:26 SP:FF CYC:23142
C7AD  F0 F9     BEQ $C7A8                       A:00 X:FF Y:00 P:26 SP:FF CYC:23144
C7A8  AD 02 20  LDA $2002 = 00                  A:00 X:FF Y:00 P:26 SP:FF CYC:23147
C7AB  29 80     AND #$80                        A:00 X:FF Y:00 P:26 SP:FF CYC:23151
C7AD  F0 F9     BEQ $C7A8                       A:00 X:FF Y:00 P:26 SP:FF CYC:23153
C7A8  AD 02 20  LDA $2002 = 00                  A:00 X:FF Y:00 P:26 SP:FF CYC:23156
C7AB  29 80     AND #$80                        A:00 X:FF Y:00 P:26 SP:FF CYC:23160
C7AD  F0 F9     BEQ $C7A8                       A:00 X:FF Y:00 P:26 SP:FF CYC:23162
C7A8  AD 02 20  LDA $2002 = 00                  A:00 X:FF Y:00 P:26 SP:FF CYC:23165
C7AB  29 80     AND #$80                        A:00 X:FF Y:00 P:26 SP:FF CYC:23169
C7AD  F0 F9     BEQ $C7A8                       A:00 X:FF Y:00 P:26 SP:FF CYC:23171
C7A8  AD 02 20  LDA $2002 = 00                  A:00 X:FF Y:00 P:26 SP:FF CYC:23174
C7AB  29 80     AND #$80                        A:00 X:FF Y:00 P:26 SP:FF CYC:23178
C7AD  F0 F9     BEQ $C7A8                       A:00 X:FF Y:00 P:26 SP:FF CYC:23180
C7A8  AD 02 20  LDA $2002 = 00                  A:00 X:FF Y:00 P:26 SP:FF CYC:23183
C7AB  29 80     AND #$80                        A:00 X:FF Y:00 P:26 SP:FF CYC:23187
C7AD  F0 F9     BEQ $C7A8                       A:00 X:FF Y:00 P:26 SP:FF CYC:23189
C7A8  AD 02 20  LDA $2002 = 00                  A:00 X:FF Y:00 P:26 SP:FF CYC:23192
C7AB  29 80     AND #$80                        A:00 X:FF Y:00 P:26 SP:FF CYC:23196
C7AD  F0 F9     BEQ $C7A8                       A:00 X:FF Y:00 P:26 SP:FF CYC:23198
C7A8  AD 02 20  LDA $2002 = 00                  A:00 X:FF Y:00 P:26 SP:FF CYC:23201
C7AB  29 80     AND #$80                        A:00 X:FF Y:00 P:26 SP:FF CYC:23205
C7AD  F0 F9     BEQ $C7A8                       A:00 X:FF Y:00 P:26 SP:FF CYC:23207
C7A8  AD 02 20  LDA $2002 = 00                  A:00 X:FF Y:00 P:26 SP:FF CYC:23210
C7AB  29 80     AND #$80                        A:00 X:FF Y:00 P:26 SP:FF CYC:23214
C7AD  F0 F9     BEQ $C7A8                       A:00 X:FF Y:00 P:26 SP:FF CYC:23216
C7A8  AD 02 20  LDA $2002 = 00                  A:00 X:FF Y:00 P:26 SP:FF CYC:23219
C7AB  29 80     AND #$80                        A:00 X:FF Y:00 P:26 SP:FF CYC:23223
C7AD  F0 F9     BEQ $C7A8                       A:00 X:FF Y:00 P:26 SP:FF CYC:23225
C7A8  AD 02 20  LDA $2002 = 00                  A:00 X:FF Y:00 P:26 SP:FF CYC:23228
C7AB  29 80     AND #$80                        A:00 X:FF Y:00 P:26 SP:FF CYC:23232
C7AD  F0 F9     BEQ $C7A8                       A:00 X:FF Y:00 P:26 SP:FF CYC:23234
C7A8  AD 02 20  LDA $2002 = 00                  A:00 X:FF Y:00 P:26 SP:FF CYC:23237
C7AB  29 80     AND #$80                        A:00 X:FF Y:00 P:26 SP:FF CYC:23241
C7AD  F0 F9     BEQ $C7A8                       A:00 X:FF Y:00 P:26 SP:FF CYC:23243
C7A8  AD 02 20  LDA $2002 = 00                  A:00 X:FF Y:00 P:26 SP:FF CYC:23246
C7AB  29 80     AND #$80                        A:00 X:FF Y:00 P:26 SP:FF CYC:23250
C7AD  F0 F9     BEQ $C7A8                       A:00 X:FF Y:00 P:26 SP:FF CYC:23252
C7A8  AD 02 20  LDA $2002 = 00                  A:00 X:FF Y:00 P:26 SP:FF CYC:23255
C7AB  29 80     AND #$80                        A:00 X:FF Y:00 P:26 SP:FF CYC:23259
C7AD  F0 F9     BEQ $C7A8                       A:00 X:FF Y:00 P:26 SP:FF CYC:23261
C7A8  AD 02 20  LDA $2002 = 00                  A:00 X:FF Y:00 P:26 SP:FF CYC:23264
C7AB  29 80     AND #$80                        A:00 X:FF Y:00 P:26 SP:FF CYC:23268
C7AD  F0 F9     BEQ $C7A8                       A:00 X:FF Y:00 P:26 SP:FF CYC:23270
C7A8  AD 02 20  LDA $2002 = 00                  A:00 X:FF Y:00 P:26 SP:FF CYC:23273
C7AB  29 80     AND #$80                        A:00 X:FF Y:00 P:26 SP:FF CYC:23277
C7AD  F0 F9     BEQ $C7A8                       A:00 X:FF Y:00 P:26 SP:FF CYC:23279
C7A8  AD 02 20  LDA $2002 = 00                  A:00 X:FF Y:00 P:26 SP:FF CYC:23282
C7AB  29 80     AND #$80                        A:00 X:FF Y:00 P:26 SP:FF CYC:23286
C7AD  F0 F9     BEQ $C7A8                       A:00 X:FF Y:00 P:26 SP:FF CYC:23288
C7A8  AD 02 20  LDA $2002 = 00                  A:00 X:FF Y:00 P:26 SP:FF CYC:23291
C7AB  29 80     AND #$80                        A:00 X:FF Y:00 P:26 SP:FF CYC:23295
C7AD  F0 F9     BEQ $C7A8                       A:00 X:FF Y:00 P:26 SP:FF CYC:23297
C7A8  AD 02 20  LDA $2002 = 00                  A:00 X:FF Y:00 P:26 SP:FF CYC:23300
C7AB  29 80     AND #$80                        A:00 X:FF Y:00 P:26 SP:FF CYC:23304
C7AD  F0 F9     BEQ $C7A8                       A:00 X:FF Y:00 P:26 SP:FF CYC:23306
C7A8  AD 02 20  LDA $2002 = 00                  A:00 X:FF Y:00 P:26 SP:FF CYC:23309
C7AB  29 80     AND #$80                        A:00 X:FF Y:00 P:26 SP:FF CYC:23313
C7AD  F0 F9     BEQ $C7A8                       A:00 X:FF Y:00 P:26 SP:FF CYC:23315
C7A8  AD 02 20  LDA $2002 = 00                  A:00 X:FF Y:00 P:26 SP:FF CYC:23318
C7AB  29 80     AND #$80                        A:00 X:FF Y:00 P:26 SP:FF CYC:23322
C7AD  F0 F9     BEQ $C7A8                       A:00 X:FF Y:00 P:26 SP:FF CYC:23324
C7A8  AD 02 20  LDA $2002 = 00                  A:00 X:FF Y:00 P:26 SP:FF CYC:23327
C7AB  29 80     AND #$80                        A:00 X:FF Y:00 P:26 SP:FF CYC:23331
C7AD  F0 F9     BEQ $C7A8                       A:00 X:FF Y:00 P:26 SP:FF CYC:23333
C7A8  AD 02 20  LDA $2002 = 00                  A:00 X:FF Y:00 P:26 SP:FF CYC:23336
C7AB  29 80     AND #$80                        A:00 X:FF Y:00 P:26 SP:FF CYC:23340
C7AD  F0 F9     BEQ $C7A8                       A:00 X:FF Y:00 P:26 SP:FF CYC:23342
C7A8  AD 02 20  LDA $2002 = 00                  A:00 X:FF Y:00 P:26 SP:FF CYC:23345
C7AB  29 80     AND #$80                        A:00 X:FF Y:00 P:26 SP:FF CYC:23349
C7AD  F0 F9     BEQ $C7A8                       A:00 X:FF Y:00 P:26 SP:FF CYC:23351
C7A8  AD 02 20  LDA $2002 = 00                  A:00 X:FF Y:00 P:26 SP:FF CYC:23354
C7AB  29 80     AND #$80                        A:00 X:FF Y:00 P:26 SP:FF CYC:23358
C7AD  F0 F9     BEQ $C7A8                       A:00 X:FF Y:00 P:26 SP:FF CYC:23360
C7A8  AD 02 20  LDA $2002 = 00                  A:00 X:FF Y:00 P:26 SP:FF CYC:23363
C7AB  29 80     AND #$80                        A:00 X:FF Y:00 P:26 SP:FF CYC:23367
C7AD  F0 F9     BEQ $C7A8                       A:00 X:FF Y:00 P:26 SP:FF CYC:23369
C7A8  AD 02 20  LDA $2002 = 00                  A:00 X:FF Y:00 P:26 SP:FF CYC:23372
C7AB  29 80     AND #$80                        A:00 X:FF Y:00 P:26 SP:FF CYC:23376
C7AD  F0 F9     BEQ $C7A8                       A:00 X:FF Y:00 P:26 SP:FF CYC:23378
C7A8  AD 02 20  LDA $2002 = 00                  A:00 X:FF Y:00 P:26 SP:FF CYC:23381
C7AB  29 80     AND #$80                        A:00 X:FF Y:00 P:26 SP:FF CYC:23385
C7AD  F0 F9     BEQ $C7A8                       A:00 X:FF Y:00 P:26 SP:FF CYC:23387
C7A8  AD 02 20  LDA $2002 = 00                  A:00 X:FF Y:00 P:26 SP:FF CYC:23390
C7AB  29 80     AND #$80                        A:00 X:FF Y:00 P:26 SP:FF CYC:23394
C7AD  F0 F9     BEQ $C7A8                       A:00 X:FF Y:00 P:26 SP:FF CYC:23396
C7A8  AD 02 20  LDA $2002 = 00                  A:00 X:FF Y:00 P:26 SP:FF CYC:23399
C7AB  29 80     AND #$80                        A:00 X:FF Y:00 P:26 SP:FF CYC:23403
C7AD  F0 F9     BEQ $C7A8                       A:00 X:FF Y:00 P:26 SP:FF CYC:23405
C7A8  AD 02 20  LDA $2002 = 00                  A:00 X:FF Y:00 P:26 SP:FF CYC:23408
C7AB  29 80     AND #$80                        A:00 X:FF Y:00 P:26 SP:FF CYC:23412
C7AD  F0 F9     BEQ $C7A8                       A:00 X:FF Y:00 P:26 SP:FF CYC:23414
C7A8  AD 02 20  LDA $2002 = 00                  A:00 X:FF Y:00 P:26 SP:FF CYC:23417
C7AB  29 80     AND #$80                        A:00 X:FF Y:00 P:26 SP:FF CYC:23421
C7AD  F0 F9     BEQ $C7A8                       A:00 X:FF Y:00 P:26 SP:FF CYC:23423
C7A8  AD 02 20  LDA $2002 = 00                  A:00 X:FF Y:00 P:26 SP:FF CYC:23426
C7AB  29 80     AND #$80                        A:00 X:FF Y:00 P:26 SP:FF CYC:23430
C7AD  F0 F9     BEQ $C7A8                       A:00 X:FF Y:00 P:26 SP:FF CYC:23432
C7A8  AD 02 20  LDA $2002 = 00                  A:00 X:FF Y:00 P:26 SP:FF CYC:23435
C7AB  29 80     AND #$80                        A:00 X:FF Y:00 P:26 SP:FF CYC:23439
C7AD  F0 F9     BEQ $C7A8                       A:00 X:FF Y:00 P:26 SP:FF CYC:23441
C7A8  AD 02 20  LDA $2002 = 00                  A:00 X:FF Y:00 P:26 SP:FF CYC:23444
C7AB  29 80     AND #$80                        A:00 X:FF Y:00 P:26 SP:FF CYC:23448
C7AD  F0 F9     BEQ $C7A8                       A:00 X:FF Y:00 P:26 SP:FF CYC:23450
C7A8  AD 02 20  LDA $2002 = 00                  A:00 X:FF Y:00 P:26 SP:FF CYC:23453
C7AB  29 80     AND #$80                        A:00 X:FF Y:00 P:26 SP:FF CYC:23457
C7AD  F0 F9     BEQ $C7A8                       A:00 X:FF Y:00 P:26 SP:FF CYC:23459
C7A8  AD 02 20  LDA $2002 = 00                  A:00 X:FF Y:00 P:26 SP:FF CYC:23462
C7AB  29 80     AND #$80                        A:00 X:FF Y:00 P:26 SP:FF CYC:23466
C7AD  F0 F9     BEQ $C7A8                       A:00 X:FF Y:00 P:26 SP:FF CYC:23468
C7A8  AD 02 20  LDA $2002 = 00                  A:00 X:FF Y:00 P:26 SP:FF CYC:23471
C7AB  29 80     AND #$80                        A:00 X:FF Y:00 P:26 SP:FF CYC:23475
C7AD  F0 F9     BEQ $C7A8                       A:00 X:FF Y:00 P:26 SP:FF CYC:23477
C7A8  AD 02 20  LDA $2002 = 00                  A:00 X:FF Y:00 P:26 SP:FF CYC:23480
C7AB  29 80     AND #$80                        A:00 X:FF Y:00 P:26 SP:FF CYC:23484
C7AD  F0 F9     BEQ $C7A8                       A:00 X:FF Y:00 P:26 SP:FF CYC:23486
C7A8  AD 02 20  LDA $2002 = 00                  A:00 X:FF Y:00 P:26 SP:FF CYC:23489
C7AB  29 80     AND #$80                        A:00 X:FF Y:00 P:26 SP:FF CYC:23493
C7AD  F0 F9     BEQ $C7A8                       A:00 X:FF Y:00 P:26 SP:FF CYC:23495
C7A8  AD 02 20  LDA $2002 = 00                  A:00 X:FF Y:00 P:26 SP:FF CYC:23498
C7AB  29 80     AND #$80                        A:00 X:FF Y:00 P:26 SP:FF CYC:23502
C7AD  F0 F9     BEQ $C7A8                       A:00 X:FF Y:00 P:26 SP:FF CYC:23504
C7A8  AD 02 20  LDA $2002 = 00                  A:00 X:FF Y:00 P:26 SP:FF CYC:23507
C7AB  29 80     AND #$80                        A:00 X:FF Y:00 P:26 SP:FF CYC:23511
C7AD  F0 F9     BEQ $C7A8                       A:00 X:FF Y:00 P:26 SP:FF CYC:23513
C7A8  AD 02 20  LDA $2002 = 00                  A:00 X:FF Y:00 P:26 SP:FF CYC:23516
C7AB  29 80     AND #$80                        A:00 X:FF Y:00 P:26 SP:FF CYC:23520
C7AD  F0 F9     BEQ $C7A8                       A:00 X:FF Y:00 P:26 SP:FF CYC:23522
C7A8  AD 02 20  LDA $2002 = 00                  A:00 X:FF Y:00 P:26 SP:FF CYC:23525
C7AB  29 80     AND #$80                        A:00 X:FF Y:00 P:26 SP:FF CYC:23529
C7AD  F0 F9     BEQ $C7A8                       A:00 X:FF Y:00 P:26 SP:FF CYC:23531
C7A8  AD 02 20  LDA $2002 = 00                  A:00 X:FF Y:00 P:26 SP:FF CYC:23534
C7AB  29 80     AND #$80                        A:00 X:FF Y:00 P:26 SP:FF CYC:23538
C7AD  F0 F9     BEQ $C7A8                       A:00 X:FF Y:00 P:26 SP:FF CYC:23540
C7A8  AD 02 20  LDA $2002 = 00                  A:00 X:FF Y:00 P:26 SP:FF CYC:23543
C7AB  29 80     AND #$80                        A:00 X:FF Y:00 P:26 SP:FF CYC:23547
C7AD  F0 F9     BEQ $C7A8                       A:00 X:FF Y:00 P:26 SP:FF CYC:23549
C7A8  AD 02 20  LDA $2002 = 00                  A:00 X:FF Y:00 P:26 SP:FF CYC:23552
C7AB  29 80     AND #$80                        A:00 X:FF Y:00 P:26 SP:FF CYC:23556
C7AD  F0 F9     BEQ $C7A8                       A:00 X:FF Y:00 P:26 SP:FF CYC:23558
C7A8  AD 02 20  LDA $2002 = 00                  A:00 X:FF Y:00 P:26 SP:FF CYC:23561
C7AB  29 80     AND #$80                        A:00 X:FF Y:00 P:26 SP:FF CYC:23565
C7AD  F0 F9     BEQ $C7A8                       A:00 X:FF Y:00 P:26 SP:FF CYC:23567
C7A8  AD 02 20  LDA $2002 = 00                  A:00 X:FF Y:00 P:26 SP:FF CYC:23570
C7AB  29 80     AND #$80                        A:00 X:FF Y:00 P:26 SP:FF CYC:23574
C7AD  F0 F9     BEQ $C7A8                       A:00 X:FF Y:00 P:26 SP:FF CYC:23576
C7A8  AD 02 20  LDA $2002 = 00                  A:00 X:FF Y:00 P:26 SP:FF CYC:23579
C7AB  29 80     AND #$80                        A:00 X:FF Y:00 P:26 SP:FF CYC:23583
C7AD  F0 F9     BEQ $C7A8                       A:00 X:FF Y:00 P:26 SP:FF CYC:23585
C7A8  AD 02 20  LDA $2002 = 00                  A:00 X:FF Y:00 P:26 SP:FF CYC:23588
C7AB  29 80     AND #$80                        A:00 X:FF Y:00 P:26 SP:FF CYC:23592
C7AD  F0 F9     BEQ $C7A8                       A:00 X:FF Y:00 P:26 SP:FF CYC:23594
C7A8  AD 02 20  LDA $2002 = 00                  A:00 X:FF Y:00 P:26 SP:FF CYC:23597
C7AB  29 80     AND #$80                        A:00 X:FF Y:00 P:26 SP:FF CYC:23601
C7AD  F0 F9     BEQ $C7A8                       A:00 X:FF Y:00 P:26 SP:FF CYC:23603
C7A8  AD 02 20  LDA $2002 = 00                  A:00 X:FF Y:00 P:26 SP:FF CYC:23606
C7AB  29 80     AND #$80                        A:00 X:FF Y:00 P:26 SP:FF CYC:23610
C7AD  F0 F9     BEQ $C7A8                       A:00 X:FF Y:00 P:26 SP:FF CYC:23612
C7A8  AD 02 20  LDA $2002 = 00                  A:00 X:FF Y:00 P:26 SP:FF CYC:23615
C7AB  29 80     AND #$80                        A:00 X:FF Y:00 P:26 SP:FF CYC:23619
C7AD  F0 F9     BEQ $C7A8                       A:00 X:FF Y:00 P:26 SP:FF CYC:23621
C7A8  AD 02 20  LDA $2002 = 00                  A:00 X:FF Y:00 P:26 SP:FF CYC:23624
C7AB  29 80     AND #$80                        A:00 X:FF Y:00 P:26 SP:FF CYC:23628
C7AD  F0 F9     BEQ $C7A8                       A:00 X:FF Y:00 P:26 SP:FF CYC:23630
C7A8  AD 02 20  LDA $2002 = 00                  A:00 X:FF Y:00 P:26 SP:FF CYC:23633
C7AB  29 80     AND #$80                        A:00 X:FF Y:00 P:26 SP:FF CYC:23637
C7AD  F0 F9     BEQ $C7A8                       A:00 X:FF Y:00 P:26 SP:FF CYC:23639
C7A8  AD 02 20  LDA $2002 = 00                  A:00 X:FF Y:00 P:26 SP:FF CYC:23642
C7AB  29 80     AND #$80                        A:00 X:FF Y:00 P:26 SP:FF CYC:23646
C7AD  F0 F9     BEQ $C7A8                       A:00 X:FF Y:00 P:26 SP:FF CYC:23648
C7A8  AD 02 20  LDA $2002 = 00                  A:00 X:FF Y:00 P:26 SP:FF CYC:23651
C7AB  29 80     AND #$80                        A:00 X:FF Y:00 P:26 SP:FF CYC:23655
C7AD  F0 F9     BEQ $C7A8                       A:00 X:FF Y:00 P:26 SP:FF CYC:23657
C7A8  AD 02 20  LDA $2002 = 00                  A:00 X:FF Y:00 P:26 SP:FF CYC:23660
C7AB  29 80     AND #$80                        A:00 X:FF Y:00 P:26 SP:FF CYC:23664
C7AD  F0 F9     BEQ $C7A8                       A:00 X:FF Y:00 P:26 SP:FF CYC:23666
C7A8  AD 02 20  LDA $2002 = 00                  A:00 X:FF Y:00 P:26 SP:FF CYC:23669
C7AB  29 80     AND #$80                        A:00 X:FF Y:00 P:26 SP:FF CYC:23673
C7AD  F0 F9     BEQ $C7A8                       A:00 X:FF Y:00 P:26 SP:FF CYC:23675
C7A8  AD 02 20  LDA $2002 = 00                  A:00 X:FF Y:00 P:26 SP:FF CYC:23678
C7AB  29 80     AND #$80                        A:00 X:FF Y:00 P:26 SP:FF CYC:23682
C7AD  F0 F9     BEQ $C7A8                       A:00 X:FF Y:00 P:26 SP:FF CYC:23684
C7A8  AD 02 20  LDA $2002 = 00                  A:00 X:FF Y:00 P:26 SP:FF CYC:23687
C7AB  29 80     AND #$80                        A:00 X:FF Y:00 P:26 SP:FF CYC:23691
C7AD  F0 F9     BEQ $C7A8                       A:00 X:FF Y:00 P:26 SP:FF CYC:23693
C7A8  AD 02 20  LDA $2002 = 00                  A:00 X:FF Y:00 P:26 SP:FF CYC:23696
C7AB  29 80     AND #$80                        A:00 X:FF Y:00 P:26 SP:FF CYC:23700
C7AD  F0 F9     BEQ $C7A8                       A:00 X:FF Y:00 P:26 SP:FF CYC:23702
C7A8  AD 02 20  LDA $2002 = 00                  A:00 X:FF Y:00 P:26 SP:FF CYC:23705
C7AB  29 80     AND #$80                        A:00 X:FF Y:00 P:26 SP:FF CYC:23709
C7AD  F0 F9     BEQ $C7A8                       A:00 X:FF Y:00 P:26 SP:FF CYC:23711
C7A8  AD 02 20  LDA $2002 = 00                  A:00 X:FF Y:00 P:26 SP:FF CYC:23714
C7AB  29 80     AND #$80                        A:00 X:FF Y:00 P:26 SP:FF CYC:23718
C7AD  F0 F9     BEQ $C7A8                       A:00 X:FF Y:00 P:26 SP:FF CYC:23720
C7A8  AD 02 20  LDA $2002 = 00                  A:00 X:FF Y:00 P:26 SP:FF CYC:23723
C7AB  29 80     AND #$80                        A:00 X:FF Y:00 P:26 SP:FF CYC:23727
C7AD  F0 F9     BEQ $C7A8                       A:00 X:FF Y:00 P:26 SP:FF CYC:23729
C7A8  AD 02 20  LDA $2002 = 00                  A:00 X:FF Y:00 P:26 SP:FF CYC:23732
C7AB  29 80     AND #$80                        A:00 X:FF Y:00 P:26 SP:FF CYC:23736
C7AD  F0 F9     BEQ $C7A8                       A:00 X:FF Y:00 P:26 SP:FF CYC:23738
C7A8  AD 02 20  LDA $2002 = 00                  A:00 X:FF Y:00 P:26 SP:FF CYC:23741
C7AB  29 80     AND #$80                        A:00 X:FF Y:00 P:26 SP:FF CYC:23745
C7AD  F0 F9     BEQ $C7A8                       A:00 X:FF Y:00 P:26 SP:FF CYC:23747
C7A8  AD 02 20  LDA $2002 = 00                  A:00 X:FF Y:00 P:26 SP:FF CYC:23750
C7AB  29 80     AND #$80                        A:00 X:FF Y:00 P:26 SP:FF CYC:23754
C7AD  F0 F9     BEQ $C7A8                       A:00 X:FF Y:00 P:26 SP:FF CYC:23756
C7A8  AD 02 20  LDA $2002 = 00                  A:00 X:FF Y:00 P:26 SP:FF CYC:23759
C7AB  29 80     AND #$80                        A:00 X:FF Y:00 P:26 SP:FF CYC:23763
C7AD  F0 F9     BEQ $C7A8                       A:00 X:FF Y:00 P:26 SP:FF CYC:23765
C7A8  AD 02 20  LDA $2002 = 00                  A:00 X:FF Y:00 P:26 SP:FF CYC:23768
C7AB  29 80     AND #$80                        A:00 X:FF Y:00 P:26 SP:FF CYC:23772
C7AD  F0 F9     BEQ $C7A8                       A:00 X:FF Y:00 P:26 SP:FF CYC:23774
C7A8  AD 02 20  LDA $2002 = 00                  A:00 X:FF Y:00 P:26 SP:FF CYC:23777
C7AB  29 80     AND #$80                        A:00 X:FF Y:00 P:26 SP:FF CYC:23781
C7AD  F0 F9     BEQ $C7A8                       A:00 X:FF Y:00 P:26 SP:FF CYC:23783
C7A8  AD 02 20  LDA $2002 = 00                  A:00 X:FF Y:00 P:26 SP:FF CYC:23786
C7AB  29 80     AND #$80                        A:00 X:FF Y:00 P:26 SP:FF CYC:23790
C7AD  F0 F9     BEQ $C7A8                       A:00 X:FF Y:00 P:26 SP:FF CYC:23792
C7A8  AD 02 20  LDA $2002 = 00                  A:00 X:FF Y:00 P:26 SP:FF CYC:23795
C7AB  29 80     AND #$80                        A:00 X:FF Y:00 P:26 SP:FF CYC:23799
C7AD  F0 F9     BEQ $C7A8                       A:00 X:FF Y:00 P:26 SP:FF CYC:23801
C7A8  AD 02 20  LDA $2002 = 00                  A:00 X:FF Y:00 P:26 SP:FF CYC:23804
C7AB  29 80     AND #$80                        A:00 X:FF Y:00 P:26 SP:FF CYC:23808
C7AD  F0 F9     BEQ $C7A8                       A:00 X:FF Y:00 P:26 SP:FF CYC:23810
C7A8  AD 02 20  LDA $2002 = 00                  A:00 X:FF Y:00 P:26 SP:FF CYC:23813
C7AB  29 80     AND #$80                        A:00 X:FF Y:00 P:26 SP:FF CYC:23817
C7AD  F0 F9     BEQ $C7A8                       A:00 X:FF Y:00 P:26 SP:FF CYC:23819
C7A8  AD 02 20  LDA $2002 = 00                  A:00 X:FF Y:00 P:26 SP:FF CYC:23822
C7AB  29 80     AND #$80                        A:00 X:FF Y:00 P:26 SP:FF CYC:23826
C7AD  F0 F9     BEQ $C7A8                       A:00 X:FF Y:00 P:26 SP:FF CYC:23828
C7A8  AD 02 20  LDA $2002 = 00                  A:00 X:FF Y:00 P:26 SP:FF CYC:23831
C7AB  29 80     AND #$80                        A:00 X:FF Y:00 P:26 SP:FF CYC:23835
C7AD  F0 F9     BEQ $C7A8                       A:00 X:FF Y:00 P:26 SP:FF CYC:23837
C7A8  AD 02 20  LDA $2002 = 00                  A:00 X:FF Y:00 P:26 SP:FF CYC:23840
C7AB  29 80     AND #$80                        A:00 X:FF Y:00 P:26 SP:FF CYC:23844
C7AD  F0 F9     BEQ $C7A8                       A:00 X:FF Y:00 P:26 SP:FF CYC:23846
C7A8  AD 02 20  LDA $2002 = 00                  A:00 X:FF Y:00 P:26 SP:FF CYC:23849
C7AB  29 80     AND #$80                        A:00 X:FF Y:00 P:26 SP:FF CYC:23853
C7AD  F0 F9     BEQ $C7A8                       A:00 X:FF Y:00 P:26 SP:FF CYC:23855
C7A8  AD 02 20  LDA $2002 = 00                  A:00 X:FF Y:00 P:26 SP:FF CYC:23858
C7AB  29 80     AND #$80                        A:00 X:FF Y:00 P:26 SP:FF CYC:23862
C7AD  F0 F9     BEQ $C7A8                       A:00 X:FF Y:00 P:26 SP:FF CYC:23864
C7A8  AD 02 20  LDA $2002 = 00                  A:00 X:FF Y:00 P:26 SP:FF CYC:23867
C7AB  29 80     AND #$80                        A:00 X:FF Y:00 P:26 SP:FF CYC:23871
C7AD  F0 F9     BEQ $C7A8                       A:00 X:FF Y:00 P:26 SP:FF CYC:23873
C7A8  AD 02 20  LDA $2002 = 00                  A:00 X:FF Y:00 P:26 SP:FF CYC:23876
C7AB  29 80     AND #$80                        A:00 X:FF Y:00 P:26 SP:FF CYC:23880
C7AD  F0 F9     BEQ $C7A8                       A:00 X:FF Y:00 P:26 SP:FF CYC:23882
C7A8  AD 02 20  LDA $2002 = 00                  A:00 X:FF Y:00 P:26 SP:FF CYC:23885
C7AB  29 80     AND #$80                        A:00 X:FF Y:00 P:26 SP:FF CYC:23889
C7AD  F0 F9     BEQ $C7A8                       A:00 X:FF Y:00 P:26 SP:FF CYC:23891
C7A8  AD 02 20  LDA $2002 = 00                  A:00 X:FF Y:00 P:26 SP:FF CYC:23894
C7AB  29 80     AND #$80                        A:00 X:FF Y:00 P:26 SP:FF CYC:23898
C7AD  F0 F9     BEQ $C7A8                       A:00 X:FF Y:00 P:26 SP:FF CYC:23900
C7A8  AD 02 20  LDA $2002 = 00                  A:00 X:FF Y:00 P:26 SP:FF CYC:23903
C7AB  29 80     AND #$80                        A:00 X:FF Y:00 P:26 SP:FF CYC:23907
C7AD  F0 F9     BEQ $C7A8                       A:00 X:FF Y:00 P:26 SP:FF CYC:23909
C7A8  AD 02 20  LDA $2002 = 00                  A:00 X:FF Y:00 P:26 SP:FF CYC:23912
C7AB  29 80     AND #$80                        A:00 X:FF Y:00 P:26 SP:FF CYC:23916
C7AD  F0 F9     BEQ $C7A8                       A:00 X:FF Y:00 P:26 SP:FF CYC:23918
C7A8  AD 02 20  LDA $2002 = 00                  A:00 X:FF Y:00 P:26 SP:FF CYC:23921
C7AB  29 80     AND #$80                        A:00 X:FF Y:00 P:26 SP:FF CYC:23925
C7AD  F0 F9     BEQ $C7A8                       A:00 X:FF Y:00 P:26 SP:FF CYC:23927
C7A8  AD 02 20  LDA $2002 = 00                  A:00 X:FF Y:00 P:26 SP:FF CYC:23930
C7AB  29 80     AND #$80                        A:00 X:FF Y:00 P:26 SP:FF CYC:23934
C7AD  F0 F9     BEQ $C7A8                       A:00 X:FF Y:00 P:26 SP:FF CYC:23936
C7A8  AD 02 20  LDA $2002 = 00                  A:00 X:FF Y:00 P:26 SP:FF CYC:23939
C7AB  29 80     AND #$80                        A:00 X:FF Y:00 P:26 SP:FF CYC:23943
C7AD  F0 F9     BEQ $C7A8                       A:00 X:FF Y:00 P:26 SP:FF CYC:23945
C7A8  AD 02 20  LDA $2002 = 00                  A:00 X:FF Y:00 P:26 SP:FF CYC:23948
C7AB  29 80     AND #$80                        A:00 X:FF Y:00 P:26 SP:FF CYC:23952
C7AD  F0 F9     BEQ $C7A8                       A:00 X:FF Y:00 P:26 SP:FF CYC:23954
C7A8  AD 02 20  LDA $2002 = 00                  A:00 X:FF Y:00 P:26 SP:FF CYC:23957
C7AB  29 80     AND #$80                        A:00 X:FF Y:00 P:26 SP:FF CYC:23961
C7AD  F0 F9     BEQ $C7A8                       A:00 X:FF Y:00 P:26 SP:FF CYC:23963
C7A8  AD 02 20  LDA $2002 = 00                  A:00 X:FF Y:00 P:26 SP:FF CYC:23966
C7AB  29 80     AND #$80                        A:00 X:FF Y:00 P:26 SP:FF CYC:23970
C7AD  F0 F9     BEQ $C7A8                       A:00 X:FF Y:00 P:26 SP:FF CYC:23972
C7A8  AD 02 20  LDA $2002 = 00                  A:00 X:FF Y:00 P:26 SP:FF CYC:23975
C7AB  29 80     AND #$80                        A:00 X:FF Y:00 P:26 SP:FF CYC:23979
C7AD  F0 F9     BEQ $C7A8                       A:00 X:FF Y:00 P:26 SP:FF CYC:23981
C7A8  AD 02 20  LDA $2002 = 00                  A:00 X:FF Y:00 P:26 SP:FF CYC:23984
C7AB  29 80     AND #$80                        A:00 X:FF Y:00 P:26 SP:FF CYC:23988
C7AD  F0 F9     BEQ $C7A8                       A:00 X:FF Y:00 P:26 SP:FF CYC:23990
C7A8  AD 02 20  LDA $2002 = 00                  A:00 X:FF Y:00 P:26 SP:FF CYC:23993
C7AB  29 80     AND #$80                        A:00 X:FF Y:00 P:26 SP:FF CYC:23997
C7AD  F0 F9     BEQ $C7A8                       A:00 X:FF Y:00 P:26 SP:FF CYC:23999
C7A8  AD 02 20  LDA $2002 = 00                  A:00 X:FF Y:00 P:26 SP:FF CYC:24002
C7AB  29 80     AND #$80                        A:00 X:FF Y:00 P:26 SP:FF CYC:24006
C7AD  F0 F9     BEQ $C7A8                       A:00 X:FF Y:00 P:26 SP:FF CYC:24008
C7A8  AD 02 20  LDA $2002 = 00                  A:00 X:FF Y:00 P:26 SP:FF CYC:24011
C7AB  29 80     AND #$80                        A:00 X:FF Y:00 P:26 SP:FF CYC:24015
C7AD  F0 F9     BEQ $C7A8                       A:00 X:FF Y:00 P:26 SP:FF CYC:24017
C7A8  AD 02 20  LDA $2002 = 00                  A:00 X:FF Y:00 P:26 SP:FF CYC:24020
C7AB  29 80     AND #$80                        A:00 X:FF Y:00 P:26 SP:FF CYC:24024
C7AD  F0 F9     BEQ $C7A8                       A:00 X:FF Y:00 P:26 SP:FF CYC:24026
C7A8  AD 02 20  LDA $2002 = 00                  A:00 X:FF Y:00 P:26 SP:FF CYC:24029
C7AB  29 80     AND #$80                        A:00 X:FF Y:00 P:26 SP:FF CYC:24033
C7AD  F0 F9     BEQ $C7A8                       A:00 X:FF Y:00 P:26 SP:FF CYC:24035
C7A8  AD 02 20  LDA $2002 = 00                  A:00 X:FF Y:00 P:26 SP:FF CYC:24038
C7AB  29 80     AND #$80                        A:00 X:FF Y:00 P:26 SP:FF CYC:24042
C7AD  F0 F9     BEQ $C7A8                       A:00 X:FF Y:00 P:26 SP:FF CYC:24044
C7A8  AD 02 20  LDA $2002 = 00                  A:00 X:FF Y:00 P:26 SP:FF CYC:24047
C7AB  29 80     AND #$80                        A:00 X:FF Y:00 P:26 SP:FF CYC:24051
C7AD  F0 F9     BEQ $C7A8                       A:00 X:FF Y:00 P:26 SP:FF CYC:24053
C7A8  AD 02 20  LDA $2002 = 00                  A:00 X:FF Y:00 P:26 SP:FF CYC:24056
C7AB  29 80     AND #$80                        A:00 X:FF Y:00 P:26 SP:FF CYC:24060
C7AD  F0 F9     BEQ $C7A8                       A:00 X:FF Y:00 P:26 SP:FF CYC:24062
C7A8  AD 02 20  LDA $2002 = 00                  A:00 X:FF Y:00 P:26 SP:FF CYC:24065
C7AB  29 80     AND #$80                        A:00 X:FF Y:00 P:26 SP:FF CYC:24069
C7AD  F0 F9     BEQ $C7A8                       A:00 X:FF Y:00 P:26 SP:FF CYC:24071
C7A8  AD 02 20  LDA $2002 = 00                  A:00 X:FF Y:00 P:26 SP:FF CYC:24074
C7AB  29 80     AND #$80                        A:00 X:FF Y:00 P:26 SP:FF CYC:24078
C7AD  F0 F9     BEQ $C7A8                       A:00 X:FF Y:00 P:26 SP:FF CYC:24080
C7A8  AD 02 20  LDA $2002 = 00                  A:00 X:FF Y:00 P:26 SP:FF CYC:24083
C7AB  29 80     AND #$80                        A:00 X:FF Y:00 P:26 SP:FF CYC:24087
C7AD  F0 F9     BEQ $C7A8                       A:00 X:FF Y:00 P:26 SP:FF CYC:24089
C7A8  AD 02 20  LDA $2002 = 00                  A:00 X:FF Y:00 P:26 SP:FF CYC:24092
C7AB  29 80     AND #$80                        A:00 X:FF Y:00 P:26 SP:FF CYC:24096
C7AD  F0 F9     BEQ $C7A8                       A:00 X:FF Y:00 P:26 SP:FF CYC:24098
C7A8  AD 02 20  LDA $2002 = 00                  A:00 X:FF Y:00 P:26 SP:FF CYC:24101
C7AB  29 80     AND #$80                        A:00 X:FF Y:00 P:26 SP:FF CYC:24105
C7AD  F0 F9     BEQ $C7A8                       A:00 X:FF Y:00 P:26 SP:FF CYC:24107
C7A8  AD 02 20  LDA $2002 = 00                  A:00 X:FF Y:00 P:26 SP:FF CYC:24110
C7AB  29 80     AND #$80                        A:00 X:FF Y:00 P:26 SP:FF CYC:24114
C7AD  F0 F9     BEQ $C7A8                       A:00 X:FF Y:00 P:26 SP:FF CYC:24116
C7A8  AD 02 20  LDA $2002 = 00                  A:00 X:FF Y:00 P:26 SP:FF CYC:24119
C7AB  29 80     AND #$80                        A:00 X:FF Y:00 P:26 SP:FF CYC:24123
C7AD  F0 F9     BEQ $C7A8                       A:00 X:FF Y:00 P:26 SP:FF CYC:24125
C7A8  AD 02 20  LDA $2002 = 00                  A:00 X:FF Y:00 P:26 SP:FF CYC:24128
C7AB  29 80     AND #$80                        A:00 X:FF Y:00 P:26 SP:FF CYC:24132
C7AD  F0 F9     BEQ $C7A8                       A:00 X:FF Y:00 P:26 SP:FF CYC:24134
C7A8  AD 02 20  LDA $2002 = 00                  A:00 X:FF Y:00 P:26 SP:FF CYC:24137
C7AB  29 80     AND #$80                        A:00 X:FF Y:00 P:26 SP:FF CYC:24141
C7AD  F0 F9     BEQ $C7A8                       A:00 X:FF Y:00 P:26 SP:FF CYC:24143
C7A8  AD 02 20  LDA $2002 = 00                  A:00 X:FF Y:00 P:26 SP:FF CYC:24146
C7AB  29 80     AND #$80                        A:00 X:FF Y:00 P:26 SP:FF CYC:24150
C7AD  F0 F9     BEQ $C7A8                       A:00 X:FF Y:00 P:26 SP:FF CYC:24152
C7A8  AD 02 20  LDA $2002 = 00                  A:00 X:FF Y:00 P:26 SP:FF CYC:24155
C7AB  29 80     AND #$80                        A:00 X:FF Y:00 P:26 SP:FF CYC:24159
C7AD  F0 F9     BEQ $C7A8                       A:00 X:FF Y:00 P:26 SP:FF CYC:24161
C7A8  AD 02 20  LDA $2002 = 00                  A:00 X:FF Y:00 P:26 SP:FF CYC:24164
C7AB  29 80     AND #$80                        A:00 X:FF Y:00 P:26 SP:FF CYC:24168
C7AD  F0 F9     BEQ $C7A8                       A:00 X:FF Y:00 P:26 SP:FF CYC:24170
C7A8  AD 02 20  LDA $2002 = 00                  A:00 X:FF Y:00 P:26 SP:FF CYC:24173
C7AB  29 80     AND #$80                        A:00 X:FF Y:00 P:26 SP:FF CYC:24177
C7AD  F0 F9     BEQ $C7A8                       A:00 X:FF Y:00 P:26 SP:FF CYC:24179
C7A8  AD 02 20  LDA $2002 = 00                  A:00 X:FF Y:00 P:26 SP:FF CYC:24182
C7AB  29 80     AND #$80                        A:00 X:FF Y:00 P:26 SP:FF CYC:24186
C7AD  F0 F9     BEQ $C7A8                       A:00 X:FF Y:00 P:26 SP:FF CYC:24188
C7A8  AD 02 20  LDA $2002 = 00                  A:00 X:FF Y:00 P:26 SP:FF CYC:24191
C7AB  29 80     AND #$80                        A:00 X:FF Y:00 P:26 SP:FF CYC:24195
C7AD  F0 F9     BEQ $C7A8                       A:00 X:FF Y:00 P:26 SP:FF CYC:24197
C7A8  AD 02 20  LDA $2002 = 00                  A:00 X:FF Y:00 P:26 SP:FF CYC:24200
C7AB  29 80     AND #$80                        A:00 X:FF Y:00 P:26 SP:FF CYC:24204
C7AD  F0 F9     BEQ $C7A8                       A:00 X:FF Y:00 P:26 SP:FF CYC:24206
C7A8  AD 02 20  LDA $2002 = 00                  A:00 X:FF Y:00 P:26 SP:FF CYC:24209
C7AB  29 80     AND #$80                        A:00 X:FF Y:00 P:26 SP:FF CYC:24213
C7AD  F0 F9     BEQ $C7A8                       A:00 X:FF Y:00 P:26 SP:FF CYC:24215
C7A8  AD 02 20  LDA $2002 = 00                  A:00 X:FF Y:00 P:26 SP:FF CYC:24218
C7AB  29 80     AND #$80                        A:00 X:FF Y:00 P:26 SP:FF CYC:24222
C7AD  F0 F9     BEQ $C7A8                       A:00 X:FF Y:00 P:26 SP:FF CYC:24224
C7A8  AD 02 20  LDA $2002 = 00                  A:00 X:FF Y:00 P:26 SP:FF CYC:24227
C7AB  29 80     AND #$80                        A:00 X:FF Y:00 P:26 SP:FF CYC:24231
C7AD  F0 F9     BEQ $C7A8                       A:00 X:FF Y:00 P:26 SP:FF CYC:24233
C7A8  AD 02 20  LDA $2002 = 00                  A:00 X:FF Y:00 P:26 SP:FF CYC:24236
C7AB  29 80     AND #$80                        A:00 X:FF Y:00 P:26 SP:FF CYC:24240
C7AD  F0 F9     BEQ $C7A8                       A:00 X:FF Y:00 P:26 SP:FF CYC:24242
C7A8  AD 02 20  LDA $2002 = 00                  A:00 X:FF Y:00 P:26 SP:FF CYC:24245
C7AB  29 80     AND #$80                        A:00 X:FF Y:00 P:26 SP:FF CYC:24249
C7AD  F0 F9     BEQ $C7A8                       A:00 X:FF Y:00 P:26 SP:FF CYC:24251
C7A8  AD 02 20  LDA $2002 = 00                  A:00 X:FF Y:00 P:26 SP:FF CYC:24254
C7AB  29 80     AND #$80                        A:00 X:FF Y:00 P:26 SP:FF CYC:24258
C7AD  F0 F9     BEQ $C7A8                       A:00 X:FF Y:00 P:26 SP:FF CYC:24260
C7A8  AD 02 20  LDA $2002 = 00                  A:00 X:FF Y:00 P:26 SP:FF CYC:24263
C7AB  29 80     AND #$80                        A:00 X:FF Y:00 P:26 SP:FF CYC:24267
C7AD  F0 F9     BEQ $C7A8                       A:00 X:FF Y:00 P:26 SP:FF CYC:24269
C7A8  AD 02 20  LDA $2002 = 00                  A:00 X:FF Y:00 P:26 SP:FF CYC:24272
C7AB  29 80     AND #$80                        A:00 X:FF Y:00 P:26 SP:FF CYC:24276
C7AD  F0 F9     BEQ $C7A8                       A:00 X:FF Y:00 P:26 SP:FF CYC:24278
C7A8  AD 02 20  LDA $2002 = 00                  A:00 X:FF Y:00 P:26 SP:FF CYC:24281
C7AB  29 80     AND #$80                        A:00 X:FF Y:00 P:26 SP:FF CYC:24285
C7AD  F0 F9     BEQ $C7A8                       A:00 X:FF Y:00 P:26 SP:FF CYC:24287
C7A8  AD 02 20  LDA $2002 = 00                  A:00 X:FF Y:00 P:26 SP:FF CYC:24290
C7AB  29 80     AND #$80                        A:00 X:FF Y:00 P:26 SP:FF CYC:24294
C7AD  F0 F9     BEQ $C7A8                       A:00 X:FF Y:00 P:26 SP:FF CYC:24296
C7A8  AD 02 20  LDA $2002 = 00                  A:00 X:FF Y:00 P:26 SP:FF CYC:24299
C7AB  29 80     AND #$80                        A:00 X:FF Y:00 P:26 SP:FF CYC:24303
C7AD  F0 F9     BEQ $C7A8                       A:00 X:FF Y:00 P:26 SP:FF CYC:24305
C7A8  AD 02 20  LDA $2002 = 00                  A:00 X:FF Y:00 P:26 SP:FF CYC:24308
C7AB  29 80     AND #$80                        A:00 X:FF Y:00 P:26 SP:FF CYC:24312
C7AD  F0 F9     BEQ $C7A8                       A:00 X:FF Y:00 P:26 SP:FF CYC:24314
C7A8  AD 02 20  LDA $2002 = 00                  A:00 X:FF Y:00 P:26 SP:FF CYC:24317
C7AB  29 80     AND #$80                        A:00 X:FF Y:00 P:26 SP:FF CYC:24321
C7AD  F0 F9     BEQ $C7A8                       A:00 X:FF Y:00 P:26 SP:FF CYC:24323
C7A8  AD 02 20  LDA $2002 = 00                  A:00 X:FF Y:00 P:26 SP:FF CYC:24326
C7AB  29 80     AND #$80                        A:00 X:FF Y:00 P:26 SP:FF CYC:24330
C7AD  F0 F9     BEQ $C7A8                       A:00 X:FF Y:00 P:26 SP:FF CYC:24332
C7A8  AD 02 20  LDA $2002 = 00                  A:00 X:FF Y:00 P:26 SP:FF CYC:24335
C7AB  29 80     AND #$80                        A:00 X:FF Y:00 P:26 SP:FF CYC:24339
C7AD  F0 F9     BEQ $C7A8                       A:00 X:FF Y:00 P:26 SP:FF CYC:24341
C7A8  AD 02 20  LDA $2002 = 00                  A:00 X:FF Y:00 P:26 SP:FF CYC:24344
C7AB  29 80     AND #$80                        A:00 X:FF Y:00 P:26 SP:FF CYC:24348
C7AD  F0 F9     BEQ $C7A8                       A:00 X:FF Y:00 P:26 SP:FF CYC:24350
C7A8  AD 02 20  LDA $2002 = 00                  A:00 X:FF Y:00 P:26 SP:FF CYC:24353
C7AB  29 80     AND #$80                        A:00 X:FF Y:00 P:26 SP:FF CYC:24357
C7AD  F0 F9     BEQ $C7A8                       A:00 X:FF Y:00 P:26 SP:FF CYC:24359
C7A8  AD 02 20  LDA $2002 = 00                  A:00 X:FF Y:00 P:26 SP:FF CYC:24362
C7AB  29 80     AND #$80                        A:00 X:FF Y:00 P:26 SP:FF CYC:24366
C7AD  F0 F9     BEQ $C7A8                       A:00 X:FF Y:00 P:26 SP:FF CYC:24368
C7A8  AD 02 20  LDA $2002 = 00                  A:00 X:FF Y:00 P:26 SP:FF CYC:24371
C7AB  29 80     AND #$80                        A:00 X:FF Y:00 P:26 SP:FF CYC:24375
C7AD  F0 F9     BEQ $C7A8                       A:00 X:FF Y:00 P:26 SP:FF CYC:24377
C7A8  AD 02 20  LDA $2002 = 00                  A:00 X:FF Y:00 P:26 SP:FF CYC:24380
C7AB  29 80     AND #$80                        A:00 X:FF Y:00 P:26 SP:FF CYC:24384
C7AD  F0 F9     BEQ $C7A8                       A:00 X:FF Y:00 P:26 SP:FF CYC:24386
C7A8  AD 02 20  LDA $2002 = 00                  A:00 X:FF Y:00 P:26 SP:FF CYC:24389
C7AB  29 80     AND #$80                        A:00 X:FF Y:00 P:26 SP:FF CYC:24393
C7AD  F0 F9     BEQ $C7A8                       A:00 X:FF Y:00 P:26 SP:FF CYC:24395
C7A8  AD 02 20  LDA $2002 = 00                  A:00 X:FF Y:00 P:26 SP:FF CYC:24398
C7AB  29 80     AND #$80                        A:00 X:FF Y:00 P:26 SP:FF CYC:24402
C7AD  F0 F9     BEQ $C7A8                       A:00 X:FF Y:00 P:26 SP:FF CYC:24404
C7A8  AD 02 20  LDA $2002 = 00                  A:00 X:FF Y:00 P:26 SP:FF CYC:24407
C7AB  29 80     AND #$80                        A:00 X:FF Y:00 P:26 SP:FF CYC:24411
C7AD  F0 F9     BEQ $C7A8                       A:00 X:FF Y:00 P:26 SP:FF CYC:24413
C7A8  AD 02 20  LDA $2002 = 00                  A:00 X:FF Y:00 P:26 SP:FF CYC:24416
C7AB  29 80     AND #$80                        A:00 X:FF Y:00 P:26 SP:FF CYC:24420
C7AD  F0 F9     BEQ $C7A8                       A:00 X:FF Y:00 P:26 SP:FF CYC:24422
C7A8  AD 02 20  LDA $2002 = 00                  A:00 X:FF Y:00 P:26 SP:FF CYC:24425
C7AB  29 80     AND #$80                        A:00 X:FF Y:00 P:26 SP:FF CYC:24429
C7AD  F0 F9     BEQ $C7A8                       A:00 X:FF Y:00 P:26 SP:FF CYC:24431
C7A8  AD 02 20  LDA $2002 = 00                  A:00 X:FF Y:00 P:26 SP:FF CYC:24434
C7AB  29 80     AND #$80                        A:00 X:FF Y:00 P:26 SP:FF CYC:24438
C7AD  F0 F9     BEQ $C7A8                       A:00 X:FF Y:00 P:26 SP:FF CYC:24440
C7A8  AD 02 20  LDA $2002 = 00                  A:00 X:FF Y:00 P:26 SP:FF CYC:24443
C7AB  29 80     AND #$80                        A:00 X:FF Y:00 P:26 SP:FF CYC:24447
C7AD  F0 F9     BEQ $C7A8                       A:00 X:FF Y:00 P:26 SP:FF CYC:24449
C7A8  AD 02 20  LDA $2002 = 00                  A:00 X:FF Y:00 P:26 SP:FF CYC:24452
C7AB  29 80     AND #$80                        A:00 X:FF Y:00 P:26 SP:FF CYC:24456
C7AD  F0 F9     BEQ $C7A8                       A:00 X:FF Y:00 P:26 SP:FF CYC:24458
C7A8  AD 02 20  LDA $2002 = 00                  A:00 X:FF Y:00 P:26 SP:FF CYC:24461
C7AB  29 80     AND #$80                        A:00 X:FF Y:00 P:26 SP:FF CYC:24465
C7AD  F0 F9     BEQ $C7A8                       A:00 X:FF Y:00 P:26 SP:FF CYC:24467
C7A8  AD 02 20  LDA $2002 = 00                  A:00 X:FF Y:00 P:26 SP:FF CYC:24470
C7AB  29 80     AND #$80                        A:00 X:FF Y:00 P:26 SP:FF CYC:24474
C7AD  F0 F9     BEQ $C7A8                       A:00 X:FF Y:00 P:26 SP:FF CYC:24476
C7A8  AD 02 20  LDA $2002 = 00                  A:00 X:FF Y:00 P:26 SP:FF CYC:24479
C7AB  29 80     AND #$80                        A:00 X:FF Y:00 P:26 SP:FF CYC:24483
C7AD  F0 F9     BEQ $C7A8                       A:00 X:FF Y:00 P:26 SP:FF CYC:24485
C7A8  AD 02 20  LDA $2002 = 00                  A:00 X:FF Y:00 P:26 SP:FF CYC:24488
C7AB  29 80     AND #$80                        A:00 X:FF Y:00 P:26 SP:FF CYC:24492
C7AD  F0 F9     BEQ $C7A8                       A:00 X:FF Y:00 P:26 SP:FF CYC:24494
C7A8  AD 02 20  LDA $2002 = 00                  A:00 X:FF Y:00 P:26 SP:FF CYC:24497
C7AB  29 80     AND #$80                        A:00 X:FF Y:00 P:26 SP:FF CYC:24501
C7AD  F0 F9     BEQ $C7A8                       A:00 X:FF Y:00 P:26 SP:FF CYC:24503
C7A8  AD 02 20  LDA $2002 = 00                  A:00 X:FF Y:00 P:26 SP:FF CYC:24506
C7AB  29 80     AND #$80                        A:00 X:FF Y:00 P:26 SP:FF CYC:24510
C7AD  F0 F9     BEQ $C7A8                       A:00 X:FF Y:00 P:26 SP:FF CYC:24512
C7A8  AD 02 20  LDA $2002 = 00                  A:00 X:FF Y:00 P:26 SP:FF CYC:24515
C7AB  29 80     AND #$80                        A:00 X:FF Y:00 P:26 SP:FF CYC:24519
C7AD  F0 F9     BEQ $C7A8                       A:00 X:FF Y:00 P:26 SP:FF CYC:24521
C7A8  AD 02 20  LDA $2002 = 00                  A:00 X:FF Y:00 P:26 SP:FF CYC:24524
C7AB  29 80     AND #$80                        A:00 X:FF Y:00 P:26 SP:FF CYC:24528
C7AD  F0 F9     BEQ $C7A8                       A:00 X:FF Y:00 P:26 SP:FF CYC:24530
C7A8  AD 02 20  LDA $2002 = 00                  A:00 X:FF Y:00 P:26 SP:FF CYC:24533
C7AB  29 80     AND #$80                        A:00 X:FF Y:00 P:26 SP:FF CYC:24537
C7AD  F0 F9     BEQ $C7A8                       A:00 X:FF Y:00 P:26 SP:FF CYC:24539
C7A8  AD 02 20  LDA $2002 = 00                  A:00 X:FF Y:00 P:26 SP:FF CYC:24542
C7AB  29 80     AND #$80                        A:00 X:FF Y:00 P:26 SP:FF CYC:24546
C7AD  F0 F9     BEQ $C7A8                       A:00 X:FF Y:00 P:26 SP:FF CYC:24548
C7A8  AD 02 20  LDA $2002 = 00                  A:00 X:FF Y:00 P:26 SP:FF CYC:24551
C7AB  29 80     AND #$80                        A:00 X:FF Y:00 P:26 SP:FF CYC:24555
C7AD  F0 F9     BEQ $C7A8                       A:00 X:FF Y:00 P:26 SP:FF CYC:24557
C7A8  AD 02 20  LDA $2002 = 00                  A:00 X:FF Y:00 P:26 SP:FF CYC:24560
C7AB  29 80     AND #$80                        A:00 X:FF Y:00 P:26 SP:FF CYC:24564
C7AD  F0 F9     BEQ $C7A8                       A:00 X:FF Y:00 P:26 SP:FF CYC:24566
C7A8  AD 02 20  LDA $2002 = 00                  A:00 X:FF Y:00 P:26 SP:FF CYC:24569
C7AB  29 80     AND #$80                        A:00 X:FF Y:00 P:26 SP:FF CYC:24573
C7AD  F0 F9     BEQ $C7A8                       A:00 X:FF Y:00 P:26 SP:FF CYC:24575
C7A8  AD 02 20  LDA $2002 = 00                  A:00 X:FF Y:00 P:26 SP:FF CYC:24578
C7AB  29 80     AND #$80                        A:00 X:FF Y:00 P:26 SP:FF CYC:24582
C7AD  F0 F9     BEQ $C7A8                       A:00 X:FF Y:00 P:26 SP:FF CYC:24584
C7A8  AD 02 20  LDA $2002 = 00                  A:00 X:FF Y:00 P:26 SP:FF CYC:24587
C7AB  29 80     AND #$80                        A:00 X:FF Y:00 P:26 SP:FF CYC:24591
C7AD  F0 F9     BEQ $C7A8                       A:00 X:FF Y:00 P:26 SP:FF CYC:24593
C7A8  AD 02 20  LDA $2002 = 00                  A:00 X:FF Y:00 P:26 SP:FF CYC:24596
C7AB  29 80     AND #$80                        A:00 X:FF Y:00 P:26 SP:FF CYC:24600
C7AD  F0 F9     BEQ $C7A8                       A:00 X:FF Y:00 P:26 SP:FF CYC:24602
C7A8  AD 02 20  LDA $2002 = 00                  A:00 X:FF Y:00 P:26 SP:FF CYC:24605
C7AB  29 80     AND #$80                        A:00 X:FF Y:00 P:26 SP:FF CYC:24609
C7AD  F0 F9     BEQ $C7A8                       A:00 X:FF Y:00 P:26 SP:FF CYC:24611
C7A8  AD 02 20  LDA $2002 = 00                  A:00 X:FF Y:00 P:26 SP:FF CYC:24614
C7AB  29 80     AND #$80                        A:00 X:FF Y:00 P:26 SP:FF CYC:24618
C7AD  F0 F9     BEQ $C7A8                       A:00 X:FF Y:00 P:26 SP:FF CYC:24620
C7A8  AD 02 20  LDA $2002 = 00                  A:00 X:FF Y:00 P:26 SP:FF CYC:24623
C7AB  29 80     AND #$80                        A:00 X:FF Y:00 P:26 SP:FF CYC:24627
C7AD  F0 F9     BEQ $C7A8                       A:00 X:FF Y:00 P:26 SP:FF CYC:24629
C7A8  AD 02 20  LDA $2002 = 00                  A:00 X:FF Y:00 P:26 SP:FF CYC:24632
C7AB  29 80     AND #$80                        A:00 X:FF Y:00 P:26 SP:FF CYC:24636
C7AD  F0 F9     BEQ $C7A8                       A:00 X:FF Y:00 P:26 SP:FF CYC:24638
C7A8  AD 02 20  LDA $2002 = 00                  A:00 X:FF Y:00 P:26 SP:FF CYC:24641
C7AB  29 80     AND #$80                        A:00 X:FF Y:00 P:26 SP:FF CYC:24645
C7AD  F0 F9     BEQ $C7A8                       A:00 X:FF Y:00 P:26 SP:FF CYC:24647
C7A8  AD 02 20  LDA $2002 = 00                  A:00 X:FF Y:00 P:26 SP:FF CYC:24650
C7AB  29 80     AND #$80                        A:00 X:FF Y:00 P:26 SP:FF CYC:24654
C7AD  F0 F9     BEQ $C7A8                       A:00 X:FF Y:00 P:26 SP:FF CYC:24656
C7A8  AD 02 20  LDA $2002 = 00                  A:00 X:FF Y:00 P:26 SP:FF CYC:24659
C7AB  29 80     AND #$80                        A:00 X:FF Y:00 P:26 SP:FF CYC:24663
C7AD  F0 F9     BEQ $C7A8                       A:00 X:FF Y:00 P:26 SP:FF CYC:24665
C7A8  AD 02 20  LDA $2002 = 00                  A:00 X:FF Y:00 P:26 SP:FF CYC:24668
C7AB  29 80     AND #$80                        A:00 X:FF Y:00 P:26 SP:FF CYC:24672
C7AD  F0 F9     BEQ $C7A8                       A:00 X:FF Y:00 P:26 SP:FF CYC:24674
C7A8  AD 02 20  LDA $2002 = 00                  A:00 X:FF Y:00 P:26 SP:FF CYC:24677
C7AB  29 80     AND #$80                        A:00 X:FF Y:00 P:26 SP:FF CYC:24681
C7AD  F0 F9     BEQ $C7A8                       A:00 X:FF Y:00 P:26 SP:FF CYC:24683
C7A8  AD 02 20  LDA $2002 = 00                  A:00 X:FF Y:00 P:26 SP:FF CYC:24686
C7AB  29 80     AND #$80                        A:00 X:FF Y:00 P:26 SP:FF CYC:24690
C7AD  F0 F9     BEQ $C7A8                       A:00 X:FF Y:00 P:26 SP:FF CYC:24692
C7A8  AD 02 20  LDA $2002 = 00                  A:00 X:FF Y:00 P:26 SP:FF CYC:24695
C7AB  29 80     AND #$80                        A:00 X:FF Y:00 P:26 SP:FF CYC:24699
C7AD  F0 F9     BEQ $C7A8                       A:00 X:FF Y:00 P:26 SP:FF CYC:24701
C7A8  AD 02 20  LDA $2002 = 00                  A:00 X:FF Y:00 P:26 SP:FF CYC:24704
C7AB  29 80     AND #$80                        A:00 X:FF Y:00 P:26 SP:FF CYC:24708
C7AD  F0 F9     BEQ $C7A8                       A:00 X:FF Y:00 P:26 SP:FF CYC:24710
C7A8  AD 02 20  LDA $2002 = 00                  A:00 X:FF Y:00 P:26 SP:FF CYC:24713
C7AB  29 80     AND #$80                        A:00 X:FF Y:00 P:26 SP:FF CYC:24717
C7AD  F0 F9     BEQ $C7A8                       A:00 X:FF Y:00 P:26 SP:FF CYC:24719
C7A8  AD 02 20  LDA $2002 = 00                  A:00 X:FF Y:00 P:26 SP:FF CYC:24722
C7AB  29 80     AND #$80                        A:00 X:FF Y:00 P:26 SP:FF CYC:24726
C7AD  F0 F9     BEQ $C7A8                       A:00 X:FF Y:00 P:26 SP:FF CYC:24728
C7A8  AD 02 20  LDA $2002 = 00                  A:00 X:FF Y:00 P:26 SP:FF CYC:24731
C7AB  29 80     AND #$80                        A:00 X:FF Y:00 P:26 SP:FF CYC:24735
C7AD  F0 F9     BEQ $C7A8                       A:00 X:FF Y:00 P:26 SP:FF CYC:24737
C7A8  AD 02 20  LDA $2002 = 00                  A:00 X:FF Y:00 P:26 SP:FF CYC:24740
C7AB  29 80     AND #$80                        A:00 X:FF Y:00 P:26 SP:FF CYC:24744
C7AD  F0 F9     BEQ $C7A8                       A:00 X:FF Y:00 P:26 SP:FF CYC:24746
C7A8  AD 02 20  LDA $2002 = 00                  A:00 X:FF Y:00 P:26 SP:FF CYC:24749
C7AB  29 80     AND #$80                        A:00 X:FF Y:00 P:26 SP:FF CYC:24753
C7AD  F0 F9     BEQ $C7A8                       A:00 X:FF Y:00 P:26 SP:FF CYC:24755
C7A8  AD 02 20  LDA $2002 = 00                  A:00 X:FF Y:00 P:26 SP:FF CYC:24758
C7AB  29 80     AND #$80                        A:00 X:FF Y:00 P:26 SP:FF CYC:24762
C7AD  F0 F9     BEQ $C7A8                       A:00 X:FF Y:00 P:26 SP:FF CYC:24764
C7A8  AD 02 20  LDA $2002 = 00                  A:00 X:FF Y:00 P:26 SP:FF CYC:24767
C7AB  29 80     AND #$80                        A:00 X:FF Y:00 P:26 SP:FF CYC:24771
C7AD  F0 F9     BEQ $C7A8                       A:00 X:FF Y:00 P:26 SP:FF CYC:24773
C7A8  AD 02 20  LDA $2002 = 00                  A:00 X:FF Y:00 P:26 SP:FF CYC:24776
C7AB  29 80     AND #$80                        A:00 X:FF Y:00 P:26 SP:FF CYC:24780
C7AD  F0 F9     BEQ $C7A8                       A:00 X:FF Y:00 P:26 SP:FF CYC:24782
C7A8  AD 02 20  LDA $2002 = 00                  A:00 X:FF Y:00 P:26 SP:FF CYC:24785
C7AB  29 80     AND #$80                        A:00 X:FF Y:00 P:26 SP:FF CYC:24789
C7AD  F0 F9     BEQ $C7A8                       A:00 X:FF Y:00 P:26 SP:FF CYC:24791
C7A8  AD 02 20  LDA $2002 = 00                  A:00 X:FF Y:00 P:26 SP:FF CYC:24794
C7AB  29 80     AND #$80                        A:00 X:FF Y:00 P:26 SP:FF CYC:24798
C7AD  F0 F9     BEQ $C7A8                       A:00 X:FF Y:00 P:26 SP:FF CYC:24800
C7A8  AD 02 20  LDA $2002 = 00                  A:00 X:FF Y:00 P:26 SP:FF CYC:24803
C7AB  29 80     AND #$80                        A:00 X:FF Y:00 P:26 SP:FF CYC:24807
C7AD  F0 F9     BEQ $C7A8                       A:00 X:FF Y:00 P:26 SP:FF CYC:24809
C7A8  AD 02 20  LDA $2002 = 00                  A:00 X:FF Y:00 P:26 SP:FF CYC:24812
C7AB  29 80     AND #$80                        A:00 X:FF Y:00 P:26 SP:FF CYC:24816
C7AD  F0 F9     BEQ $C7A8                       A:00 X:FF Y:00 P:26 SP:FF CYC:24818
C7A8  AD 02 20  LDA $2002 = 00                  A:00 X:FF Y:00 P:26 SP:FF CYC:24821
C7AB  29 80     AND #$80                        A:00 X:FF Y:00 P:26 SP:FF CYC:24825
C7AD  F0 F9     BEQ $C7A8                       A:00 X:FF Y:00 P:26 SP:FF CYC:24827
C7A8  AD 02 20  LDA $2002 = 00                  A:00 X:FF Y:00 P:26 SP:FF CYC:24830
C7AB  29 80     AND #$80                        A:00 X:FF Y:00 P:26 SP:FF CYC:24834
C7AD  F0 F9     BEQ $C7A8                       A:00 X:FF Y:00 P:26 SP:FF CYC:24836
C7A8  AD 02 20  LDA $2002 = 00                  A:00 X:FF Y:00 P:26 SP:FF CYC:24839
C7AB  29 80     AND #$80                        A:00 X:FF Y:00 P:26 SP:FF CYC:24843
C7AD  F0 F9     BEQ $C7A8                       A:00 X:FF Y:00 P:26 SP:FF CYC:24845
C7A8  AD 02 20  LDA $2002 = 00                  A:00 X:FF Y:00 P:26 SP:FF CYC:24848
C7AB  29 80     AND #$80                        A:00 X:FF Y:00 P:26 SP:FF CYC:24852
C7AD  F0 F9     BEQ $C7A8                       A:00 X:FF Y:00 P:26 SP:FF CYC:24854
C7A8  AD 02 20  LDA $2002 = 00                  A:00 X:FF Y:00 P:26 SP:FF CYC:24857
C7AB  29 80     AND #$80                        A:00 X:FF Y:00 P:26 SP:FF CYC:24861
C7AD  F0 F9     BEQ $C7A8                       A:00 X:FF Y:00 P:26 SP:FF CYC:24863
C7A8  AD 02 20  LDA $2002 = 00                  A:00 X:FF Y:00 P:26 SP:FF CYC:24866
C7AB  29 80     AND #$80                        A:00 X:FF Y:00 P:26 SP:FF CYC:24870
C7AD  F0 F9     BEQ $C7A8                       A:00 X:FF Y:00 P:26 SP:FF CYC:24872
C7A8  AD 02 20  LDA $2002 = 00                  A:00 X:FF Y:00 P:26 SP:FF CYC:24875
C7AB  29 80     AND #$80                        A:00 X:FF Y:00 P:26 SP:FF CYC:24879
C7AD  F0 F9     BEQ $C7A8                       A:00 X:FF Y:00 P:26 SP:FF CYC:24881
C7A8  AD 02 20  LDA $2002 = 00                  A:00 X:FF Y:00 P:26 SP:FF CYC:24884
C7AB  29 80     AND #$80                        A:00 X:FF Y:00 P:26 SP:FF CYC:24888
C7AD  F0 F9     BEQ $C7A8                       A:00 X:FF Y:00 P:26 SP:FF CYC:24890
C7A8  AD 02 20  LDA $2002 = 00                  A:00 X:FF Y:00 P:26 SP:FF CYC:24893
C7AB  29 80     AND #$80                        A:00 X:FF Y:00 P:26 SP:FF CYC:24897
C7AD  F0 F9     BEQ $C7A8                       A:00 X:FF Y:00 P:26 SP:FF CYC:24899
C7A8  AD 02 20  LDA $2002 = 00                  A:00 X:FF Y:00 P:26 SP:FF CYC:24902
C7AB  29 80     AND #$80                        A:00 X:FF Y:00 P:26 SP:FF CYC:24906
C7AD  F0 F9     BEQ $C7A8                       A:00 X:FF Y:00 P:26 SP:FF CYC:24908
C7A8  AD 02 20  LDA $2002 = 00                  A:00 X:FF Y:00 P:26 SP:FF CYC:24911
C7AB  29 80     AND #$80                        A:00 X:FF Y:00 P:26 SP:FF CYC:24915
C7AD  F0 F9     BEQ $C7A8                       A:00 X:FF Y:00 P:26 SP:FF CYC:24917
C7A8  AD 02 20  LDA $2002 = 00                  A:00 X:FF Y:00 P:26 SP:FF CYC:24920
C7AB  29 80     AND #$80                        A:00 X:FF Y:00 P:26 SP:FF CYC:24924
C7AD  F0 F9     BEQ $C7A8                       A:00 X:FF Y:00 P:26 SP:FF CYC:24926
C7A8  AD 02 20  LDA $2002 = 00                  A:00 X:FF Y:00 P:26 SP:FF CYC:24929
C7AB  29 80     AND #$80                        A:00 X:FF Y:00 P:26 SP:FF CYC:24933
C7AD  F0 F9     BEQ $C7A8                       A:00 X:FF Y:00 P:26 SP:FF CYC:24935
C7A8  AD 02 20  LDA $2002 = 00                  A:00 X:FF Y:00 P:26 SP:FF CYC:24938
C7AB  29 80     AND #$80                        A:00 X:FF Y:00 P:26 SP:FF CYC:24942
C7AD  F0 F9     BEQ $C7A8                       A:00 X:FF Y:00 P:26 SP:FF CYC:24944
C7A8  AD 02 20  LDA $2002 = 00                  A:00 X:FF Y:00 P:26 SP:FF CYC:24947
C7AB  29 80     AND #$80                        A:00 X:FF Y:00 P:26 SP:FF CYC:24951
C7AD  F0 F9     BEQ $C7A8                       A:00 X:FF Y:00 P:26 SP:FF CYC:24953
C7A8  AD 02 20  LDA $2002 = 00                  A:00 X:FF Y:00 P:26 SP:FF CYC:24956
C7AB  29 80     AND #$80                        A:00 X:FF Y:00 P:26 SP:FF CYC:24960
C7AD  F0 F9     BEQ $C7A8                       A:00 X:FF Y:00 P:26 SP:FF CYC:24962
C7A8  AD 02 20  LDA $2002 = 00                  A:00 X:FF Y:00 P:26 SP:FF CYC:24965
C7AB  29 80     AND #$80                        A:00 X:FF Y:00 P:26 SP:FF CYC:24969
C7AD  F0 F9     BEQ $C7A8                       A:00 X:FF Y:00 P:26 SP:FF CYC:24971
C7A8  AD 02 20  LDA $2002 = 00                  A:00 X:FF Y:00 P:26 SP:FF CYC:24974
C7AB  29 80     AND #$80                        A:00 X:FF Y:00 P:26 SP:FF CYC:24978
C7AD  F0 F9     BEQ $C7A8                       A:00 X:FF Y:00 P:26 SP:FF CYC:24980
C7A8  AD 02 20  LDA $2002 = 00                  A:00 X:FF Y:00 P:26 SP:FF CYC:24983
C7AB  29 80     AND #$80                        A:00 X:FF Y:00 P:26 SP:FF CYC:24987
C7AD  F0 F9     BEQ $C7A8                       A:00 X:FF Y:00 P:26 SP:FF CYC:24989
C7A8  AD 02 20  LDA $2002 = 00                  A:00 X:FF Y:00 P:26 SP:FF CYC:24992
C7AB  29 80     AND #$80                        A:00 X:FF Y:00 P:26 SP:FF CYC:24996
C7AD  F0 F9     BEQ $C7A8                       A:00 X:FF Y:00 P:26 SP:FF CYC:24998
C7A8  AD 02 20  LDA $2002 = 00                  A:00 X:FF Y:00 P:26 SP:FF CYC:25001
C7AB  29 80     AND #$80                        A:00 X:FF Y:00 P:26 SP:FF CYC:25005
C7AD  F0 F9     BEQ $C7A8                       A:00 X:FF Y:00 P:26 SP:FF CYC:25007
C7A8  AD 02 20  LDA $2002 = 00                  A:00 X:FF Y:00 P:26 SP:FF CYC:25010
C7AB  29 80     AND #$80                        A:00 X:FF Y:00 P:26 SP:FF CYC:25014
C7AD  F0 F9     BEQ $C7A8                       A:00 X:FF Y:00 P:26 SP:FF CYC:25016
C7A8  AD 02 20  LDA $2002 = 00                  A:00 X:FF Y:00 P:26 SP:FF CYC:25019
C7AB  29 80     AND #$80                        A:00 X:FF Y:00 P:26 SP:FF CYC:25023
C7AD  F0 F9     BEQ $C7A8                       A:00 X:FF Y:00 P:26 SP:FF CYC:25025
C7A8  AD 02 20  LDA $2002 = 00                  A:00 X:FF Y:00 P:26 SP:FF CYC:25028
C7AB  29 80     AND #$80                        A:00 X:FF Y:00 P:26 SP:FF CYC:25032
C7AD  F0 F9     BEQ $C7A8                       A:00 X:FF Y:00 P:26 SP:FF CYC:25034
C7A8  AD 02 20  LDA $2002 = 00                  A:00 X:FF Y:00 P:26 SP:FF CYC:25037
C7AB  29 80     AND #$80                        A:00 X:FF Y:00 P:26 SP:FF CYC:25041
C7AD  F0 F9     BEQ $C7A8                       A:00 X:FF Y:00 P:26 SP:FF CYC:25043
C7A8  AD 02 20  LDA $2002 = 00                  A:00 X:FF Y:00 P:26 SP:FF CYC:25046
C7AB  29 80     AND #$80                        A:00 X:FF Y:00 P:26 SP:FF CYC:25050
C7AD  F0 F9     BEQ $C7A8                       A:00 X:FF Y:00 P:26 SP:FF CYC:25052
C7A8  AD 02 20  LDA $2002 = 00                  A:00 X:FF Y:00 P:26 SP:FF CYC:25055
C7AB  29 80     AND #$80                        A:00 X:FF Y:00 P:26 SP:FF CYC:25059
C7AD  F0 F9     BEQ $C7A8                       A:00 X:FF Y:00 P:26 SP:FF CYC:25061
C7A8  AD 02 20  LDA $2002 = 00                  A:00 X:FF Y:00 P:26 SP:FF CYC:25064
C7AB  29 80     AND #$80                        A:00 X:FF Y:00 P:26 SP:FF CYC:25068
C7AD  F0 F9     BEQ $C7A8                       A:00 X:FF Y:00 P:26 SP:FF CYC:25070
C7A8  AD 02 20  LDA $2002 = 00                  A:00 X:FF Y:00 P:26 SP:FF CYC:25073
C7AB  29 80     AND #$80                        A:00 X:FF Y:00 P:26 SP:FF CYC:25077
C7AD  F0 F9     BEQ $C7A8                       A:00 X:FF Y:00 P:26 SP:FF CYC:25079
C7A8  AD 02 20  LDA $2002 = 00                  A:00 X:FF Y:00 P:26 SP:FF CYC:25082
C7AB  29 80     AND #$80                        A:00 X:FF Y:00 P:26 SP:FF CYC:25086
C7AD  F0 F9     BEQ $C7A8                       A:00 X:FF Y:00 P:26 SP:FF CYC:25088
C7A8  AD 02 20  LDA $2002 = 00                  A:00 X:FF Y:00 P:26 SP:FF CYC:25091
C7AB  29 80     AND #$80                        A:00 X:FF Y:00 P:26 SP:FF CYC:25095
C7AD  F0 F9     BEQ $C7A8                       A:00 X:FF Y:00 P:26 SP:FF CYC:25097
C7A8  AD 02 20  LDA $2002 = 00                  A:00 X:FF Y:00 P:26 SP:FF CYC:25100
C7AB  29 80     AND #$80                        A:00 X:FF Y:00 P:26 SP:FF CYC:25104
C7AD  F0 F9     BEQ $C7A8                       A:00 X:FF Y:00 P:26 SP:FF CYC:25106
C7A8  AD 02 20  LDA $2002 = 00                  A:00 X:FF Y:00 P:26 SP:FF CYC:25109
C7AB  29 80     AND #$80                        A:00 X:FF Y:00 P:26 SP:FF CYC:25113
C7AD  F0 F9     BEQ $C7A8                       A:00 X:FF Y:00 P:26 SP:FF CYC:25115
C7A8  AD 02 20  LDA $2002 = 00                  A:00 X:FF Y:00 P:26 SP:FF CYC:25118
C7AB  29 80     AND #$80                        A:00 X:FF Y:00 P:26 SP:FF CYC:25122
C7AD  F0 F9     BEQ $C7A8                       A:00 X:FF Y:00 P:26 SP:FF CYC:25124
C7A8  AD 02 20  LDA $2002 = 00                  A:00 X:FF Y:00 P:26 SP:FF CYC:25127
C7AB  29 80     AND #$80                        A:00 X:FF Y:00 P:26 SP:FF CYC:25131
C7AD  F0 F9     BEQ $C7A8                       A:00 X:FF Y:00 P:26 SP:FF CYC:25133
C7A8  AD 02 20  LDA $2002 = 00                  A:00 X:FF Y:00 P:26 SP:FF CYC:25136
C7AB  29 80     AND #$80                        A:00 X:FF Y:00 P:26 SP:FF CYC:25140
C7AD  F0 F9     BEQ $C7A8                       A:00 X:FF Y:00 P:26 SP:FF CYC:25142
C7A8  AD 02 20  LDA $2002 = 00                  A:00 X:FF Y:00 P:26 SP:FF CYC:25145
C7AB  29 80     AND #$80                        A:00 X:FF Y:00 P:26 SP:FF CYC:25149
C7AD  F0 F9     BEQ $C7A8                       A:00 X:FF Y:00 P:26 SP:FF CYC:25151
C7A8  AD 02 20  LDA $2002 = 00                  A:00 X:FF Y:00 P:26 SP:FF CYC:25154
C7AB  29 80     AND #$80                        A:00 X:FF Y:00 P:26 SP:FF CYC:25158
C7AD  F0 F9     BEQ $C7A8                       A:00 X:FF Y:00 P:26 SP:FF CYC:25160
C7A8  AD 02 20  LDA $2002 = 00                  A:00 X:FF Y:00 P:26 SP:FF CYC:25163
C7AB  29 80     AND #$80                        A:00 X:FF Y:00 P:26 SP:FF CYC:25167
C7AD  F0 F9     BEQ $C7A8                       A:00 X:FF Y:00 P:26 SP:FF CYC:25169
C7A8  AD 02 20  LDA $2002 = 00                  A:00 X:FF Y:00 P:26 SP:FF CYC:25172
C7AB  29 80     AND #$80                        A:00 X:FF Y:00 P:26 SP:FF CYC:25176
C7AD  F0 F9     BEQ $C7A8                       A:00 X:FF Y:00 P:26 SP:FF CYC:25178
C7A8  AD 02 20  LDA $2002 = 00                  A:00 X:FF Y:00 P:26 SP:FF CYC:25181
C7AB  29 80     AND #$80                        A:00 X:FF Y:00 P:26 SP:FF CYC:25185
C7AD  F0 F9     BEQ $C7A8                       A:00 X:FF Y:00 P:26 SP:FF CYC:25187
C7A8  AD 02 20  LDA $2002 = 00                  A:00 X:FF Y:00 P:26 SP:FF CYC:25190
C7AB  29 80     AND #$80                        A:00 X:FF Y:00 P:26 SP:FF CYC:25194
C7AD  F0 F9     BEQ $C7A8                       A:00 X:FF Y:00 P:26 SP:FF CYC:25196
C7A8  AD 02 20  LDA $2002 = 00                  A:00 X:FF Y:00 P:26 SP:FF CYC:25199
C7AB  29 80     AND #$80                        A:00 X:FF Y:00 P:26 SP:FF CYC:25203
C7AD  F0 F9     BEQ $C7A8                       A:00 X:FF Y:00 P:26 SP:FF CYC:25205
C7A8  AD 02 20  LDA $2002 = 00                  A:00 X:FF Y:00 P:26 SP:FF CYC:25208
C7AB  29 80     AND #$80                        A:00 X:FF Y:00 P:26 SP:FF CYC:25212
C7AD  F0 F9     BEQ $C7A8                       A:00 X:FF Y:00 P:26 SP:FF CYC:25214
C7A8  AD 02 20  LDA $2002 = 00                  A:00 X:FF Y:00 P:26 SP:FF CYC:25217
C7AB  29 80     AND #$80                        A:00 X:FF Y:00 P:26 SP:FF CYC:25221
C7AD  F0 F9     BEQ $C7A8                       A:00 X:FF Y:00 P:26 SP:FF CYC:25223
C7A8  AD 02 20  LDA $2002 = 00                  A:00 X:FF Y:00 P:26 SP:FF CYC:25226
C7AB  29 80     AND #$80                        A:00 X:FF Y:00 P:26 SP:FF CYC:25230
C7AD  F0 F9     BEQ $C7A8                       A:00 X:FF Y:00 P:26 SP:FF CYC:25232
C7A8  AD 02 20  LDA $2002 = 00                  A:00 X:FF Y:00 P:26 SP:FF CYC:25235
C7AB  29 80     AND #$80                        A:00 X:FF Y:00 P:26 SP:FF CYC:25239
C7AD  F0 F9     BEQ $C7A8                       A:00 X:FF Y:00 P:26 SP:FF CYC:25241
C7A8  AD 02 20  LDA $2002 = 00                  A:00 X:FF Y:00 P:26 SP:FF CYC:25244
C7AB  29 80     AND #$80                        A:00 X:FF Y:00 P:26 SP:FF CYC:25248
C7AD  F0 F9     BEQ $C7A8                       A:00 X:FF Y:00 P:26 SP:FF CYC:25250
C7A8  AD 02 20  LDA $2002 = 00                  A:00 X:FF Y:00 P:26 SP:FF CYC:25253
C7AB  29 80     AND #$80                        A:00 X:FF Y:00 P:26 SP:FF CYC:25257
C7AD  F0 F9     BEQ $C7A8                       A:00 X:FF Y:00 P:26 SP:FF CYC:25259
C7A8  AD 02 20  LDA $2002 = 00                  A:00 X:FF Y:00 P:26 SP:FF CYC:25262
C7AB  29 80     AND #$80                        A:00 X:FF Y:00 P:26 SP:FF CYC:25266
C7AD  F0 F9     BEQ $C7A8                       A:00 X:FF Y:00 P:26 SP:FF CYC:25268
C7A8  AD 02 20  LDA $2002 = 00                  A:00 X:FF Y:00 P:26 SP:FF CYC:25271
C7AB  29 80     AND #$80                        A:00 X:FF Y:00 P:26 SP:FF CYC:25275
C7AD  F0 F9     BEQ $C7A8                       A:00 X:FF Y:00 P:26 SP:FF CYC:25277
C7A8  AD 02 20  LDA $2002 = 00                  A:00 X:FF Y:00 P:26 SP:FF CYC:25280
C7AB  29 80     AND #$80                        A:00 X:FF Y:00 P:26 SP:FF CYC:25284
C7AD  F0 F9     BEQ $C7A8                       A:00 X:FF Y:00 P:26 SP:FF CYC:25286
C7A8  AD 02 20  LDA $2002 = 00                  A:00 X:FF Y:00 P:26 SP:FF CYC:25289
C7AB  29 80     AND #$80                        A:00 X:FF Y:00 P:26 SP:FF CYC:25293
C7AD  F0 F9     BEQ $C7A8                       A:00 X:FF Y:00 P:26 SP:FF CYC:25295
C7A8  AD 02 20  LDA $2002 = 00                  A:00 X:FF Y:00 P:26 SP:FF CYC:25298
C7AB  29 80     AND #$80                        A:00 X:FF Y:00 P:26 SP:FF CYC:25302
C7AD  F0 F9     BEQ $C7A8                       A:00 X:FF Y:00 P:26 SP:FF CYC:25304
C7A8  AD 02 20  LDA $2002 = 00                  A:00 X:FF Y:00 P:26 SP:FF CYC:25307
C7AB  29 80     AND #$80                        A:00 X:FF Y:00 P:26 SP:FF CYC:25311
C7AD  F0 F9     BEQ $C7A8                       A:00 X:FF Y:00 P:26 SP:FF CYC:25313
C7A8  AD 02 20  LDA $2002 = 00                  A:00 X:FF Y:00 P:26 SP:FF CYC:25316
C7AB  29 80     AND #$80                        A:00 X:FF Y:00 P:26 SP:FF CYC:25320
C7AD  F0 F9     BEQ $C7A8                       A:00 X:FF Y:00 P:26 SP:FF CYC:25322
C7A8  AD 02 20  LDA $2002 = 00                  A:00 X:FF Y:00 P:26 SP:FF CYC:25325
C7AB  29 80     AND #$80                        A:00 X:FF Y:00 P:26 SP:FF CYC:25329
C7AD  F0 F9     BEQ $C7A8                       A:00 X:FF Y:00 P:26 SP:FF CYC:25331
C7A8  AD 02 20  LDA $2002 = 00                  A:00 X:FF Y:00 P:26 SP:FF CYC:25334
C7AB  29 80     AND #$80                        A:00 X:FF Y:00 P:26 SP:FF CYC:25338
C7AD  F0 F9     BEQ $C7A8                       A:00 X:FF Y:00 P:26 SP:FF CYC:25340
C7A8  AD 02 20  LDA $2002 = 00                  A:00 X:FF Y:00 P:26 SP:FF CYC:25343
C7AB  29 80     AND #$80                        A:00 X:FF Y:00 P:26 SP:FF CYC:25347
C7AD  F0 F9     BEQ $C7A8                       A:00 X:FF Y:00 P:26 SP:FF CYC:25349
C7A8  AD 02 20  LDA $2002 = 00                  A:00 X:FF Y:00 P:26 SP:FF CYC:25352
C7AB  29 80     AND #$80                        A:00 X:FF Y:00 P:26 SP:FF CYC:25356
C7AD  F0 F9     BEQ $C7A8                       A:00 X:FF Y:00 P:26 SP:FF CYC:25358
C7A8  AD 02 20  LDA $2002 = 00                  A:00 X:FF Y:00 P:26 SP:FF CYC:25361
C7AB  29 80     AND #$80                        A:00 X:FF Y:00 P:26 SP:FF CYC:25365
C7AD  F0 F9     BEQ $C7A8                       A:00 X:FF Y:00 P:26 SP:FF CYC:25367
C7A8  AD 02 20  LDA $2002 = 00                  A:00 X:FF Y:00 P:26 SP:FF CYC:25370
C7AB  29 80     AND #$80                        A:00 X:FF Y:00 P:26 SP:FF CYC:25374
C7AD  F0 F9     BEQ $C7A8                       A:00 X:FF Y:00 P:26 SP:FF CYC:25376
C7A8  AD 02 20  LDA $2002 = 00                  A:00 X:FF Y:00 P:26 SP:FF CYC:25379
C7AB  29 80     AND #$80                        A:00 X:FF Y:00 P:26 SP:FF CYC:25383
C7AD  F0 F9     BEQ $C7A8                       A:00 X:FF Y:00 P:26 SP:FF CYC:25385
C7A8  AD 02 20  LDA $2002 = 00                  A:00 X:FF Y:00 P:26 SP:FF CYC:25388
C7AB  29 80     AND #$80                        A:00 X:FF Y:00 P:26 SP:FF CYC:25392
C7AD  F0 F9     BEQ $C7A8                       A:00 X:FF Y:00 P:26 SP:FF CYC:25394
C7A8  AD 02 20  LDA $2002 = 00                  A:00 X:FF Y:00 P:26 SP:FF CYC:25397
C7AB  29 80     AND #$80                        A:00 X:FF Y:00 P:26 SP:FF CYC:25401
C7AD  F0 F9     BEQ $C7A8                       A:00 X:FF Y:00 P:26 SP:FF CYC:25403
C7A8  AD 02 20  LDA $2002 = 00                  A:00 X:FF Y:00 P:26 SP:FF CYC:25406
C7AB  29 80     AND #$80                        A:00 X:FF Y:00 P:26 SP:FF CYC:25410
C7AD  F0 F9     BEQ $C7A8                       A:00 X:FF Y:00 P:26 SP:FF CYC:25412
C7A8  AD 02 20  LDA $2002 = 00                  A:00 X:FF Y:00 P:26 SP:FF CYC:25415
C7AB  29 80     AND #$80                        A:00 X:FF Y:00 P:26 SP:FF CYC:25419
C7AD  F0 F9     BEQ $C7A8                       A:00 X:FF Y:00 P:26 SP:FF CYC:25421
C7A8  AD 02 20  LDA $2002 = 00                  A:00 X:FF Y:00 P:26 SP:FF CYC:25424
C7AB  29 80     AND #$80                        A:00 X:FF Y:00 P:26 SP:FF CYC:25428
C7AD  F0 F9     BEQ $C7A8                       A:00 X:FF Y:00 P:26 SP:FF CYC:25430
C7A8  AD 02 20  LDA $2002 = 00                  A:00 X:FF Y:00 P:26 SP:FF CYC:25433
C7AB  29 80     AND #$80                        A:00 X:FF Y:00 P:26 SP:FF CYC:25437
C7AD  F0 F9     BEQ $C7A8                       A:00 X:FF Y:00 P:26 SP:FF CYC:25439
C7A8  AD 02 20  LDA $2002 = 00                  A:00 X:FF Y:00 P:26 SP:FF CYC:25442
C7AB  29 80     AND #$80                        A:00 X:FF Y:00 P:26 SP:FF CYC:25446
C7AD  F0 F9     BEQ $C7A8                       A:00 X:FF Y:00 P:26 SP:FF CYC:25448
C7A8  AD 02 20  LDA $2002 = 00                  A:00 X:FF Y:00 P:26 SP:FF CYC:25451
C7AB  29 80     AND #$80                        A:00 X:FF Y:00 P:26 SP:FF CYC:25455
C7AD  F0 F9     BEQ $C7A8                       A:00 X:FF Y:00 P:26 SP:FF CYC:25457
C7A8  AD 02 20  LDA $2002 = 00                  A:00 X:FF Y:00 P:26 SP:FF CYC:25460
C7AB  29 80     AND #$80                        A:00 X:FF Y:00 P:26 SP:FF CYC:25464
C7AD  F0 F9     BEQ $C7A8                       A:00 X:FF Y:00 P:26 SP:FF CYC:25466
C7A8  AD 02 20  LDA $2002 = 00                  A:00 X:FF Y:00 P:26 SP:FF CYC:25469
C7AB  29 80     AND #$80                        A:00 X:FF Y:00 P:26 SP:FF CYC:25473
C7AD  F0 F9     BEQ $C7A8                       A:00 X:FF Y:00 P:26 SP:FF CYC:25475
C7A8  AD 02 20  LDA $2002 = 00                  A:00 X:FF Y:00 P:26 SP:FF CYC:25478
C7AB  29 80     AND #$80                        A:00 X:FF Y:00 P:26 SP:FF CYC:25482
C7AD  F0 F9     BEQ $C7A8                       A:00 X:FF Y:00 P:26 SP:FF CYC:25484
C7A8  AD 02 20  LDA $2002 = 00                  A:00 X:FF Y:00 P:26 SP:FF CYC:25487
C7AB  29 80     AND #$80                        A:00 X:FF Y:00 P:26 SP:FF CYC:25491
C7AD  F0 F9     BEQ $C7A8                       A:00 X:FF Y:00 P:26 SP:FF CYC:25493
C7A8  AD 02 20  LDA $2002 = 00                  A:00 X:FF Y:00 P:26 SP:FF CYC:25496
C7AB  29 80     AND #$80                        A:00 X:FF Y:00 P:26 SP:FF CYC:25500
C7AD  F0 F9     BEQ $C7A8                       A:00 X:FF Y:00 P:26 SP:FF CYC:25502
C7A8  AD 02 20  LDA $2002 = 00                  A:00 X:FF Y:00 P:26 SP:FF CYC:25505
C7AB  29 80     AND #$80                        A:00 X:FF Y:00 P:26 SP:FF CYC:25509
C7AD  F0 F9     BEQ $C7A8                       A:00 X:FF Y:00 P:26 SP:FF CYC:25511
C7A8  AD 02 20  LDA $2002 = 00                  A:00 X:FF Y:00 P:26 SP:FF CYC:25514
C7AB  29 80     AND #$80                        A:00 X:FF Y:00 P:26 SP:FF CYC:25518
C7AD  F0 F9     BEQ $C7A8                       A:00 X:FF Y:00 P:26 SP:FF CYC:25520
C7A8  AD 02 20  LDA $2002 = 00                  A:00 X:FF Y:00 P:26 SP:FF CYC:25523
C7AB  29 80     AND #$80                        A:00 X:FF Y:00 P:26 SP:FF CYC:25527
C7AD  F0 F9     BEQ $C7A8                       A:00 X:FF Y:00 P:26 SP:FF CYC:25529
C7A8  AD 02 20  LDA $2002 = 00                  A:00 X:FF Y:00 P:26 SP:FF CYC:25532
C7AB  29 80     AND #$80                        A:00 X:FF Y:00 P:26 SP:FF CYC:25536
C7AD  F0 F9     BEQ $C7A8                       A:00 X:FF Y:00 P:26 SP:FF CYC:25538
C7A8  AD 02 20  LDA $2002 = 00                  A:00 X:FF Y:00 P:26 SP:FF CYC:25541
C7AB  29 80     AND #$80                        A:00 X:FF Y:00 P:26 SP:FF CYC:25545
C7AD  F0 F9     BEQ $C7A8                       A:00 X:FF Y:00 P:26 SP:FF CYC:25547
C7A8  AD 02 20  LDA $2002 = 00                  A:00 X:FF Y:00 P:26 SP:FF CYC:25550
C7AB  29 80     AND #$80                        A:00 X:FF Y:00 P:26 SP:FF CYC:25554
C7AD  F0 F9     BEQ $C7A8                       A:00 X:FF Y:00 P:26 SP:FF CYC:25556
C7A8  AD 02 20  LDA $2002 = 00                  A:00 X:FF Y:00 P:26 SP:FF CYC:25559
C7AB  29 80     AND #$80                        A:00 X:FF Y:00 P:26 SP:FF CYC:25563
C7AD  F0 F9     BEQ $C7A8                       A:00 X:FF Y:00 P:26 SP:FF CYC:25565
C7A8  AD 02 20  LDA $2002 = 00                  A:00 X:FF Y:00 P:26 SP:FF CYC:25568
C7AB  29 80     AND #$80                        A:00 X:FF Y:00 P:26 SP:FF CYC:25572
C7AD  F0 F9     BEQ $C7A8                       A:00 X:FF Y:00 P:26 SP:FF CYC:25574
C7A8  AD 02 20  LDA $2002 = 00                  A:00 X:FF Y:00 P:26 SP:FF CYC:25577
C7AB  29 80     AND #$80                        A:00 X:FF Y:00 P:26 SP:FF CYC:25581
C7AD  F0 F9     BEQ $C7A8                       A:00 X:FF Y:00 P:26 SP:FF CYC:25583
C7A8  AD 02 20  LDA $2002 = 00                  A:00 X:FF Y:00 P:26 SP:FF CYC:25586
C7AB  29 80     AND #$80                        A:00 X:FF Y:00 P:26 SP:FF CYC:25590
C7AD  F0 F9     BEQ $C7A8                       A:00 X:FF Y:00 P:26 SP:FF CYC:25592
C7A8  AD 02 20  LDA $2002 = 00                  A:00 X:FF Y:00 P:26 SP:FF CYC:25595
C7AB  29 80     AND #$80                        A:00 X:FF Y:00 P:26 SP:FF CYC:25599
C7AD  F0 F9     BEQ $C7A8                       A:00 X:FF Y:00 P:26 SP:FF CYC:25601
C7A8  AD 02 20  LDA $2002 = 00                  A:00 X:FF Y:00 P:26 SP:FF CYC:25604
C7AB  29 80     AND #$80                        A:00 X:FF Y:00 P:26 SP:FF CYC:25608
C7AD  F0 F9     BEQ $C7A8                       A:00 X:FF Y:00 P:26 SP:FF CYC:25610
C7A8  AD 02 20  LDA $2002 = 00                  A:00 X:FF Y:00 P:26 SP:FF CYC:25613
C7AB  29 80     AND #$80                        A:00 X:FF Y:00 P:26 SP:FF CYC:25617
C7AD  F0 F9     BEQ $C7A8                       A:00 X:FF Y:00 P:26 SP:FF CYC:25619
C7A8  AD 02 20  LDA $2002 = 00                  A:00 X:FF Y:00 P:26 SP:FF CYC:25622
C7AB  29 80     AND #$80                        A:00 X:FF Y:00 P:26 SP:FF CYC:25626
C7AD  F0 F9     BEQ $C7A8                       A:00 X:FF Y:00 P:26 SP:FF CYC:25628
C7A8  AD 02 20  LDA $2002 = 00                  A:00 X:FF Y:00 P:26 SP:FF CYC:25631
C7AB  29 80     AND #$80                        A:00 X:FF Y:00 P:26 SP:FF CYC:25635
C7AD  F0 F9     BEQ $C7A8                       A:00 X:FF Y:00 P:26 SP:FF CYC:25637
C7A8  AD 02 20  LDA $2002 = 00                  A:00 X:FF Y:00 P:26 SP:FF CYC:25640
C7AB  29 80     AND #$80                        A:00 X:FF Y:00 P:26 SP:FF CYC:25644
C7AD  F0 F9     BEQ $C7A8                       A:00 X:FF Y:00 P:26 SP:FF CYC:25646
C7A8  AD 02 20  LDA $2002 = 00                  A:00 X:FF Y:00 P:26 SP:FF CYC:25649
C7AB  29 80     AND #$80                        A:00 X:FF Y:00 P:26 SP:FF CYC:25653
C7AD  F0 F9     BEQ $C7A8                       A:00 X:FF Y:00 P:26 SP:FF CYC:25655
C7A8  AD 02 20  LDA $2002 = 00                  A:00 X:FF Y:00 P:26 SP:FF CYC:25658
C7AB  29 80     AND #$80                        A:00 X:FF Y:00 P:26 SP:FF CYC:25662
C7AD  F0 F9     BEQ $C7A8                       A:00 X:FF Y:00 P:26 SP:FF CYC:25664
C7A8  AD 02 20  LDA $2002 = 00                  A:00 X:FF Y:00 P:26 SP:FF CYC:25667
C7AB  29 80     AND #$80                        A:00 X:FF Y:00 P:26 SP:FF CYC:25671
C7AD  F0 F9     BEQ $C7A8                       A:00 X:FF Y:00 P:26 SP:FF CYC:25673
C7A8  AD 02 20  LDA $2002 = 00                  A:00 X:FF Y:00 P:26 SP:FF CYC:25676
C7AB  29 80     AND #$80                        A:00 X:FF Y:00 P:26 SP:FF CYC:25680
C7AD  F0 F9     BEQ $C7A8                       A:00 X:FF Y:00 P:26 SP:FF CYC:25682
C7A8  AD 02 20  LDA $2002 = 00                  A:00 X:FF Y:00 P:26 SP:FF CYC:25685
C7AB  29 80     AND #$80                        A:00 X:FF Y:00 P:26 SP:FF CYC:25689
C7AD  F0 F9     BEQ $C7A8                       A:00 X:FF Y:00 P:26 SP:FF CYC:25691
C7A8  AD 02 20  LDA $2002 = 00                  A:00 X:FF Y:00 P:26 SP:FF CYC:25694
C7AB  29 80     AND #$80                        A:00 X:FF Y:00 P:26 SP:FF CYC:25698
C7AD  F0 F9     BEQ $C7A8                       A:00 X:FF Y:00 P:26 SP:FF CYC:25700
C7A8  AD 02 20  LDA $2002 = 00                  A:00 X:FF Y:00 P:26 SP:FF CYC:25703
C7AB  29 80     AND #$80                        A:00 X:FF Y:00 P:26 SP:FF CYC:25707
C7AD  F0 F9     BEQ $C7A8                       A:00 X:FF Y:00 P:26 SP:FF CYC:25709
C7A8  AD 02 20  LDA $2002 = 00                  A:00 X:FF Y:00 P:26 SP:FF CYC:25712
C7AB  29 80     AND #$80                        A:00 X:FF Y:00 P:26 SP:FF CYC:25716
C7AD  F0 F9     BEQ $C7A8                       A:00 X:FF Y:00 P:26 SP:FF CYC:25718
C7A8  AD 02 20  LDA $2002 = 00                  A:00 X:FF Y:00 P:26 SP:FF CYC:25721
C7AB  29 80     AND #$80                        A:00 X:FF Y:00 P:26 SP:FF CYC:25725
C7AD  F0 F9     BEQ $C7A8                       A:00 X:FF Y:00 P:26 SP:FF CYC:25727
C7A8  AD 02 20  LDA $2002 = 00                  A:00 X:FF Y:00 P:26 SP:FF CYC:25730
C7AB  29 80     AND #$80                        A:00 X:FF Y:00 P:26 SP:FF CYC:25734
C7AD  F0 F9     BEQ $C7A8                       A:00 X:FF Y:00 P:26 SP:FF CYC:25736
C7A8  AD 02 20  LDA $2002 = 00                  A:00 X:FF Y:00 P:26 SP:FF CYC:25739
C7AB  29 80     AND #$80                        A:00 X:FF Y:00 P:26 SP:FF CYC:25743
C7AD  F0 F9     BEQ $C7A8                       A:00 X:FF Y:00 P:26 SP:FF CYC:25745
C7A8  AD 02 20  LDA $2002 = 00                  A:00 X:FF Y:00 P:26 SP:FF CYC:25748
C7AB  29 80     AND #$80                        A:00 X:FF Y:00 P:26 SP:FF CYC:25752
C7AD  F0 F9     BEQ $C7A8                       A:00 X:FF Y:00 P:26 SP:FF CYC:25754
C7A8  AD 02 20  LDA $2002 = 00                  A:00 X:FF Y:00 P:26 SP:FF CYC:25757
C7AB  29 80     AND #$80                        A:00 X:FF Y:00 P:26 SP:FF CYC:25761
C7AD  F0 F9     BEQ $C7A8                       A:00 X:FF Y:00 P:26 SP:FF CYC:25763
C7A8  AD 02 20  LDA $2002 = 00                  A:00 X:FF Y:00 P:26 SP:FF CYC:25766
C7AB  29 80     AND #$80                        A:00 X:FF Y:00 P:26 SP:FF CYC:25770
C7AD  F0 F9     BEQ $C7A8                       A:00 X:FF Y:00 P:26 SP:FF CYC:25772
C7A8  AD 02 20  LDA $2002 = 00                  A:00 X:FF Y:00 P:26 SP:FF CYC:25775
C7AB  29 80     AND #$80                        A:00 X:FF Y:00 P:26 SP:FF CYC:25779
C7AD  F0 F9     BEQ $C7A8                       A:00 X:FF Y:00 P:26 SP:FF CYC:25781
C7A8  AD 02 20  LDA $2002 = 00                  A:00 X:FF Y:00 P:26 SP:FF CYC:25784
C7AB  29 80     AND #$80                        A:00 X:FF Y:00 P:26 SP:FF CYC:25788
C7AD  F0 F9     BEQ $C7A8                       A:00 X:FF Y:00 P:26 SP:FF CYC:25790
C7A8  AD 02 20  LDA $2002 = 00                  A:00 X:FF Y:00 P:26 SP:FF CYC:25793
C7AB  29 80     AND #$80                        A:00 X:FF Y:00 P:26 SP:FF CYC:25797
C7AD  F0 F9     BEQ $C7A8                       A:00 X:FF Y:00 P:26 SP:FF CYC:25799
C7A8  AD 02 20  LDA $2002 = 00                  A:00 X:FF Y:00 P:26 SP:FF CYC:25802
C7AB  29 80     AND #$80                        A:00 X:FF Y:00 P:26 SP:FF CYC:25806
C7AD  F0 F9     BEQ $C7A8                       A:00 X:FF Y:00 P:26 SP:FF CYC:25808
C7A8  AD 02 20  LDA $2002 = 00                  A:00 X:FF Y:00 P:26 SP:FF CYC:25811
C7AB  29 80     AND #$80                        A:00 X:FF Y:00 P:26 SP:FF CYC:25815
C7AD  F0 F9     BEQ $C7A8                       A:00 X:FF Y:00 P:26 SP:FF CYC:25817
C7A8  AD 02 20  LDA $2002 = 00                  A:00 X:FF Y:00 P:26 SP:FF CYC:25820
C7AB  29 80     AND #$80                        A:00 X:FF Y:00 P:26 SP:FF CYC:25824
C7AD  F0 F9     BEQ $C7A8                       A:00 X:FF Y:00 P:26 SP:FF CYC:25826
C7A8  AD 02 20  LDA $2002 = 00                  A:00 X:FF Y:00 P:26 SP:FF CYC:25829
C7AB  29 80     AND #$80                        A:00 X:FF Y:00 P:26 SP:FF CYC:25833
C7AD  F0 F9     BEQ $C7A8                       A:00 X:FF Y:00 P:26 SP:FF CYC:25835
C7A8  AD 02 20  LDA $2002 = 00                  A:00 X:FF Y:00 P:26 SP:FF CYC:25838
C7AB  29 80     AND #$80                        A:00 X:FF Y:00 P:26 SP:FF CYC:25842
C7AD  F0 F9     BEQ $C7A8                       A:00 X:FF Y:00 P:26 SP:FF CYC:25844
C7A8  AD 02 20  LDA $2002 = 00                  A:00 X:FF Y:00 P:26 SP:FF CYC:25847
C7AB  29 80     AND #$80                        A:00 X:FF Y:00 P:26 SP:FF CYC:25851
C7AD  F0 F9     BEQ $C7A8                       A:00 X:FF Y:00 P:26 SP:FF CYC:25853
C7A8  AD 02 20  LDA $2002 = 00                  A:00 X:FF Y:00 P:26 SP:FF CYC:25856
C7AB  29 80     AND #$80                        A:00 X:FF Y:00 P:26 SP:FF CYC:25860
C7AD  F0 F9     BEQ $C7A8                       A:00 X:FF Y:00 P:26 SP:FF CYC:25862
C7A8  AD 02 20  LDA $2002 = 00                  A:00 X:FF Y:00 P:26 SP:FF CYC:25865
C7AB  29 80     AND #$80                        A:00 X:FF Y:00 P:26 SP:FF CYC:25869
C7AD  F0 F9     BEQ $C7A8                       A:00 X:FF Y:00 P:26 SP:FF CYC:25871
C7A8  AD 02 20  LDA $2002 = 00                  A:00 X:FF Y:00 P:26 SP:FF CYC:25874
C7AB  29 80     AND #$80                        A:00 X:FF Y:00 P:26 SP:FF CYC:25878
C7AD  F0 F9     BEQ $C7A8                       A:00 X:FF Y:00 P:26 SP:FF CYC:25880
C7A8  AD 02 20  LDA $2002 = 00                  A:00 X:FF Y:00 P:26 SP:FF CYC:25883
C7AB  29 80     AND #$80                        A:00 X:FF Y:00 P:26 SP:FF CYC:25887
C7AD  F0 F9     BEQ $C7A8                       A:00 X:FF Y:00 P:26 SP:FF CYC:25889
C7A8  AD 02 20  LDA $2002 = 00                  A:00 X:FF Y:00 P:26 SP:FF CYC:25892
C7AB  29 80     AND #$80                        A:00 X:FF Y:00 P:26 SP:FF CYC:25896
C7AD  F0 F9     BEQ $C7A8                       A:00 X:FF Y:00 P:26 SP:FF CYC:25898
C7A8  AD 02 20  LDA $2002 = 00                  A:00 X:FF Y:00 P:26 SP:FF CYC:25901
C7AB  29 80     AND #$80                        A:00 X:FF Y:00 P:26 SP:FF CYC:25905
C7AD  F0 F9     BEQ $C7A8                       A:00 X:FF Y:00 P:26 SP:FF CYC:25907
C7A8  AD 02 20  LDA $2002 = 00                  A:00 X:FF Y:00 P:26 SP:FF CYC:25910
C7AB  29 80     AND #$80                        A:00 X:FF Y:00 P:26 SP:FF CYC:25914
C7AD  F0 F9     BEQ $C7A8                       A:00 X:FF Y:00 P:26 SP:FF CYC:25916
C7A8  AD 02 20  LDA $2002 = 00                  A:00 X:FF Y:00 P:26 SP:FF CYC:25919
C7AB  29 80     AND #$80                        A:00 X:FF Y:00 P:26 SP:FF CYC:25923
C7AD  F0 F9     BEQ $C7A8                       A:00 X:FF Y:00 P:26 SP:FF CYC:25925
C7A8  AD 02 20  LDA $2002 = 00                  A:00 X:FF Y:00 P:26 SP:FF CYC:25928
C7AB  29 80     AND #$80                        A:00 X:FF Y:00 P:26 SP:FF CYC:25932
C7AD  F0 F9     BEQ $C7A8                       A:00 X:FF Y:00 P:26 SP:FF CYC:25934
C7A8  AD 02 20  LDA $2002 = 00                  A:00 X:FF Y:00 P:26 SP:FF CYC:25937
C7AB  29 80     AND #$80                        A:00 X:FF Y:00 P:26 SP:FF CYC:25941
C7AD  F0 F9     BEQ $C7A8                       A:00 X:FF Y:00 P:26 SP:FF CYC:25943
C7A8  AD 02 20  LDA $2002 = 00                  A:00 X:FF Y:00 P:26 SP:FF CYC:25946
C7AB  29 80     AND #$80                        A:00 X:FF Y:00 P:26 SP:FF CYC:25950
C7AD  F0 F9     BEQ $C7A8                       A:00 X:FF Y:00 P:26 SP:FF CYC:25952
C7A8  AD 02 20  LDA $2002 = 00                  A:00 X:FF Y:00 P:26 SP:FF CYC:25955
C7AB  29 80     AND #$80                        A:00 X:FF Y:00 P:26 SP:FF CYC:25959
C7AD  F0 F9     BEQ $C7A8                       A:00 X:FF Y:00 P:26 SP:FF CYC:25961
C7A8  AD 02 20  LDA $2002 = 00                  A:00 X:FF Y:00 P:26 SP:FF CYC:25964
C7AB  29 80     AND #$80                        A:00 X:FF Y:00 P:26 SP:FF CYC:25968
C7AD  F0 F9     BEQ $C7A8                       A:00 X:FF Y:00 P:26 SP:FF CYC:25970
C7A8  AD 02 20  LDA $2002 = 00                  A:00 X:FF Y:00 P:26 SP:FF CYC:25973
C7AB  29 80     AND #$80                        A:00 X:FF Y:00 P:26 SP:FF CYC:25977
C7AD  F0 F9     BEQ $C7A8                       A:00 X:FF Y:00 P:26 SP:FF CYC:25979
C7A8  AD 02 20  LDA $2002 = 00                  A:00 X:FF Y:00 P:26 SP:FF CYC:25982
C7AB  29 80     AND #$80                        A:00 X:FF Y:00 P:26 SP:FF CYC:25986
C7AD  F0 F9     BEQ $C7A8                       A:00 X:FF Y:00 P:26 SP:FF CYC:25988
C7A8  AD 02 20  LDA $2002 = 00                  A:00 X:FF Y:00 P:26 SP:FF CYC:25991
C7AB  29 80     AND #$80                        A:00 X:FF Y:00 P:26 SP:FF CYC:25995
C7AD  F0 F9     BEQ $C7A8                       A:00 X:FF Y:00 P:26 SP:FF CYC:25997
C7A8  AD 02 20  LDA $2002 = 00                  A:00 X:FF Y:00 P:26 SP:FF CYC:26000
C7AB  29 80     AND #$80                        A:00 X:FF Y:00 P:26 SP:FF CYC:26004
C7AD  F0 F9     BEQ $C7A8                       A:00 X:FF Y:00 P:26 SP:FF CYC:26006
C7A8  AD 02 20  LDA $2002 = 00                  A:00 X:FF Y:00 P:26 SP:FF CYC:26009
C7AB  29 80     AND #$80                        A:00 X:FF Y:00 P:26 SP:FF CYC:26013
C7AD  F0 F9     BEQ $C7A8                       A:00 X:FF Y:00 P:26 SP:FF CYC:26015
C7A8  AD 02 20  LDA $2002 = 00                  A:00 X:FF Y:00 P:26 SP:FF CYC:26018
C7AB  29 80     AND #$80                        A:00 X:FF Y:00 P:26 SP:FF CYC:26022
C7AD  F0 F9     BEQ $C7A8                       A:00 X:FF Y:00 P:26 SP:FF CYC:26024
C7A8  AD 02 20  LDA $2002 = 00                  A:00 X:FF Y:00 P:26 SP:FF CYC:26027
C7AB  29 80     AND #$80                        A:00 X:FF Y:00 P:26 SP:FF CYC:26031
C7AD  F0 F9     BEQ $C7A8                       A:00 X:FF Y:00 P:26 SP:FF CYC:26033
C7A8  AD 02 20  LDA $2002 = 00                  A:00 X:FF Y:00 P:26 SP:FF CYC:26036
C7AB  29 80     AND #$80                        A:00 X:FF Y:00 P:26 SP:FF CYC:26040
C7AD  F0 F9     BEQ $C7A8                       A:00 X:FF Y:00 P:26 SP:FF CYC:26042
C7A8  AD 02 20  LDA $2002 = 00                  A:00 X:FF Y:00 P:26 SP:FF CYC:26045
C7AB  29 80     AND #$80                        A:00 X:FF Y:00 P:26 SP:FF CYC:26049
C7AD  F0 F9     BEQ $C7A8                       A:00 X:FF Y:00 P:26 SP:FF CYC:26051
C7A8  AD 02 20  LDA $2002 = 00                  A:00 X:FF Y:00 P:26 SP:FF CYC:26054
C7AB  29 80     AND #$80                        A:00 X:FF Y:00 P:26 SP:FF CYC:26058
C7AD  F0 F9     BEQ $C7A8                       A:00 X:FF Y:00 P:26 SP:FF CYC:26060
C7A8  AD 02 20  LDA $2002 = 00                  A:00 X:FF Y:00 P:26 SP:FF CYC:26063
C7AB  29 80     AND #$80                        A:00 X:FF Y:00 P:26 SP:FF CYC:26067
C7AD  F0 F9     BEQ $C7A8                       A:00 X:FF Y:00 P:26 SP:FF CYC:26069
C7A8  AD 02 20  LDA $2002 = 00                  A:00 X:FF Y:00 P:26 SP:FF CYC:26072
C7AB  29 80     AND #$80                        A:00 X:FF Y:00 P:26 SP:FF CYC:26076
C7AD  F0 F9     BEQ $C7A8                       A:00 X:FF Y:00 P:26 SP:FF CYC:26078
C7A8  AD 02 20  LDA $2002 = 00                  A:00 X:FF Y:00 P:26 SP:FF CYC:26081
C7AB  29 80     AND #$80                        A:00 X:FF Y:00 P:26 SP:FF CYC:26085
C7AD  F0 F9     BEQ $C7A8                       A:00 X:FF Y:00 P:26 SP:FF CYC:26087
C7A8  AD 02 20  LDA $2002 = 00                  A:00 X:FF Y:00 P:26 SP:FF CYC:26090
C7AB  29 80     AND #$80                        A:00 X:FF Y:00 P:26 SP:FF CYC:26094
C7AD  F0 F9     BEQ $C7A8                       A:00 X:FF Y:00 P:26 SP:FF CYC:26096
C7A8  AD 02 20  LDA $2002 = 00                  A:00 X:FF Y:00 P:26 SP:FF CYC:26099
C7AB  29 80     AND #$80                        A:00 X:FF Y:00 P:26 SP:FF CYC:26103
C7AD  F0 F9     BEQ $C7A8                       A:00 X:FF Y:00 P:26 SP:FF CYC:26105
C7A8  AD 02 20  LDA $2002 = 00                  A:00 X:FF Y:00 P:26 SP:FF CYC:26108
C7AB  29 80     AND #$80                        A:00 X:FF Y:00 P:26 SP:FF CYC:26112
C7AD  F0 F9     BEQ $C7A8                       A:00 X:FF Y:00 P:26 SP:FF CYC:26114
C7A8  AD 02 20  LDA $2002 = 00                  A:00 X:FF Y:00 P:26 SP:FF CYC:26117
C7AB  29 80     AND #$80                        A:00 X:FF Y:00 P:26 SP:FF CYC:26121
C7AD  F0 F9     BEQ $C7A8                       A:00 X:FF Y:00 P:26 SP:FF CYC:26123
C7A8  AD 02 20  LDA $2002 = 00                  A:00 X:FF Y:00 P:26 SP:FF CYC:26126
C7AB  29 80     AND #$80                        A:00 X:FF Y:00 P:26 SP:FF CYC:26130
C7AD  F0 F9     BEQ $C7A8                       A:00 X:FF Y:00 P:26 SP:FF CYC:26132
C7A8  AD 02 20  LDA $2002 = 00                  A:00 X:FF Y:00 P:26 SP:FF CYC:26135
C7AB  29 80     AND #$80                        A:00 X:FF Y:00 P:26 SP:FF CYC:26139
C7AD  F0 F9     BEQ $C7A8                       A:00 X:FF Y:00 P:26 SP:FF CYC:26141
C7A8  AD 02 20  LDA $2002 = 00                  A:00 X:FF Y:00 P:26 SP:FF CYC:26144
C7AB  29 80     AND #$80                        A:00 X:FF Y:00 P:26 SP:FF CYC:26148
C7AD  F0 F9     BEQ $C7A8                       A:00 X:FF Y:00 P:26 SP:FF CYC:26150
C7A8  AD 02 20  LDA $2002 = 00                  A:00 X:FF Y:00 P:26 SP:FF CYC:26153
C7AB  29 80     AND #$80                        A:00 X:FF Y:00 P:26 SP:FF CYC:26157
C7AD  F0 F9     BEQ $C7A8                       A:00 X:FF Y:00 P:26 SP:FF CYC:26159
C7A8  AD 02 20  LDA $2002 = 00                  A:00 X:FF Y:00 P:26 SP:FF CYC:26162
C7AB  29 80     AND #$80                        A:00 X:FF Y:00 P:26 SP:FF CYC:26166
C7AD  F0 F9     BEQ $C7A8                       A:00 X:FF Y:00 P:26 SP:FF CYC:26168
C7A8  AD 02 20  LDA $2002 = 00                  A:00 X:FF Y:00 P:26 SP:FF CYC:26171
C7AB  29 80     AND #$80                        A:00 X:FF Y:00 P:26 SP:FF CYC:26175
C7AD  F0 F9     BEQ $C7A8                       A:00 X:FF Y:00 P:26 SP:FF CYC:26177
C7A8  AD 02 20  LDA $2002 = 00                  A:00 X:FF Y:00 P:26 SP:FF CYC:26180
C7AB  29 80     AND #$80                        A:00 X:FF Y:00 P:26 SP:FF CYC:26184
C7AD  F0 F9     BEQ $C7A8                       A:00 X:FF Y:00 P:26 SP:FF CYC:26186
C7A8  AD 02 20  LDA $2002 = 00                  A:00 X:FF Y:00 P:26 SP:FF CYC:26189
C7AB  29 80     AND #$80                        A:00 X:FF Y:00 P:26 SP:FF CYC:26193
C7AD  F0 F9     BEQ $C7A8                       A:00 X:FF Y:00 P:26 SP:FF CYC:26195
C7A8  AD 02 20  LDA $2002 = 00                  A:00 X:FF Y:00 P:26 SP:FF CYC:26198
C7AB  29 80     AND #$80                        A:00 X:FF Y:00 P:26 SP:FF CYC:26202
C7AD  F0 F9     BEQ $C7A8                       A:00 X:FF Y:00 P:26 SP:FF CYC:26204
C7A8  AD 02 20  LDA $2002 = 00                  A:00 X:FF Y:00 P:26 SP:FF CYC:26207
C7AB  29 80     AND #$80                        A:00 X:FF Y:00 P:26 SP:FF CYC:26211
C7AD  F0 F9     BEQ $C7A8                       A:00 X:FF Y:00 P:26 SP:FF CYC:26213
C7A8  AD 02 20  LDA $2002 = 00                  A:00 X:FF Y:00 P:26 SP:FF CYC:26216
C7AB  29 80     AND #$80                        A:00 X:FF Y:00 P:26 SP:FF CYC:26220
C7AD  F0 F9     BEQ $C7A8                       A:00 X:FF Y:00 P:26 SP:FF CYC:26222
C7A8  AD 02 20  LDA $2002 = 00                  A:00 X:FF Y:00 P:26 SP:FF CYC:26225
C7AB  29 80     AND #$80                        A:00 X:FF Y:00 P:26 SP:FF CYC:26229
C7AD  F0 F9     BEQ $C7A8                       A:00 X:FF Y:00 P:26 SP:FF CYC:26231
C7A8  AD 02 20  LDA $2002 = 00                  A:00 X:FF Y:00 P:26 SP:FF CYC:26234
C7AB  29 80     AND #$80                        A:00 X:FF Y:00 P:26 SP:FF CYC:26238
C7AD  F0 F9     BEQ $C7A8                       A:00 X:FF Y:00 P:26 SP:FF CYC:26240
C7A8  AD 02 20  LDA $2002 = 00                  A:00 X:FF Y:00 P:26 SP:FF CYC:26243
C7AB  29 80     AND #$80                        A:00 X:FF Y:00 P:26 SP:FF CYC:26247
C7AD  F0 F9     BEQ $C7A8                       A:00 X:FF Y:00 P:26 SP:FF CYC:26249
C7A8  AD 02 20  LDA $2002 = 00                  A:00 X:FF Y:00 P:26 SP:FF CYC:26252
C7AB  29 80     AND #$80                        A:00 X:FF Y:00 P:26 SP:FF CYC:26256
C7AD  F0 F9     BEQ $C7A8                       A:00 X:FF Y:00 P:26 SP:FF CYC:26258
C7A8  AD 02 20  LDA $2002 = 00                  A:00 X:FF Y:00 P:26 SP:FF CYC:26261
C7AB  29 80     AND #$80                        A:00 X:FF Y:00 P:26 SP:FF CYC:26265
C7AD  F0 F9     BEQ $C7A8                       A:00 X:FF Y:00 P:26 SP:FF CYC:26267
C7A8  AD 02 20  LDA $2002 = 00                  A:00 X:FF Y:00 P:26 SP:FF CYC:26270
C7AB  29 80     AND #$80                        A:00 X:FF Y:00 P:26 SP:FF CYC:26274
C7AD  F0 F9     BEQ $C7A8                       A:00 X:FF Y:00 P:26 SP:FF CYC:26276
C7A8  AD 02 20  LDA $2002 = 00                  A:00 X:FF Y:00 P:26 SP:FF CYC:26279
C7AB  29 80     AND #$80                        A:00 X:FF Y:00 P:26 SP:FF CYC:26283
C7AD  F0 F9     BEQ $C7A8                       A:00 X:FF Y:00 P:26 SP:FF CYC:26285
C7A8  AD 02 20  LDA $2002 = 00                  A:00 X:FF Y:00 P:26 SP:FF CYC:26288
C7AB  29 80     AND #$80                        A:00 X:FF Y:00 P:26 SP:FF CYC:26292
C7AD  F0 F9     BEQ $C7A8                       A:00 X:FF Y:00 P:26 SP:FF CYC:26294
C7A8  AD 02 20  LDA $2002 = 00                  A:00 X:FF Y:00 P:26 SP:FF CYC:26297
C7AB  29 80     AND #$80                        A:00 X:FF Y:00 P:26 SP:FF CYC:26301
C7AD  F0 F9     BEQ $C7A8                       A:00 X:FF Y:00 P:26 SP:FF CYC:26303
C7A8  AD 02 20  LDA $2002 = 00                  A:00 X:FF Y:00 P:26 SP:FF CYC:26306
C7AB  29 80     AND #$80                        A:00 X:FF Y:00 P:26 SP:FF CYC:26310
C7AD  F0 F9     BEQ $C7A8                       A:00 X:FF Y:00 P:26 SP:FF CYC:26312
C7A8  AD 02 20  LDA $2002 = 00                  A:00 X:FF Y:00 P:26 SP:FF CYC:26315
C7AB  29 80     AND #$80                        A:00 X:FF Y:00 P:26 SP:FF CYC:26319
C7AD  F0 F9     BEQ $C7A8                       A:00 X:FF Y:00 P:26 SP:FF CYC:26321
C7A8  AD 02 20  LDA $2002 = 00                  A:00 X:FF Y:00 P:26 SP:FF CYC:26324
C7AB  29 80     AND #$80                        A:00 X:FF Y:00 P:26 SP:FF CYC:26328
C7AD  F0 F9     BEQ $C7A8                       A:00 X:FF Y:00 P:26 SP:FF CYC:26330
C7A8  AD 02 20  LDA $2002 = 00                  A:00 X:FF Y:00 P:26 SP:FF CYC:26333
C7AB  29 80     AND #$80                        A:00 X:FF Y:00 P:26 SP:FF CYC:26337
C7AD  F0 F9     BEQ $C7A8                       A:00 X:FF Y:00 P:26 SP:FF CYC:26339
C7A8  AD 02 20  LDA $2002 = 00                  A:00 X:FF Y:00 P:26 SP:FF CYC:26342
C7AB  29 80     AND #$80                        A:00 X:FF Y:00 P:26 SP:FF CYC:26346
C7AD  F0 F9     BEQ $C7A8                       A:00 X:FF Y:00 P:26 SP:FF CYC:26348
C7A8  AD 02 20  LDA $2002 = 00                  A:00 X:FF Y:00 P:26 SP:FF CYC:26351
C7AB  29 80     AND #$80                        A:00 X:FF Y:00 P:26 SP:FF CYC:26355
C7AD  F0 F9     BEQ $C7A8                       A:00 X:FF Y:00 P:26 SP:FF CYC:26357
C7A8  AD 02 20  LDA $2002 = 00                  A:00 X:FF Y:00 P:26 SP:FF CYC:26360
C7AB  29 80     AND #$80                        A:00 X:FF Y:00 P:26 SP:FF CYC:26364
C7AD  F0 F9     BEQ $C7A8                       A:00 X:FF Y:00 P:26 SP:FF CYC:26366
C7A8  AD 02 20  LDA $2002 = 00                  A:00 X:FF Y:00 P:26 SP:FF CYC:26369
C7AB  29 80     AND #$80                        A:00 X:FF Y:00 P:26 SP:FF CYC:26373
C7AD  F0 F9     BEQ $C7A8                       A:00 X:FF Y:00 P:26 SP:FF CYC:26375
C7A8  AD 02 20  LDA $2002 = 00                  A:00 X:FF Y:00 P:26 SP:FF CYC:26378
C7AB  29 80     AND #$80                        A:00 X:FF Y:00 P:26 SP:FF CYC:26382
C7AD  F0 F9     BEQ $C7A8                       A:00 X:FF Y:00 P:26 SP:FF CYC:26384
C7A8  AD 02 20  LDA $2002 = 00                  A:00 X:FF Y:00 P:26 SP:FF CYC:26387
C7AB  29 80     AND #$80                        A:00 X:FF Y:00 P:26 SP:FF CYC:26391
C7AD  F0 F9     BEQ $C7A8                       A:00 X:FF Y:00 P:26 SP:FF CYC:26393
C7A8  AD 02 20  LDA $2002 = 00                  A:00 X:FF Y:00 P:26 SP:FF CYC:26396
C7AB  29 80     AND #$80                        A:00 X:FF Y:00 P:26 SP:FF CYC:26400
C7AD  F0 F9     BEQ $C7A8                       A:00 X:FF Y:00 P:26 SP:FF CYC:26402
C7A8  AD 02 20  LDA $2002 = 00                  A:00 X:FF Y:00 P:26 SP:FF CYC:26405
C7AB  29 80     AND #$80                        A:00 X:FF Y:00 P:26 SP:FF CYC:26409
C7AD  F0 F9     BEQ $C7A8                       A:00 X:FF Y:00 P:26 SP:FF CYC:26411
C7A8  AD 02 20  LDA $2002 = 00                  A:00 X:FF Y:00 P:26 SP:FF CYC:26414
C7AB  29 80     AND #$80                        A:00 X:FF Y:00 P:26 SP:FF CYC:26418
C7AD  F0 F9     BEQ $C7A8                       A:00 X:FF Y:00 P:26 SP:FF CYC:26420
C7A8  AD 02 20  LDA $2002 = 00                  A:00 X:FF Y:00 P:26 SP:FF CYC:26423
C7AB  29 80     AND #$80                        A:00 X:FF Y:00 P:26 SP:FF CYC:26427
C7AD  F0 F9     BEQ $C7A8                       A:00 X:FF Y:00 P:26 SP:FF CYC:26429
C7A8  AD 02 20  LDA $2002 = 00                  A:00 X:FF Y:00 P:26 SP:FF CYC:26432
C7AB  29 80     AND #$80                        A:00 X:FF Y:00 P:26 SP:FF CYC:26436
C7AD  F0 F9     BEQ $C7A8                       A:00 X:FF Y:00 P:26 SP:FF CYC:26438
C7A8  AD 02 20  LDA $2002 = 00                  A:00 X:FF Y:00 P:26 SP:FF CYC:26441
C7AB  29 80     AND #$80                        A:00 X:FF Y:00 P:26 SP:FF CYC:26445
C7AD  F0 F9     BEQ $C7A8                       A:00 X:FF Y:00 P:26 SP:FF CYC:26447
C7A8  AD 02 20  LDA $2002 = 00                  A:00 X:FF Y:00 P:26 SP:FF CYC:26450
C7AB  29 80     AND #$80                        A:00 X:FF Y:00 P:26 SP:FF CYC:26454
C7AD  F0 F9     BEQ $C7A8                       A:00 X:FF Y:00 P:26 SP:FF CYC:26456
C7A8  AD 02 20  LDA $2002 = 00                  A:00 X:FF Y:00 P:26 SP:FF CYC:26459
C7AB  29 80     AND #$80                        A:00 X:FF Y:00 P:26 SP:FF CYC:26463
C7AD  F0 F9     BEQ $C7A8                       A:00 X:FF Y:00 P:26 SP:FF CYC:26465
C7A8  AD 02 20  LDA $2002 = 00                  A:00 X:FF Y:00 P:26 SP:FF CYC:26468
C7AB  29 80     AND #$80                        A:00 X:FF Y:00 P:26 SP:FF CYC:26472
C7AD  F0 F9     BEQ $C7A8                       A:00 X:FF Y:00 P:26 SP:FF CYC:26474
C7A8  AD 02 20  LDA $2002 = 00                  A:00 X:FF Y:00 P:26 SP:FF CYC:26477
C7AB  29 80     AND #$80                        A:00 X:FF Y:00 P:26 SP:FF CYC:26481
C7AD  F0 F9     BEQ $C7A8                       A:00 X:FF Y:00 P:26 SP:FF CYC:26483
C7A8  AD 02 20  LDA $2002 = 00                  A:00 X:FF Y:00 P:26 SP:FF CYC:26486
C7AB  29 80     AND #$80                        A:00 X:FF Y:00 P:26 SP:FF CYC:26490
C7AD  F0 F9     BEQ $C7A8                       A:00 X:FF Y:00 P:26 SP:FF CYC:26492
C7A8  AD 02 20  LDA $2002 = 00                  A:00 X:FF Y:00 P:26 SP:FF CYC:26495
C7AB  29 80     AND #$80                        A:00 X:FF Y:00 P:26 SP:FF CYC:26499
C7AD  F0 F9     BEQ $C7A8                       A:00 X:FF Y:00 P:26 SP:FF CYC:26501
C7A8  AD 02 20  LDA $2002 = 00                  A:00 X:FF Y:00 P:26 SP:FF CYC:26504
C7AB  29 80     AND #$80                        A:00 X:FF Y:00 P:26 SP:FF CYC:26508
C7AD  F0 F9     BEQ $C7A8                       A:00 X:FF Y:00 P:26 SP:FF CYC:26510
C7A8  AD 02 20  LDA $2002 = 00                  A:00 X:FF Y:00 P:26 SP:FF CYC:26513
C7AB  29 80     AND #$80                        A:00 X:FF Y:00 P:26 SP:FF CYC:26517
C7AD  F0 F9     BEQ $C7A8                       A:00 X:FF Y:00 P:26 SP:FF CYC:26519
C7A8  AD 02 20  LDA $2002 = 00                  A:00 X:FF Y:00 P:26 SP:FF CYC:26522
C7AB  29 80     AND #$80                        A:00 X:FF Y:00 P:26 SP:FF CYC:26526
C7AD  F0 F9     BEQ $C7A8                       A:00 X:FF Y:00 P:26 SP:FF CYC:26528
C7A8  AD 02 20  LDA $2002 = 00                  A:00 X:FF Y:00 P:26 SP:FF CYC:26531
C7AB  29 80     AND #$80                        A:00 X:FF Y:00 P:26 SP:FF CYC:26535
C7AD  F0 F9     BEQ $C7A8                       A:00 X:FF Y:00 P:26 SP:FF CYC:26537
C7A8  AD 02 20  LDA $2002 = 00                  A:00 X:FF Y:00 P:26 SP:FF CYC:26540
C7AB  29 80     AND #$80                        A:00 X:FF Y:00 P:26 SP:FF CYC:26544
C7AD  F0 F9     BEQ $C7A8                       A:00 X:FF Y:00 P:26 SP:FF CYC:26546
C7A8  AD 02 20  LDA $2002 = 00                  A:00 X:FF Y:00 P:26 SP:FF CYC:26549
C7AB  29 80     AND #$80                        A:00 X:FF Y:00 P:26 SP:FF CYC:26553
C7AD  F0 F9     BEQ $C7A8                       A:00 X:FF Y:00 P:26 SP:FF CYC:26555
C7A8  AD 02 20  LDA $2002 = 00                  A:00 X:FF Y:00 P:26 SP:FF CYC:26558
C7AB  29 80     AND #$80                        A:00 X:FF Y:00 P:26 SP:FF CYC:26562
C7AD  F0 F9     BEQ $C7A8                       A:00 X:FF Y:00 P:26 SP:FF CYC:26564
C7A8  AD 02 20  LDA $2002 = 00                  A:00 X:FF Y:00 P:26 SP:FF CYC:26567
C7AB  29 80     AND #$80                        A:00 X:FF Y:00 P:26 SP:FF CYC:26571
C7AD  F0 F9     BEQ $C7A8                       A:00 X:FF Y:00 P:26 SP:FF CYC:26573
C7A8  AD 02 20  LDA $2002 = 00                  A:00 X:FF Y:00 P:26 SP:FF CYC:26576
C7AB  29 80     AND #$80                        A:00 X:FF Y:00 P:26 SP:FF CYC:26580
C7AD  F0 F9     BEQ $C7A8                       A:00 X:FF Y:00 P:26 SP:FF CYC:26582
C7A8  AD 02 20  LDA $2002 = 00                  A:00 X:FF Y:00 P:26 SP:FF CYC:26585
C7AB  29 80     AND #$80                        A:00 X:FF Y:00 P:26 SP:FF CYC:26589
C7AD  F0 F9     BEQ $C7A8                       A:00 X:FF Y:00 P:26 SP:FF CYC:26591
C7A8  AD 02 20  LDA $2002 = 00                  A:00 X:FF Y:00 P:26 SP:FF CYC:26594
C7AB  29 80     AND #$80                        A:00 X:FF Y:00 P:26 SP:FF CYC:26598
C7AD  F0 F9     BEQ $C7A8                       A:00 X:FF Y:00 P:26 SP:FF CYC:26600
C7A8  AD 02 20  LDA $2002 = 00                  A:00 X:FF Y:00 P:26 SP:FF CYC:26603
C7AB  29 80     AND #$80                        A:00 X:FF Y:00 P:26 SP:FF CYC:26607
C7AD  F0 F9     BEQ $C7A8                       A:00 X:FF Y:00 P:26 SP:FF CYC:26609
C7A8  AD 02 20  LDA $2002 = 00                  A:00 X:FF Y:00 P:26 SP:FF CYC:26612
C7AB  29 80     AND #$80                        A:00 X:FF Y:00 P:26 SP:FF CYC:26616
C7AD  F0 F9     BEQ $C7A8                       A:00 X:FF Y:00 P:26 SP:FF CYC:26618
C7A8  AD 02 20  LDA $2002 = 00                  A:00 X:FF Y:00 P:26 SP:FF CYC:26621
C7AB  29 80     AND #$80                        A:00 X:FF Y:00 P:26 SP:FF CYC:26625
C7AD  F0 F9     BEQ $C7A8                       A:00 X:FF Y:00 P:26 SP:FF CYC:26627
C7A8  AD 02 20  LDA $2002 = 00                  A:00 X:FF Y:00 P:26 SP:FF CYC:26630
C7AB  29 80     AND #$80                        A:00 X:FF Y:00 P:26 SP:FF CYC:26634
C7AD  F0 F9     BEQ $C7A8                       A:00 X:FF Y:00 P:26 SP:FF CYC:26636
C7A8  AD 02 20  LDA $2002 = 00                  A:00 X:FF Y:00 P:26 SP:FF CYC:26639
C7AB  29 80     AND #$80                        A:00 X:FF Y:00 P:26 SP:FF CYC:26643
C7AD  F0 F9     BEQ $C7A8                       A:00 X:FF Y:00 P:26 SP:FF CYC:26645
C7A8  AD 02 20  LDA $2002 = 00                  A:00 X:FF Y:00 P:26 SP:FF CYC:26648
C7AB  29 80     AND #$80                        A:00 X:FF Y:00 P:26 SP:FF CYC:26652
C7AD  F0 F9     BEQ $C7A8                       A:00 X:FF Y:00 P:26 SP:FF CYC:26654
C7A8  AD 02 20  LDA $2002 = 00                  A:00 X:FF Y:00 P:26 SP:FF CYC:26657
C7AB  29 80     AND #$80                        A:00 X:FF Y:00 P:26 SP:FF CYC:26661
C7AD  F0 F9     BEQ $C7A8                       A:00 X:FF Y:00 P:26 SP:FF CYC:26663
C7A8  AD 02 20  LDA $2002 = 00                  A:00 X:FF Y:00 P:26 SP:FF CYC:26666
C7AB  29 80     AND #$80                        A:00 X:FF Y:00 P:26 SP:FF CYC:26670
C7AD  F0 F9     BEQ $C7A8                       A:00 X:FF Y:00 P:26 SP:FF CYC:26672
C7A8  AD 02 20  LDA $2002 = 00                  A:00 X:FF Y:00 P:26 SP:FF CYC:26675
C7AB  29 80     AND #$80                        A:00 X:FF Y:00 P:26 SP:FF CYC:26679
C7AD  F0 F9     BEQ $C7A8                       A:00 X:FF Y:00 P:26 SP:FF CYC:26681
C7A8  AD 02 20  LDA $2002 = 00                  A:00 X:FF Y:00 P:26 SP:FF CYC:26684
C7AB  29 80     AND #$80                        A:00 X:FF Y:00 P:26 SP:FF CYC:26688
C7AD  F0 F9     BEQ $C7A8                       A:00 X:FF Y:00 P:26 SP:FF CYC:26690
C7A8  AD 02 20  LDA $2002 = 00                  A:00 X:FF Y:00 P:26 SP:FF CYC:26693
C7AB  29 80     AND #$80                        A:00 X:FF Y:00 P:26 SP:FF CYC:26697
C7AD  F0 F9     BEQ $C7A8                       A:00 X:FF Y:00 P:26 SP:FF CYC:26699
C7A8  AD 02 20  LDA $2002 = 00                  A:00 X:FF Y:00 P:26 SP:FF CYC:26702
C7AB  29 80     AND #$80                        A:00 X:FF Y:00 P:26 SP:FF CYC:26706
C7AD  F0 F9     BEQ $C7A8                       A:00 X:FF Y:00 P:26 SP:FF CYC:26708
C7A8  AD 02 20  LDA $2002 = 00                  A:00 X:FF Y:00 P:26 SP:FF CYC:26711
C7AB  29 80     AND #$80                        A:00 X:FF Y:00 P:26 SP:FF CYC:26715
C7AD  F0 F9     BEQ $C7A8                       A:00 X:FF Y:00 P:26 SP:FF CYC:26717
C7A8  AD 02 20  LDA $2002 = 00                  A:00 X:FF Y:00 P:26 SP:FF CYC:26720
C7AB  29 80     AND #$80                        A:00 X:FF Y:00 P:26 SP:FF CYC:26724
C7AD  F0 F9     BEQ $C7A8                       A:00 X:FF Y:00 P:26 SP:FF CYC:26726
C7A8  AD 02 20  LDA $2002 = 00                  A:00 X:FF Y:00 P:26 SP:FF CYC:26729
C7AB  29 80     AND #$80                        A:00 X:FF Y:00 P:26 SP:FF CYC:26733
C7AD  F0 F9     BEQ $C7A8                       A:00 X:FF Y:00 P:26 SP:FF CYC:26735
C7A8  AD 02 20  LDA $2002 = 00                  A:00 X:FF Y:00 P:26 SP:FF CYC:26738
C7AB  29 80     AND #$80                        A:00 X:FF Y:00 P:26 SP:FF CYC:26742
C7AD  F0 F9     BEQ $C7A8                       A:00 X:FF Y:00 P:26 SP:FF CYC:26744
C7A8  AD 02 20  LDA $2002 = 00                  A:00 X:FF Y:00 P:26 SP:FF CYC:26747
C7AB  29 80     AND #$80                        A:00 X:FF Y:00 P:26 SP:FF CYC:26751
C7AD  F0 F9     BEQ $C7A8                       A:00 X:FF Y:00 P:26 SP:FF CYC:26753
C7A8  AD 02 20  LDA $2002 = 00                  A:00 X:FF Y:00 P:26 SP:FF CYC:26756
C7AB  29 80     AND #$80                        A:00 X:FF Y:00 P:26 SP:FF CYC:26760
C7AD  F0 F9     BEQ $C7A8                       A:00 X:FF Y:00 P:26 SP:FF CYC:26762
C7A8  AD 02 20  LDA $2002 = 00                  A:00 X:FF Y:00 P:26 SP:FF CYC:26765
C7AB  29 80     AND #$80                        A:00 X:FF Y:00 P:26 SP:FF CYC:26769
C7AD  F0 F9     BEQ $C7A8                       A:00 X:FF Y:00 P:26 SP:FF CYC:26771
C7A8  AD 02 20  LDA $2002 = 00                  A:00 X:FF Y:00 P:26 SP:FF CYC:26774
C7AB  29 80     AND #$80                        A:00 X:FF Y:00 P:26 SP:FF CYC:26778
C7AD  F0 F9     BEQ $C7A8                       A:00 X:FF Y:00 P:26 SP:FF CYC:26780
C7A8  AD 02 20  LDA $2002 = 00                  A:00 X:FF Y:00 P:26 SP:FF CYC:26783
C7AB  29 80     AND #$80                        A:00 X:FF Y:00 P:26 SP:FF CYC:26787
C7AD  F0 F9     BEQ $C7A8                       A:00 X:FF Y:00 P:26 SP:FF CYC:26789
C7A8  AD 02 20  LDA $2002 = 00                  A:00 X:FF Y:00 P:26 SP:FF CYC:26792
C7AB  29 80     AND #$80                        A:00 X:FF Y:00 P:26 SP:FF CYC:26796
C7AD  F0 F9     BEQ $C7A8                       A:00 X:FF Y:00 P:26 SP:FF CYC:26798
C7A8  AD 02 20  LDA $2002 = 00                  A:00 X:FF Y:00 P:26 SP:FF CYC:26801
C7AB  29 80     AND #$80                        A:00 X:FF Y:00 P:26 SP:FF CYC:26805
C7AD  F0 F9     BEQ $C7A8                       A:00 X:FF Y:00 P:26 SP:FF CYC:26807
C7A8  AD 02 20  LDA $2002 = 00                  A:00 X:FF Y:00 P:26 SP:FF CYC:26810
C7AB  29 80     AND #$80                        A:00 X:FF Y:00 P:26 SP:FF CYC:26814
C7AD  F0 F9     BEQ $C7A8                       A:00 X:FF Y:00 P:26 SP:FF CYC:26816
C7A8  AD 02 20  LDA $2002 = 00                  A:00 X:FF Y:00 P:26 SP:FF CYC:26819
C7AB  29 80     AND #$80                        A:00 X:FF Y:00 P:26 SP:FF CYC:26823
C7AD  F0 F9     BEQ $C7A8                       A:00 X:FF Y:00 P:26 SP:FF CYC:26825
C7A8  AD 02 20  LDA $2002 = 00                  A:00 X:FF Y:00 P:26 SP:FF CYC:26828
C7AB  29 80     AND #$80                        A:00 X:FF Y:00 P:26 SP:FF CYC:26832
C7AD  F0 F9     BEQ $C7A8                       A:00 X:FF Y:00 P:26 SP:FF CYC:26834
C7A8  AD 02 20  LDA $2002 = 00                  A:00 X:FF Y:00 P:26 SP:FF CYC:26837
C7AB  29 80     AND #$80                        A:00 X:FF Y:00 P:26 SP:FF CYC:26841
C7AD  F0 F9     BEQ $C7A8                       A:00 X:FF Y:00 P:26 SP:FF CYC:26843
C7A8  AD 02 20  LDA $2002 = 00                  A:00 X:FF Y:00 P:26 SP:FF CYC:26846
C7AB  29 80     AND #$80                        A:00 X:FF Y:00 P:26 SP:FF CYC:26850
C7AD  F0 F9     BEQ $C7A8                       A:00 X:FF Y:00 P:26 SP:FF CYC:26852
C7A8  AD 02 20  LDA $2002 = 00                  A:00 X:FF Y:00 P:26 SP:FF CYC:26855
C7AB  29 80     AND #$80                        A:00 X:FF Y:00 P:26 SP:FF CYC:26859
C7AD  F0 F9     BEQ $C7A8                       A:00 X:FF Y:00 P:26 SP:FF CYC:26861
C7A8  AD 02 20  LDA $2002 = 00                  A:00 X:FF Y:00 P:26 SP:FF CYC:26864
C7AB  29 80     AND #$80                        A:00 X:FF Y:00 P:26 SP:FF CYC:26868
C7AD  F0 F9     BEQ $C7A8                       A:00 X:FF Y:00 P:26 SP:FF CYC:26870
C7A8  AD 02 20  LDA $2002 = 00                  A:00 X:FF Y:00 P:26 SP:FF CYC:26873
C7AB  29 80     AND #$80                        A:00 X:FF Y:00 P:26 SP:FF CYC:26877
C7AD  F0 F9     BEQ $C7A8                       A:00 X:FF Y:00 P:26 SP:FF CYC:26879
C7A8  AD 02 20  LDA $2002 = 00                  A:00 X:FF Y:00 P:26 SP:FF CYC:26882
C7AB  29 80     AND #$80                        A:00 X:FF Y:00 P:26 SP:FF CYC:26886
C7AD  F0 F9     BEQ $C7A8                       A:00 X:FF Y:00 P:26 SP:FF CYC:26888
C7A8  AD 02 20  LDA $2002 = 00                  A:00 X:FF Y:00 P:26 SP:FF CYC:26891
C7AB  29 80     AND #$80                        A:00 X:FF Y:00 P:26 SP:FF CYC:26895
C7AD  F0 F9     BEQ $C7A8                       A:00 X:FF Y:00 P:26 SP:FF CYC:26897
C7A8  AD 02 20  LDA $2002 = 00                  A:00 X:FF Y:00 P:26 SP:FF CYC:26900
C7AB  29 80     AND #$80                        A:00 X:FF Y:00 P:26 SP:FF CYC:26904
C7AD  F0 F9     BEQ $C7A8                       A:00 X:FF Y:00 P:26 SP:FF CYC:26906
C7A8  AD 02 20  LDA $2002 = 00                  A:00 X:FF Y:00 P:26 SP:FF CYC:26909
C7AB  29 80     AND #$80                        A:00 X:FF Y:00 P:26 SP:FF CYC:26913
C7AD  F0 F9     BEQ $C7A8                       A:00 X:FF Y:00 P:26 SP:FF CYC:26915
C7A8  AD 02 20  LDA $2002 = 00                  A:00 X:FF Y:00 P:26 SP:FF CYC:26918
C7AB  29 80     AND #$80                        A:00 X:FF Y:00 P:26 SP:FF CYC:26922
C7AD  F0 F9     BEQ $C7A8                       A:00 X:FF Y:00 P:26 SP:FF CYC:26924
C7A8  AD 02 20  LDA $2002 = 00                  A:00 X:FF Y:00 P:26 SP:FF CYC:26927
C7AB  29 80     AND #$80                        A:00 X:FF Y:00 P:26 SP:FF CYC:26931
C7AD  F0 F9     BEQ $C7A8                       A:00 X:FF Y:00 P:26 SP:FF CYC:26933
C7A8  AD 02 20  LDA $2002 = 00                  A:00 X:FF Y:00 P:26 SP:FF CYC:26936
C7AB  29 80     AND #$80                        A:00 X:FF Y:00 P:26 SP:FF CYC:26940
C7AD  F0 F9     BEQ $C7A8                       A:00 X:FF Y:00 P:26 SP:FF CYC:26942
C7A8  AD 02 20  LDA $2002 = 00                  A:00 X:FF Y:00 P:26 SP:FF CYC:26945
C7AB  29 80     AND #$80                        A:00 X:FF Y:00 P:26 SP:FF CYC:26949
C7AD  F0 F9     BEQ $C7A8                       A:00 X:FF Y:00 P:26 SP:FF CYC:26951
C7A8  AD 02 20  LDA $2002 = 00                  A:00 X:FF Y:00 P:26 SP:FF CYC:26954
C7AB  29 80     AND #$80                        A:00 X:FF Y:00 P:26 SP:FF CYC:26958
C7AD  F0 F9     BEQ $C7A8                       A:00 X:FF Y:00 P:26 SP:FF CYC:26960
C7A8  AD 02 20  LDA $2002 = 00                  A:00 X:FF Y:00 P:26 SP:FF CYC:26963
C7AB  29 80     AND #$80                        A:00 X:FF Y:00 P:26 SP:FF CYC:26967
C7AD  F0 F9     BEQ $C7A8                       A:00 X:FF Y:00 P:26 SP:FF CYC:26969
C7A8  AD 02 20  LDA $2002 = 00                  A:00 X:FF Y:00 P:26 SP:FF CYC:26972
C7AB  29 80     AND #$80                        A:00 X:FF Y:00 P:26 SP:FF CYC:26976
C7AD  F0 F9     BEQ $C7A8                       A:00 X:FF Y:00 P:26 SP:FF CYC:26978
C7A8  AD 02 20  LDA $2002 = 00                  A:00 X:FF Y:00 P:26 SP:FF CYC:26981
C7AB  29 80     AND #$80                        A:00 X:FF Y:00 P:26 SP:FF CYC:26985
C7AD  F0 F9     BEQ $C7A8                       A:00 X:FF Y:00 P:26 SP:FF CYC:26987
